Open Watcom Linker Version 2.0 beta Sep  3 2024 02:05:05 (32-bit)
Copyright (c) 2002-2024 The Open Watcom Contributors. All Rights Reserved.
Portions Copyright (c) 1985-2002 Sybase, Inc. All Rights Reserved.
Created on:       24/10/08 19:55:40
Executable Image: codegen.exe
creating a DOS executable


                        +------------+
                        |   Groups   |
                        +------------+

Group                           Address              Size
=====                           =======              ====

DGROUP                          02cb:0000            000034b0



                        +--------------+
                        |   Segments   |
                        +--------------+

Segment                Class          Group          Address         Size
=======                =====          =====          =======         ====

m_near_TEXT            CODE           AUTO           0000:0000       00000000
codegen_TEXT           CODE           AUTO           0000:0000       0000004a
_TEXT                  CODE           AUTO           0000:0050       00002c56
FAR_DATA               FAR_DATA       AUTO           02ca:0006       00000000
_NULL                  BEGDATA        DGROUP         02cb:0000       00000020
_AFTERNULL             BEGDATA        DGROUP         02cd:0000       00000002
CONST                  DATA           DGROUP         02cd:0002       00000a10
CONST2                 DATA           DGROUP         036e:0002       00000031
_DATA                  DATA           DGROUP         0372:0000       00000bb8
XIB                    DATA           DGROUP         042d:0008       00000000
XI                     DATA           DGROUP         042d:0008       00000012
XIE                    DATA           DGROUP         042e:000a       00000000
YIB                    DATA           DGROUP         042e:000a       00000000
YI                     DATA           DGROUP         042e:000a       00000012
YIE                    DATA           DGROUP         042f:000c       00000000
DATA                   DATA           DGROUP         042f:000c       00000000
_BSS                   BSS            DGROUP         0430:0000       00000e51
STACK                  STACK          DGROUP         0516:0000       00001000


                        +----------------+
                        |   Memory Map   |
                        +----------------+

* = unreferenced symbol
+ = symbol only referenced locally

Address        Symbol
=======        ======

Module: m_near.obj(C:\REALDOOM\m_near.c)
02cb:1650*     _usedpatchpagemem
02cb:1660*     _dirtybox
02cb:1668*     _usedcompositetexturepagemem
02cb:1670*     _solidsegs
02cb:1770*     _dl
02cb:1780*     _anims
02cb:1840*     _trace
02cb:1850*     _strace
02cb:1860*     _tmbbox
02cb:1870*     _spechit
02cb:1880*     _braintargets
02cb:18c0*     _switchlist
02cb:1988*     _buttonlist
02cb:19b0*     _saveOldString
02cb:19c8*     _w_faces
02cb:19d0*     _w_ammo
02cb:19f8*     _w_arms
02cb:1a28*     _w_keyboxes
02cb:1a40*     _w_armsbg
02cb:1a48*     _w_maxammo
02cb:1a70*     _savedescription
02cb:1a90*     _localcmds
02cb:1b30*     _gamekeydown
02cb:1c30*     _demoname
02cb:1c50*     _keyboardque
02cb:1c70*     _segregs
02cb:1c78*     _am_l
02cb:1c80*     _am_fl
02cb:1c88*     _am_lc
02cb:1c90*     _am_ml
02cb:1c98*     _markpoints
02cb:1cc0*     _activespritepages
02cb:1cc8*     _textureLRU
02cb:1cd0*     _spriteLRU
02cb:1cd8*     _activetexturepages
02cb:1ce0*     _frontsector
02cb:1ce4*     _backsector
02cb:1ce8*     _usedspritepagemem
02cb:1cfc*     _ds_p
02cb:1d00*     _intercept_p
02cb:1d04*     _levelTimeCount
02cb:1d08*     _cachedt2x
02cb:1d0c*     _cachedt2y
02cb:1d10*     _bombspot_pos
02cb:1d14*     _bottomslope
02cb:1d18*     _sightzstart
02cb:1d1c*     _bestslidefrac
02cb:1d20*     _tmymove
02cb:1d24*     _tmxmove
02cb:1d28*     _linetarget_pos
02cb:1d2c*     _aimslope
02cb:1d30*     _topslope
02cb:1d34*     _shootz
02cb:1d38*     _tmy
02cb:1d3c*     _tmx
02cb:1d40*     _viletryy
02cb:1d44*     _tmthing_pos
02cb:1d48*     _viletryx
02cb:1d4c*     _leveltime
02cb:1d50*     _setStateReturn_pos
02cb:1d54*     _bulletslope
02cb:1d58*     _activeceilings
02cb:1d94*     _caststate
02cb:1d98*     _activeplats
02cb:1dd4*     _OldInt8
02cb:1dd8*     _TS_TimesInInterrupt
02cb:1ddc*     _st_stuff_buf
02cb:1e10*     _w_health
02cb:1e1c*     _w_armor
02cb:1e28*     _dclicks2
02cb:1e2c*     _dclicks
02cb:1e30*     _dclicktime
02cb:1e34*     _dclickstate
02cb:1e38*     _dclicktime2
02cb:1e3c+     _mousearray
02cb:1e40*     _dclickstate2
02cb:1e44*     _starttime
02cb:1e48*     _gametic
02cb:1e4c*     _maketic
02cb:1e50*     _gametime
02cb:1e54*     _p_init_sprtemp
02cb:1e58*     _ticcount
02cb:1e5c*     _am_scale_ftom
02cb:1e60*     _am_buffer
02cb:1e74*     _am_max_scale_mtof
02cb:1e78*     _am_scale_mtof
02cb:1e7c*     _screen_oldloc
02cb:1e80*     _m_paninc
02cb:1e84*     _activenumpages
02cb:1e88*     _activespritenumpages
02cb:1e8c*     _ceiltop
02cb:1e90*     _pspriteiscale
02cb:1e94*     _maskedtexturecol
02cb:1e98*     _floortop
02cb:1e9c*     _topfrac
02cb:1ea0*     _bottomstep
02cb:1ea4*     _pixhigh
02cb:1ea8*     _bottomfrac
02cb:1eac*     _pixlow
02cb:1eb0*     _pixhighstep
02cb:1eb4*     _topstep
02cb:1eb8*     _pixlowstep
02cb:1ebc*     _r_cachedstatecopy
02cb:1ec8*     _lineopening
02cb:1ece*     _numRef
02cb:1ed8*     _HeadTask
02cb:1eea*     _keyboxes
02cb:1ef0*     _w_ready
02cb:1efa*     _out
02cb:1f08*     _in
02cb:1f16*     _regs
02cb:1f24*     _allocatedflatsperpage
02cb:1f2a*     _bmapwidth
02cb:1f2c*     _emshandle
02cb:1f2e*     _bmaporgx
02cb:1f30*     _bmaporgy
02cb:1f32*     _numlines
02cb:1f34*     _numnodes
02cb:1f36*     _pagenum9000
02cb:1f38*     _bmapheight
02cb:1f3a*     _numsides
02cb:1f3c*     _numvertexes
02cb:1f3e*     _wadfilefp
02cb:1f40*     _wadfilefp2
02cb:1f42*     _numsectors
02cb:1f44*     _numlumps
02cb:1f46*     _numsubsectors
02cb:1f48*     _numsegs
02cb:1f4a*     _newend
02cb:1f4c*     _numlinespecials
02cb:1f4e*     _lastanim
02cb:1f50*     _curseg_render
02cb:1f52*     _curseg
02cb:1f54*     _attackrange16
02cb:1f56*     _bombdamage
02cb:1f58*     _la_damage
02cb:1f5a*     _linetarget
02cb:1f5c*     _shootthing
02cb:1f5e*     _bestslidelinenum
02cb:1f60*     _ceilinglinenum
02cb:1f62*     _tmthing
02cb:1f64*     _bombsource
02cb:1f66*     _tmfloorz
02cb:1f68*     _lastcalculatedsector
02cb:1f6a*     _tmdropoffz
02cb:1f6c*     _tmceilingz
02cb:1f6e*     _numspechit
02cb:1f70*     _tmflags1
02cb:1f72*     _bombspot
02cb:1f74*     _setStateReturn
02cb:1f76*     _numbraintargets
02cb:1f78*     _corpsehitRef
02cb:1f7a*     _oldentertics
02cb:1f7c*     _currentThinkerListHead
02cb:1f7e*     _braintargeton
02cb:1f80*     _vileobj
02cb:1f82*     _save_p
02cb:1f84*     _numswitches
02cb:1f86*     _sp_state
02cb:1f88*     _cnt_items
02cb:1f8a*     _yahRef
02cb:1f8c*     _cnt_kills
02cb:1f8e*     _cnt_secret
02cb:1f90*     _cnt_par
02cb:1f92*     _bcnt
02cb:1f94*     _cnt_time
02cb:1f96*     _cnt_pause
02cb:1f98*     _wbs
02cb:1f9a*     _acceleratestage
02cb:1f9c*     _cnt
02cb:1f9e*     _whichSkull
02cb:1fa0*     _currentMenu
02cb:1fa2*     _menu_drawer_x
02cb:1fa4*     _menu_drawer_y
02cb:1fa6*     _skullAnimCounter
02cb:1fa8*     _itemOn
02cb:1faa*     _messageLastMenuActive
02cb:1fac*     _finaleflat
02cb:1fae*     _finaletext
02cb:1fb0*     _saveStringEnter
02cb:1fb2*     _saveCharIndex
02cb:1fb4*     _messageRoutine
02cb:1fb6*     _saveSlot
02cb:1fb8*     _finalecount
02cb:1fba*     _finalestage
02cb:1fbc*     _st_calc_lastcalc
02cb:1fbe*     _defdemoname
02cb:1fc0*     _defaultfile
02cb:1fc2*     _myargc
02cb:1fc4*     _myargv
02cb:1fc6*     _mousey
02cb:1fc8*     _mousex
02cb:1fca*     _demo_p
02cb:1fcc*     _totalkills
02cb:1fce*     _totalitems
02cb:1fd0*     _totalsecret
02cb:1fd2*     _p_init_maxframe
02cb:1fd4*     _EMS_PAGE
02cb:1fd6*     _am_min_level_x
02cb:1fd8*     _am_min_level_y
02cb:1fda*     _screen_viewport_height
02cb:1fdc*     _screen_topright_y
02cb:1fde*     _screen_topright_x
02cb:1fe0*     _screen_viewport_width
02cb:1fe2*     _am_min_scale_mtof
02cb:1fe4*     _old_screen_viewport_width
02cb:1fe6*     _old_screen_botleft_x
02cb:1fe8*     _old_screen_botleft_y
02cb:1fea*     _screen_botleft_y
02cb:1fec*     _am_max_level_y
02cb:1fee*     _am_max_level_x
02cb:1ff0*     _old_screen_viewport_height
02cb:1ff2*     _screen_botleft_x
02cb:1ff4*     _ftom_zoommul
02cb:1ff6*     _mtof_zoommul
02cb:1ff8*     _numtextures
02cb:1ffa*     _spritelights
02cb:1ffc*     _firstflat
02cb:1ffe*     _firstspritelump
02cb:2000*     _numpatches
02cb:2002*     _pspritescale
02cb:2004*     _firstpatch
02cb:2006*     _numspritelumps
02cb:2008*     _vissprite_p
02cb:200a*     _walllights
02cb:200c*     _numflats
02cb:200e*     _toptexture
02cb:2010*     _midtexture
02cb:2012*     _bottomtexture
02cb:2014*     _skytexture
02cb:2016*     _r_cachedplayerMobjsecnum
02cb:2018*     _setdetail
02cb:201a*     _scaledviewwidth
02cb:201c*     _viewheight
02cb:201e*     _lastopening
02cb:2020*     _lastvisplane
02cb:2022*     _viewwindowoffset
02cb:2024*     _floorplaneindex
02cb:2026*     _viewwindowx
02cb:2028*     _viewwindowy
02cb:202a*     _ceilingplaneindex
02cb:202c*     _viewwidth
02cb:202e*     _pagename
02cb:2030*     _pagetic
02cb:2032*     _snd_Mport
02cb:2034*     _snd_SBport
02cb:2036*     _plrs
02cb:203f*     _menu_messageString
02cb:20a8*     _w_message
02cb:2211*     _w_title
02cb:226a*     _oldweaponsowned
02cb:2273*     _wminfo
02cb:2288*     _player
02cb:2309*     _levelTimer
02cb:230a*     _crushchange
02cb:230b*     _nofit
02cb:230c*     _earlyout
02cb:230d*     _floatok
02cb:230e*     _onground
02cb:230f*     _castonmelee
02cb:2310*     _castdeath
02cb:2311*     _castframes
02cb:2312*     _castattacking
02cb:2313*     _splatRef
02cb:2314*     _casttics
02cb:2315*     _castnum
02cb:2316*     _state
02cb:2317*     _menu_epi
02cb:2318*     _finale_laststage
02cb:2319*     _messageNeedsInput
02cb:231a*     _messageToPrint
02cb:231b*     _message_on
02cb:231c*     _message_dontfuckwithme
02cb:231d*     _message_counter
02cb:231e*     _message_nottobefuckedwith
02cb:231f*     _do_st_refresh
02cb:2320*     _st_randomnumber
02cb:2321*     _st_statusbaron
02cb:2322*     _updatedthisframe
02cb:2323*     _st_gamestate
02cb:2324*     _d_episode
02cb:2325*     _secretexit
02cb:2326*     _d_skill
02cb:2327*     _d_map
02cb:2328*     _st_firsttime
02cb:2329*     _savegameslot
02cb:232a+     _usemouse
02cb:232b+     _mousebforward
02cb:232c+     _mousebfire
02cb:232d*     _turnheld
02cb:232e+     _mousebstrafe
02cb:232f+     _key_speed
02cb:2330+     _key_left
02cb:2331+     _key_fire
02cb:2332+     _key_strafe
02cb:2333+     _key_straferight
02cb:2334*     _demoplayback
02cb:2335+     _key_up
02cb:2336*     _demorecording
02cb:2337*     _singledemo
02cb:2338*     _netdemo
02cb:2339+     _key_down
02cb:233a+     _key_use
02cb:233b+     _key_right
02cb:233c+     _key_strafeleft
02cb:233d*     _paused
02cb:233e*     _viewactive
02cb:233f*     _timingdemo
02cb:2340*     _sendsave
02cb:2341*     _gamemap
02cb:2342*     _noblit
02cb:2343*     _respawnmonsters
02cb:2344*     _gameepisode
02cb:2345*     _sendpause
02cb:2346*     _usergame
02cb:2347*     _borderdrawcount
02cb:2348+     _numChannels
02cb:2349*     _gameskill
02cb:234a*     _gamestate
02cb:234b*     _kbdhead
02cb:234c*     _gameaction
02cb:234d+     _usegamma
02cb:234e*     _kbdtail
02cb:234f*     _mousepresent
02cb:2350*     _novideo
02cb:2351*     _cachedcol
02cb:2352*     _cachedbyteheight
02cb:2353*     _vsprsortedheadfirst
02cb:2354*     _maskedtexture
02cb:2355*     _markceiling
02cb:2356*     _segtextured
02cb:2357*     _setsizeneeded
02cb:2358*     _extralight
02cb:2359*     _skyflatnum
02cb:235a*     _markfloor
02cb:235b*     _setblocks
02cb:235c*     _menuactive
02cb:235d*     _screenSize
02cb:235e*     _inhelpscreens
02cb:235f*     _quickSaveSlot
02cb:2360*     _shareware
02cb:2361*     _eventtail
02cb:2362*     _modifiedgame
02cb:2363+     _sfxVolume
02cb:2364*     _autostart
02cb:2365+     _showMessages
02cb:2366*     _advancedemo
02cb:2367+     _mouseSensitivity
02cb:2368*     _registered
02cb:2369+     _screenblocks
02cb:236a*     _eventhead
02cb:236b+     _detailLevel
02cb:236c*     _commercial
02cb:236d+     _musicVolume
02cb:236e*     _demosequence
02cb:236f*     _startmap
02cb:2370*     _snd_MusicVolume
02cb:2371+     _snd_SBport8bit
02cb:2372*     _snd_SfxVolume
02cb:2373*     _nomonsters
02cb:2374*     _startskill
02cb:2375+     _snd_DesiredSfxDevice
02cb:2376*     _snd_MusicDevice
02cb:2377*     _fastparm
02cb:0a70*     _wipegamestate
02cb:0a71*     _singletics
02cb:0a72*     _visplanelookupsegments
02cb:0a78*     _ceilphyspage
02cb:0a79*     _floorphyspage
02cb:0a7a*     _currentflatpage
02cb:0a82*     _visplanedirty
02cb:0a83*     _skytextureloaded
02cb:0a84*     _validcount
02cb:0a86*     _clipangle
02cb:0a88*     _fieldofview
02cb:0a8a*     _lastvisspritesegment
02cb:0a8c*     _lastvisspritepatch
02cb:0a8e*     _spritecache_head
02cb:0a8f*     _spritecache_tail
02cb:0a90*     _flatcache_head
02cb:0a91*     _flatcache_tail
02cb:0a92*     _patchcache_head
02cb:0a93*     _patchcache_tail
02cb:0a94*     _texturecache_head
02cb:0a95*     _texturecache_tail
02cb:0a96*     _cachedsegmentlump
02cb:0a98*     _cachedsegmenttex
02cb:0a9a*     _cachedlump
02cb:0a9c*     _cachedtex
02cb:0a9e*     _cachedsegmentlump2
02cb:0aa0*     _cachedsegmenttex2
02cb:0aa2*     _cachedlump2
02cb:0aa4*     _cachedtex2
02cb:0aa6*     _cachedcollength
02cb:0aa7*     _cachedcollength2
02cb:0aa8*     _active_visplanes
02cb:0aad*     _am_cheating
02cb:0aae*     _am_grid
02cb:0aaf*     _markpointnum
02cb:0ab0*     _followplayer
02cb:0ab1+     _cheat_amap_seq
02cb:0ab6*     _cheat_amap
02cb:0aba*     _am_stopped
02cb:0abb*     _am_bigstate
02cb:0abc*     _automapactive
02cb:0abd*     _am_lastlevel
02cb:0abe*     _am_lastepisode
02cb:0abf*     _player_arrow
02cb:0af7*     _cheat_player_arrow
02cb:0b77*     _thintriangle_guy
02cb:0b90*     _lightmult48lookup
02cb:0bb0*     _lightshift7lookup
02cb:0bd0*     _pagesegments
02cb:0bd8*     _MULT_4096
02cb:0be0*     _MULT_256
02cb:0be8*     _FLAT_CACHE_PAGE
02cb:0bf0*     _visplane_offset
02cb:0c22*     _vga_read_port_lookup
02cb:0c3c*     _R_DrawColumnPrepCallHigh
02cb:0c40*     _R_DrawColumnPrepCall
02cb:0c44*     _R_MapPlaneCall
02cb:0c48*     _R_DrawFuzzColumnCallHigh
02cb:0c4c*     _R_DrawMaskedColumnCallHigh
02cb:0c50*     _R_DrawSingleMaskedColumnCallHigh
02cb:0c54*     _R_DrawMaskedColumnCallSpriteHigh
02cb:0c58*     _R_DrawSkyPlaneCallHigh
02cb:0c5c*     _currentlumpindex
02cb:0c5e*     _maskedcount
02cb:0c60*     _currentpostoffset
02cb:0c62*     _currentpostdataoffset
02cb:0c64*     _currentpixeloffset
02cb:0c66*     _grmode
02cb:0c68*     _oldkeyboardisr
02cb:0c6c*     _viewactivestate
02cb:0c6d*     _menuactivestate
02cb:0c6e*     _inhelpscreensstate
02cb:0c6f*     _fullscreen
02cb:0c70*     _oldgamestate
02cb:0c71*     _precache
02cb:0c72*     _forwardmove
02cb:0c74*     _sidemove
02cb:0c76*     _angleturn
02cb:0c7c*     _mousebuttons
02cb:0c7e*     _rndindex
02cb:0c80*     _prndindex
02cb:0c82*     _defaults
02cb:0d46*     _tallnum
02cb:0d5a*     _shortnum
02cb:0d6e*     _keys
02cb:0d7a*     _faces
02cb:0dce*     _arms
02cb:0de6*     _st_oldhealth
02cb:0de8*     _st_facecount
02cb:0dea*     _st_faceindex
02cb:0dec+     _cheat_mus_seq
02cb:0df5+     _cheat_choppers_seq
02cb:0e00+     _cheat_god_seq
02cb:0e06+     _cheat_ammo_seq
02cb:0e0c+     _cheat_ammonokey_seq
02cb:0e11+     _cheat_noclip_seq
02cb:0e1c+     _cheat_commercial_noclip_seq
02cb:0e23+     _cheat_powerup_seq
02cb:0e69+     _cheat_clev_seq
02cb:0e73+     _cheat_mypos_seq
02cb:0e7b*     _cheat_mus
02cb:0e7f*     _cheat_god
02cb:0e83*     _cheat_ammo
02cb:0e87*     _cheat_ammonokey
02cb:0e8b*     _cheat_noclip
02cb:0e8f*     _cheat_commercial_noclip
02cb:0e93*     _cheat_powerup
02cb:0eaf*     _cheat_choppers
02cb:0eb3*     _cheat_clev
02cb:0eb7*     _cheat_mypos
02cb:0ebb*     _st_palette
02cb:0ebc*     _st_calc_oldhealth
02cb:0ebe*     _st_face_lastattackdown
02cb:0ebf*     _st_face_priority
02cb:0ec0*     _hudneedsupdate
02cb:0ec2*     _hu_font
02cb:0f40*     _mapnames
02cb:0f6d*     _mapnames2
02cb:0f8e*     _e1text
02cb:0f90*     _e2text
02cb:0f92*     _e3text
02cb:0f94*     _c1text
02cb:0f96*     _c2text
02cb:0f98*     _c3text
02cb:0f9a*     _c4text
02cb:0f9c*     _c5text
02cb:0f9e*     _c6text
02cb:0fa0*     _gammamsg
02cb:0fa6*     _endmsg
02cb:0fb6*     _endmsg2
02cb:0fc6*     _skullName
02cb:0fca*     _menu_mousewait
02cb:0fcc*     _menu_mousey
02cb:0fce*     _menu_lasty
02cb:0fd0*     _menu_mousex
02cb:0fd2*     _menu_lastx
02cb:0fd4*     _detailNames
02cb:0fd6*     _msgNames
02cb:0fd8*     _quitsounds
02cb:0fe0*     _quitsounds2
02cb:0fe8*     _wipeduration
02cb:0fec*     _TaskServiceRate
02cb:0ff0*     _TaskServiceCount
02cb:0ff4*     _TS_Installed
02cb:0ff8*     _TS_InInterrupt
02cb:0ffc*     _NUMANIMS
02cb:1000*     _wianims
02cb:100c*     _unloaded
02cb:100d*     _snl_pointeron
02cb:100e*     _castorder
02cb:1030*     _st_stopped
02cb:1032*     _armsbgarray
02cb:1034*     _weaponinfo
02cb:1098*     _maxammo
02cb:10a0*     _clipammo
02cb:0a32*     _snd_prefixen
02cb:10a4*     _brainspit_easy
02cb:10a5*     _opposite
02cb:10ae*     _diags
02cb:10b2*     _movedirangles
02cb:10c2*     _pageswapargs
02cb:12d2*     _current5000State
02cb:12d3*     _last5000State
02cb:12d4*     _current9000State
02cb:12d5*     _last9000State
02cb:12d6*     _currenttask
02cb:12d7*     _ems_backfill_page_order
02cb:2378*     _snd_SfxDevice
02cb:2379*     _respawnparm
02cb:237a*     _startepisode
02cb:237b+     _snd_DesiredMusicDevice
02cb:237c+     _snd_Mport8bit
02cb:237d+     _snd_SBirq
02cb:237e+     _snd_SBdma
Module: codegen.obj(C:\REALDOOM\build\tools\codegen\codegen.c)
0000:0000      main_
02cb:12f0+     _CONSTANTS
02cb:13b4+     _SEGMENTS
Module: C:\WATCOM2\lib286\dos\clibm.lib(fopen.c)
0000:0050+     __open_flags_
0000:01fe+     _fsopen_
0000:0243      fopen_
0000:02a7*     freopen_
Module: C:\WATCOM2\lib286\dos\clibm.lib(fprintf.c)
0000:02eb      fprintf_
Module: C:\WATCOM2\lib286\dos\clibm.lib(fclose.c)
0000:0302      __doclose_
0000:0398      __shutdown_stream_
0000:03ac      fclose_
02cb:2380+     ___RmTmpFileFn
Module: C:\WATCOM2\lib286\dos\clibm.lib(printf.c)
0000:03cf      printf_
Module: C:\WATCOM2\lib286\dos\clibm.lib(cstart)
02cb:0000*     __nullarea
02cb:1478*     __ovlflag
02cb:1479*     __intno
02cb:147a*     __ovlvec
0000:03e6      _cstart_
0000:0597      __exit_
0000:05b4      __do_exit_with_msg_
0000:0693      __GETDS
Module: C:\WATCOM2\lib286\dos\clibm.lib(cmodel.asm)
0000:069e      _big_code_
0000:069e*     CodeModelMismatch
Module: C:\WATCOM2\lib286\dos\clibm.lib(argcv.c)
02cb:2384      __argc
02cb:2386      __argv
02cb:2388      ___argc
02cb:238a      ___argv
Module: C:\WATCOM2\lib286\dos\clibm.lib(comtflag.c)
0000:069e*     __set_commode_
02cb:147e      __commode
Module: C:\WATCOM2\lib286\dos\clibm.lib(errno.c)
0000:06a5      __get_errno_ptr_
02cb:238c+     _errno
Module: C:\WATCOM2\lib286\dos\clibm.lib(textmode.c)
02cb:1480      __fmode
Module: C:\WATCOM2\lib286\dos\clibm.lib(tolower.c)
0000:06a9      tolower_
Module: C:\WATCOM2\lib286\dos\clibm.lib(open.c)
0000:0881*     open_
0000:08a1      _sopen_
Module: C:\WATCOM2\lib286\dos\clibm.lib(fseek.c)
0000:090f      fseek_
Module: C:\WATCOM2\lib286\dos\clibm.lib(chktty.c)
0000:0a2d      __chktty_
Module: C:\WATCOM2\lib286\dos\clibm.lib(freefp.c)
0000:0a54      __freefp_
0000:0a78      __purgefp_
Module: C:\WATCOM2\lib286\dos\clibm.lib(allocfp.c)
0000:0a91      __allocfp_
Module: C:\WATCOM2\lib286\dos\clibm.lib(iob.c)
02cb:1482      ___iob
02cb:238e      ___OpenStreams
02cb:2390      ___ClosedStreams
Module: C:\WATCOM2\lib286\dos\clibm.lib(fprtf.c)
0000:0b36      __fprtf_
Module: C:\WATCOM2\lib286\dos\clibm.lib(__lseek.c)
0000:0bd1      __lseek_
Module: C:\WATCOM2\lib286\dos\clibm.lib(_clse.c)
0000:0c0b      __close_
Module: C:\WATCOM2\lib286\dos\clibm.lib(nfree.c)
0000:0c41      _nfree_
0000:0c41      free_
02cb:2392+     ___MiniHeapFreeRover
Module: C:\WATCOM2\lib286\dos\clibm.lib(flush.c)
0000:0d06      __flush_
Module: C:\WATCOM2\lib286\dos\clibm.lib(xmsg.c)
0000:0dfa*     __exit_with_msg_
0000:0dff      __fatal_runtime_error_
Module: C:\WATCOM2\lib286\dos\clibm.lib(cmain086.c)
0000:0e19      __CMain
Module: C:\WATCOM2\lib286\dos\clibm.lib(initrtns.c)
0000:0e61      __InitRtns
0000:0e61*     __FInitRtns
0000:0eb8      __FiniRtns
0000:0eb8*     __FFiniRtns
Module: C:\WATCOM2\lib286\dos\clibm.lib(crwdata)
02cb:159a      __curbrk
02cb:15a2      __STACKLOW
02cb:15a4      __STACKTOP
02cb:15a6      __cbyte
02cb:15a8      __child
02cb:15aa      __no87
02cb:15b7      ___FPE_handler
02cb:159c      __psp
02cb:15ab      __get_ovl_stack
02cb:15af      __restore_ovl_stack
02cb:15b3      __close_ovl_file
02cb:15bb      __LpCmdLine
02cb:15bf      __LpPgmName
02cb:159e      __osmajor
02cb:159f      __osminor
02cb:15a0      __osmode
02cb:15a1      __HShift
Module: C:\WATCOM2\lib286\dos\clibm.lib(uselfn.c)
02cb:15c4      ___uselfn
Module: C:\WATCOM2\lib286\dos\clibm.lib(dosseg)
0000:0f16      __DOSseg__
Module: C:\WATCOM2\lib286\dos\clibm.lib(initargv.c)
0000:107e      __Init_Argv_
0000:10b5      __Fini_Argv_
Module: C:\WATCOM2\lib286\dos\clibm.lib(opendos.c)
0000:10cb      _dos_open_
Module: C:\WATCOM2\lib286\dos\clibm.lib(iomode.c)
0000:10e1      __GetIOMode_
0000:10f8      __SetIOMode_nogrow_
02cb:15c6      ___NFiles
02cb:15c8      ___init_mode
02cb:15f0      ___io_mode
Module: C:\WATCOM2\lib286\dos\clibm.lib(isatt.c)
0000:110d      isatty_
Module: C:\WATCOM2\lib286\dos\clibm.lib(dosret.c)
0000:1129      __set_errno_dos_
0000:118d*     __set_errno_dos_reterr_
Module: C:\WATCOM2\lib286\dos\clibm.lib(doserrno.c)
0000:1198      __get_doserrno_ptr_
02cb:2396+     __doserrno
Module: C:\WATCOM2\lib286\dos\clibm.lib(umaskval.c)
02cb:1606      ___umaskval
Module: C:\WATCOM2\lib286\dos\clibm.lib(creatdos.c)
0000:119c      _dos_creat_
0000:11b0*     _dos_creatnew_
Module: C:\WATCOM2\lib286\dos\clibm.lib(stiomode.c)
0000:11c4+     __grow_iomode_
0000:1251+     __shrink_iomode_
0000:126c      __SetIOMode_
Module: C:\WATCOM2\lib286\dos\clibm.lib(lseek.c)
0000:12c0      lseek_
Module: C:\WATCOM2\lib286\dos\clibm.lib(tell.c)
0000:12f1      _tell_
Module: C:\WATCOM2\lib286\dos\clibm.lib(nmalloc.c)
0000:1302      _nmalloc_
0000:1302      malloc_
02cb:1608      ___nheapbeg
02cb:160a      ___MiniHeapRover
02cb:160c      ___LargestSizeB4MiniHeapRover
Module: C:\WATCOM2\lib286\dos\clibm.lib(initfile.c)
0000:13c1      __InitFiles_
Module: C:\WATCOM2\lib286\dos\clibm.lib(ioexit.c)
0000:14a1*     fcloseall_
0000:14a8      __full_io_exit_
Module: C:\WATCOM2\lib286\dos\clibm.lib(fputc.c)
0000:14b2      fputc_
Module: C:\WATCOM2\lib286\dos\clibm.lib(ioalloc.c)
0000:1563      __ioalloc_
Module: C:\WATCOM2\lib286\dos\clibm.lib(prtf.c)
0000:1f27      __prtf_
Module: C:\WATCOM2\lib286\dos\clibm.lib(mem.c)
0000:2130      __MemAllocator
0000:21f8      __MemFree
Module: C:\WATCOM2\lib286\dos\clibm.lib(qwrit.c)
0000:2372      __qwrite_
Module: C:\WATCOM2\lib286\dos\clibm.lib(fsync.c)
0000:23d1      fsync_
Module: C:\WATCOM2\lib286\dos\clibm.lib(enterdb.c)
0000:23d6      __EnterWVIDEO_
02cb:160e+     __WD_Present
Module: C:\WATCOM2\lib286\dos\clibm.lib(___argc.c)
02cb:239a      ____Argv
02cb:239c      ____Argc
Module: C:\WATCOM2\lib286\dos\clibm.lib(exit.c)
0000:23f2+     __null_int23_exit_
0000:23f3      exit_
0000:2413*     _exit_
02cb:1610+     ___int23_exit
02cb:1614+     ___FPE_handler_exit
Module: C:\WATCOM2\lib286\dos\clibm.lib(sgdef086)
02cb:1628      __Start_XI
02cb:163a      __End_XI
02cb:163a      __Start_YI
02cb:164c      __End_YI
Module: C:\WATCOM2\lib286\dos\clibm.lib(histsplt.c)
02cb:239e      ___historical_splitparms
Module: C:\WATCOM2\lib286\dos\clibm.lib(error086.asm)
0000:2422      __doserror_
0000:2430*     __doserror1_
Module: C:\WATCOM2\lib286\dos\clibm.lib(nrealloc.c)
0000:243c*     _nrealloc_
0000:243c      realloc_
Module: C:\WATCOM2\lib286\dos\clibm.lib(iomodtty.c)
0000:24b6      __ChkTTYIOMode_
0000:24ea*     __IOMode_
Module: C:\WATCOM2\lib286\dos\clibm.lib(nmemneed.c)
0000:24fa      __nmemneed_
Module: C:\WATCOM2\lib286\dos\clibm.lib(grownear.c)
0000:2563+     __LastFree_
0000:25cb      __ExpandDGROUP_
Module: C:\WATCOM2\lib286\dos\clibm.lib(wctomb.c)
0000:26a3      wctomb_
Module: C:\WATCOM2\lib286\dos\clibm.lib(itoa.c)
0000:26c0+     utoa_
0000:2705      itoa_
Module: C:\WATCOM2\lib286\dos\clibm.lib(i4m.asm)
0000:2722*     __I4M
0000:2722      __U4M
Module: C:\WATCOM2\lib286\dos\clibm.lib(noefgfmt.c)
02cb:1618      ___EFG_printf
02cb:161c*     ___EFG_scanf
Module: C:\WATCOM2\lib286\dos\clibm.lib(lltoa.c)
0000:2749      ulltoa_
0000:280d*     lltoa_
Module: C:\WATCOM2\lib286\dos\clibm.lib(strupr.c)
0000:2861      _strupr_
Module: C:\WATCOM2\lib286\dos\clibm.lib(ltoa.c)
0000:2881      ultoa_
0000:28d4*     ltoa_
Module: C:\WATCOM2\lib286\dos\clibm.lib(mbisdbcs.c)
02cb:1620      ___IsDBCS
Module: C:\WATCOM2\lib286\dos\clibm.lib(mbislead.c)
0000:28f5*     _ismbblead_
02cb:23a0      ___MBCSIsTable
Module: C:\WATCOM2\lib286\dos\clibm.lib(filedos.c)
0000:290c*     _dos_close_
0000:291a      _dos_commit_
Module: C:\WATCOM2\lib286\dos\clibm.lib(nmsize.c)
0000:2929*     _msize_
0000:2929      _nmsize_
Module: C:\WATCOM2\lib286\dos\clibm.lib(nexpand.c)
0000:2938      _nexpand_
0000:2938*     _expand_
Module: C:\WATCOM2\lib286\dos\clibm.lib(amblksiz.c)
02cb:1622      __amblksiz
Module: C:\WATCOM2\lib286\dos\clibm.lib(heapen.c)
0000:2987*     _heapenable_
02cb:1624      ___heap_enabled
Module: C:\WATCOM2\lib286\dos\clibm.lib(sbrk.c)
0000:2993      __brk_
0000:29e9*     sbrk_
Module: C:\WATCOM2\lib286\dos\clibm.lib(alphabet.c)
02cb:0a3e      ___Alphabet
Module: C:\WATCOM2\lib286\dos\clibm.lib(mbinit.c)
0000:2a4c      __mbinit_
02cb:1626+     ___MBCodePage
Module: C:\WATCOM2\lib286\dos\clibm.lib(_expand.c)
0000:2ab7      __HeapManager_expand_
Module: C:\WATCOM2\lib286\dos\clibm.lib(getltdos.c)
0000:2c48      dos_get_dbcs_lead_table_
Module: C:\WATCOM2\lib286\dos\clibm.lib(getcpdos.c)
0000:2c71      dos_get_code_page_
Module: C:\WATCOM2\lib286\dos\clibm.lib(bfree.c)
0000:2c81      _bfree_


                        +--------------------+
                        |   Libraries Used   |
                        +--------------------+

C:\WATCOM2\lib286\dos\clibm.lib


                        +-----------------------+
                        |   Linker Statistics   |
                        +-----------------------+

Stack size:  1000 (4096.)
Memory size:  6160 (24928.)
Entry point address: 0000:03e6
Link time: 00:00.65
