Open Watcom Linker Version 2.0 beta Sep  3 2024 02:05:05 (32-bit)
Copyright (c) 2002-2024 The Open Watcom Contributors. All Rights Reserved.
Portions Copyright (c) 1985-2002 Sybase, Inc. All Rights Reserved.
Created on:       25/01/18 13:19:02
Executable Image: codegen.exe
creating a DOS executable


                        +------------+
                        |   Groups   |
                        +------------+

Group                           Address              Size
=====                           =======              ====

DGROUP                          02cf:0000            00009950



                        +--------------+
                        |   Segments   |
                        +--------------+

Segment                Class          Group          Address         Size
=======                =====          =====          =======         ====

m_near_TEXT            CODE           AUTO           0000:0000       00000000
codegen_TEXT           CODE           AUTO           0000:0000       00000084
_TEXT                  CODE           AUTO           0000:0090       00002c56
FAR_DATA               FAR_DATA       AUTO           02ce:0006       00000000
_NULL                  BEGDATA        DGROUP         02cf:0000       00000020
_AFTERNULL             BEGDATA        DGROUP         02d1:0000       00000002
CONST                  DATA           DGROUP         02d1:0002       00005694
CONST2                 DATA           DGROUP         083a:0006       00000031
_DATA                  DATA           DGROUP         083e:0000       000024ce
XIB                    DATA           DGROUP         0a8a:000e       00000000
XI                     DATA           DGROUP         0a8a:000e       00000012
XIE                    DATA           DGROUP         0a8c:0000       00000000
YIB                    DATA           DGROUP         0a8c:0000       00000000
YI                     DATA           DGROUP         0a8c:0000       00000012
YIE                    DATA           DGROUP         0a8d:0002       00000000
DATA                   DATA           DGROUP         0a8d:0002       00000000
_BSS                   BSS            DGROUP         0a8e:0000       00000d5b
STACK                  STACK          DGROUP         0b64:0000       00001000


                        +----------------+
                        |   Memory Map   |
                        +----------------+

* = unreferenced symbol
+ = symbol only referenced locally

Address        Symbol
=======        ======

Module: m_near.obj(C:\REALDOOM\m_near.c)
02cf:7bf0*     _codestartposition
02cf:7bf8*     _savename
02cf:7c08*     _texturecache_nodes
02cf:7c68*     _spritecache_nodes
02cf:7cb8*     _anims
02cf:7d78*     _usedtexturepagemem
02cf:7d90*     _solidsegs
02cf:7e10*     _wadfiles
02cf:7e18*     _strace
02cf:7e28*     _dl
02cf:7e38*     _trace
02cf:7e48*     _switchlist
02cf:7f10*     _buttonlist
02cf:7f38*     _saveOldString
02cf:7f50*     _w_faces
02cf:7f58*     _w_ammo
02cf:7f80*     _w_arms
02cf:7fb0*     _w_keyboxes
02cf:7fc8*     _w_armsbg
02cf:7fd0*     _w_maxammo
02cf:7ff8*     _gamekeydown
02cf:80f8*     _localcmds
02cf:8178*     _keyboardque
02cf:8198*     _segregs
02cf:81a0*     _am_lc
02cf:81a8*     _am_l
02cf:81b0*     _am_fl
02cf:81b8*     _am_ml
02cf:81c0*     _markpoints
02cf:81e8*     _spriteL1LRU
02cf:81f0*     _activespritepages
02cf:81f8*     _textureL1LRU
02cf:8208*     _cachedsegmentlumps
02cf:8210*     _cachedlumps
02cf:8218*     _activenumpages
02cf:8220*     _activetexturepages
02cf:8230*     _nextcleanup
02cf:8234*     _flatcache_nodes
02cf:8240*     _segloopcachedsegment
02cf:8244*     _segloopcachedbasecol
02cf:8248*     _segloopprevlookup
02cf:824c*     _levelTimeCount
02cf:8250*     _usedspritepagemem
02cf:8264*     _filetolumpsize
02cf:8270*     _intercept_p
02cf:8274*     _bottomslope
02cf:8278*     _sightzstart
02cf:827c*     _cachedt2x
02cf:8280*     _cachedt2y
02cf:8284*     _aimslope
02cf:8288*     _topslope
02cf:828c*     _shootz
02cf:8290*     _tmy
02cf:8294*     _tmx
02cf:8298*     _tmthing_pos
02cf:829c*     _bestslidefrac
02cf:82a0*     _tmymove
02cf:82a4*     _tmxmove
02cf:82a8*     _linetarget_pos
02cf:82ac*     _bulletslope
02cf:82b0*     _leveltime
02cf:82b4*     _setStateReturn_pos
02cf:82b8*     _save_p
02cf:82bc*     _activeceilings
02cf:82f8*     _activeplats
02cf:8334*     _TaskServiceCount
02cf:8338*     _OldInt8
02cf:833c*     _st_stuff_buf
02cf:8370*     _w_health
02cf:837c*     _w_armor
02cf:8388+     _mousearray
02cf:838c*     _starttime
02cf:8390*     _gametic
02cf:8394*     _maketic
02cf:8398*     _gametime
02cf:839c*     _p_init_sprtemp
02cf:83a0*     _am_max_scale_mtof
02cf:83a4*     _am_scale_mtof
02cf:83a8*     _am_scale_ftom
02cf:83ac*     _screen_oldloc
02cf:83b0*     _am_buffer
02cf:83c4*     _m_paninc
02cf:83c8*     _activespritenumpages
02cf:83cc*     _channels
02cf:83de*     _lineopening
02cf:83e4*     _numRef
02cf:83ee*     _w_ready
02cf:83f8*     _keyboxes
02cf:83fe*     _out
02cf:840c*     _in
02cf:841a*     _regs
02cf:8428*     _segloopheightvalcache
02cf:842a*     _spritewidths_segment
02cf:842c*     _bmapwidth
02cf:842e*     _emshandle
02cf:8430*     _bmaporgx
02cf:8432*     _bmaporgy
02cf:8434*     _numlines
02cf:8436*     _numnodes
02cf:8438*     _pagenum9000
02cf:843a*     _numsectors
02cf:843c*     _bmapheight
02cf:843e*     _numsubsectors
02cf:8440*     _numsides
02cf:8442*     _numsegs
02cf:8444*     _numlinespecials
02cf:8446*     _numvertexes
02cf:8448*     _lastanim
02cf:844a*     _numlumps
02cf:844c*     _newend
02cf:844e*     _attackrange16
02cf:8450*     _la_damage
02cf:8452*     _ceilinglinenum
02cf:8454*     _tmfloorz
02cf:8456*     _lastcalculatedsector
02cf:8458*     _tmdropoffz
02cf:845a*     _tmceilingz
02cf:845c*     _linetarget
02cf:845e*     _shootthing
02cf:8460*     _bestslidelinenum
02cf:8462*     _numspechit
02cf:8464*     _tmflags1
02cf:8466*     _setStateReturn
02cf:8468*     _tmthing
02cf:846a*     _numswitches
02cf:846c*     _oldentertics
02cf:846e*     _currentThinkerListHead
02cf:8470*     _sp_state
02cf:8472*     _cnt_items
02cf:8474*     _yahRef
02cf:8476*     _cnt_secret
02cf:8478*     _cnt_par
02cf:847a*     _cnt_time
02cf:847c*     _cnt_pause
02cf:847e*     _wbs
02cf:8480*     _cnt_kills
02cf:8482*     _bcnt
02cf:8484*     _TS_TimesInInterrupt
02cf:8486*     _acceleratestage
02cf:8488*     _cnt
02cf:848a*     _messageLastMenuActive
02cf:848c*     _whichSkull
02cf:848e*     _currentMenu
02cf:8490*     _skullAnimCounter
02cf:8492*     _saveStringEnter
02cf:8494*     _itemOn
02cf:8496*     _saveCharIndex
02cf:8498*     _messageRoutine
02cf:849a*     _saveSlot
02cf:849c*     _st_calc_lastcalc
02cf:849e*     _defdemoname
02cf:84a0*     _defaultfile
02cf:84a2*     _myargv
02cf:84a4*     _dclicks
02cf:84a6*     _dclicktime
02cf:84a8*     _dclickstate
02cf:84aa*     _dclicktime2
02cf:84ac*     _mousex
02cf:84ae*     _myargc
02cf:84b0*     _dclickstate2
02cf:84b2*     _dclicks2
02cf:84b4*     _demo_p
02cf:84b6*     _totalkills
02cf:84b8*     _totalitems
02cf:84ba*     _totalsecret
02cf:84bc*     _playerMobjRef
02cf:84be*     _p_init_maxframe
02cf:84c0*     _EMS_PAGE
02cf:84c2*     _old_screen_viewport_width
02cf:84c4*     _old_screen_botleft_x
02cf:84c6*     _old_screen_botleft_y
02cf:84c8*     _old_screen_viewport_height
02cf:84ca*     _am_min_level_x
02cf:84cc*     _am_min_level_y
02cf:84ce*     _screen_viewport_height
02cf:84d0*     _screen_topright_y
02cf:84d2*     _screen_topright_x
02cf:84d4*     _screen_viewport_width
02cf:84d6*     _am_min_scale_mtof
02cf:84d8*     _screen_botleft_x
02cf:84da*     _screen_botleft_y
02cf:84dc*     _ftom_zoommul
02cf:84de*     _am_max_level_y
02cf:84e0*     _am_max_level_x
02cf:84e2*     _mtof_zoommul
02cf:84e4*     _skytexture
02cf:84e6*     _spritelights
02cf:84e8*     _numpatches
02cf:84ea*     _pspritescale
02cf:84ec*     _firstpatch
02cf:84ee*     _numtextures
02cf:84f0*     _r_cachedplayerMobjsecnum
02cf:84f2*     _numspritelumps
02cf:84f4*     _pendingdetail
02cf:84f6*     _numflats
02cf:84f8*     _scaledviewwidth
02cf:84fa*     _viewwindowoffset
02cf:84fc*     _viewwindowx
02cf:84fe*     _viewwindowy
02cf:8500*     _pagename
02cf:8502*     _pagetic
02cf:8504*     _snd_SBport
02cf:8506*     _snd_Mport
02cf:8508*     _plrs
02cf:8511*     _HeadTask
02cf:8520*     _menu_messageString
02cf:8589*     _w_title
02cf:85e2*     _w_message
02cf:874b*     _oldweaponsowned
02cf:8754*     _wminfo
02cf:8769*     _player
02cf:87cc*     _mus_paused
02cf:87cd*     _levelTimer
02cf:87ce*     _crushchange
02cf:87cf*     _nofit
02cf:87d0*     _earlyout
02cf:87d1*     _onground
02cf:87d2*     _splatRef
02cf:87d3*     _state
02cf:87d4*     _menu_epi
02cf:87d5*     _messageNeedsInput
02cf:87d6*     _messageToPrint
02cf:87d7*     _message_on
02cf:87d8*     _message_dontfuckwithme
02cf:87d9*     _do_st_refresh
02cf:87da*     _message_counter
02cf:87db*     _message_nottobefuckedwith
02cf:87dc*     _st_randomnumber
02cf:87dd*     _secretexit
02cf:87de*     _st_statusbaron
02cf:87df*     _updatedthisframe
02cf:87e0*     _st_firsttime
02cf:87e1*     _st_gamestate
02cf:87e2+     _usemouse
02cf:87e3*     _d_episode
02cf:87e4*     _turnheld
02cf:87e5*     _d_skill
02cf:87e6*     _d_map
02cf:87e7*     _savegameslot
02cf:87e8+     _mousebforward
02cf:87e9+     _key_speed
02cf:87ea+     _mousebfire
02cf:87eb+     _key_left
02cf:87ec+     _key_fire
02cf:87ed+     _key_strafe
02cf:87ee+     _key_straferight
02cf:87ef+     _key_up
02cf:87f0+     _mousebstrafe
02cf:87f1+     _key_down
02cf:87f2+     _key_use
02cf:87f3+     _key_right
02cf:87f4+     _key_strafeleft
02cf:87f5*     _timingdemo
02cf:87f6*     _sendsave
02cf:87f7*     _noblit
02cf:87f8*     _demoplayback
02cf:87f9*     _demorecording
02cf:87fa*     _singledemo
02cf:87fb*     _netdemo
02cf:87fc*     _usergame
02cf:87fd*     _paused
02cf:87fe*     _borderdrawcount
02cf:87ff+     _numChannels
02cf:8800*     _gameskill
02cf:8801*     _respawnmonsters
02cf:8802+     _usegamma
02cf:8803*     _sendpause
02cf:8804*     _kbdhead
02cf:8805*     _kbdtail
02cf:8806*     _mousepresent
02cf:8807*     _novideo
02cf:8808*     _setsizeneeded
02cf:8809*     _setblocks
02cf:880a*     _eventtail
02cf:880b+     _sfxVolume
02cf:880c+     _showMessages
02cf:880d+     _mouseSensitivity
02cf:880e*     _menuactive
02cf:880f*     _screenSize
02cf:8810*     _inhelpscreens
02cf:8811*     _eventhead
02cf:8812*     _quickSaveSlot
02cf:8813+     _detailLevel
02cf:8814+     _musicVolume
02cf:8815*     _startmap
02cf:8816*     _modifiedgame
02cf:8817+     _snd_SBport8bit
02cf:8818*     _autostart
02cf:8819*     _advancedemo
02cf:881a*     _nomonsters
02cf:881b*     _startskill
02cf:881c+     _snd_DesiredSfxDevice
02cf:881d*     _snd_MusicDevice
02cf:881e*     _fastparm
02cf:881f*     _respawnparm
02cf:8820*     _startepisode
02cf:8821+     _snd_DesiredMusicDevice
02cf:8822+     _snd_Mport8bit
02cf:56f0*     _singletics
02cf:56f1*     _skytextureloaded
02cf:56f2*     _validcount
02cf:56f4*     _clipangle
02cf:56f6*     _fieldofview
02cf:56f8*     _spritecache_l2_head
02cf:56f9*     _spritecache_l2_tail
02cf:56fa*     _flatcache_l2_head
02cf:56fb*     _flatcache_l2_tail
02cf:56fc*     _texturecache_l2_head
02cf:56fd*     _texturecache_l2_tail
02cf:56fe*     _cachedtex
02cf:5700*     _cachedsegmenttex
02cf:5702*     _cachedsegmenttex2
02cf:5704*     _cachedtex2
02cf:5706*     _cachedcollength
02cf:5707*     _cachedcollength2
02cf:5708*     _am_cheating
02cf:5709*     _am_grid
02cf:570a*     _markpointnum
02cf:570b*     _followplayer
02cf:570c*     _am_stopped
02cf:570d*     _am_bigstate
02cf:570e*     _am_lastlevel
02cf:570f*     _am_lastepisode
02cf:5710*     _player_arrow
02cf:5748*     _cheat_player_arrow
02cf:57c8*     _thintriangle_guy
02cf:57e0*     _pagesegments
02cf:57f0*     _R_DrawPlanesCall
02cf:57f4*     _R_WriteBackViewConstantsSpanCall
02cf:57f8*     _R_DrawMaskedCall
02cf:57fc*     _wipe_StartScreenCall
02cf:5800*     _wipe_WipeLoopCall
02cf:5804*     _R_WriteBackMaskedFrameConstantsCall
02cf:5808*     _R_WriteBackViewConstantsMaskedCall
02cf:580c*     _F_StartFinale
02cf:5810*     _F_Ticker
02cf:5814*     _F_Drawer
02cf:5818*     _F_Responder
02cf:581c*     _currentlumpindex
02cf:581e*     _maskedcount
02cf:5820*     _currentpostoffset
02cf:5822*     _currentpostdataoffset
02cf:5824*     _currentpixeloffset
02cf:5826*     _grmode
02cf:5828*     _oldkeyboardisr
02cf:582c*     _viewactivestate
02cf:582d*     _menuactivestate
02cf:582e*     _inhelpscreensstate
02cf:582f*     _fullscreen
02cf:5830*     _oldgamestate
02cf:5831*     _precache
02cf:5834*     _forwardmove
02cf:583c*     _sidemove
02cf:5844*     _angleturn
02cf:584a*     _mousebuttons
02cf:584c*     _rndindex
02cf:584e*     _prndindex
02cf:5850*     _defaults
02cf:5914*     _tallnum
02cf:5928*     _shortnum
02cf:593c*     _keys
02cf:5948*     _faces
02cf:599c*     _arms
02cf:59b4*     _st_oldhealth
02cf:59b6*     _st_facecount
02cf:59b8*     _st_faceindex
02cf:59ba+     _cheat_mus_seq
02cf:59c3+     _cheat_choppers_seq
02cf:59ce+     _cheat_god_seq
02cf:59d4+     _cheat_ammo_seq
02cf:59da+     _cheat_ammonokey_seq
02cf:59df+     _cheat_noclip_seq
02cf:59ea+     _cheat_commercial_noclip_seq
02cf:59f1+     _cheat_powerup_seq
02cf:5a37+     _cheat_clev_seq
02cf:5a41+     _cheat_mypos_seq
02cf:5a49+     _cheat_amap_seq
02cf:5a4e*     _cheat_amap
02cf:5a52*     _cheat_mus
02cf:5a56*     _cheat_god
02cf:5a5a*     _cheat_ammo
02cf:5a5e*     _cheat_ammonokey
02cf:5a62*     _cheat_noclip
02cf:5a66*     _cheat_commercial_noclip
02cf:5a6a*     _cheat_powerup
02cf:5a86*     _cheat_choppers
02cf:5a8a*     _cheat_clev
02cf:5a8e*     _cheat_mypos
02cf:5a92*     _st_palette
02cf:5a94*     _st_calc_oldhealth
02cf:5a96*     _st_face_lastattackdown
02cf:5a97*     _st_face_priority
02cf:5a98*     _hu_font
02cf:5b16*     _skullName
02cf:5b1a*     _detailNames
02cf:5b1c*     _msgNames
02cf:5b20*     _TaskServiceRate
02cf:5b24*     _TS_Installed
02cf:5b25*     _TS_InInterrupt
02cf:5b26*     _NUMANIMS
02cf:5b2c*     _wianims
02cf:5b38*     _unloaded
02cf:5b39*     _snl_pointeron
02cf:5b3a*     _st_stopped
02cf:5b3c*     _armsbgarray
02cf:5b3e*     _weaponinfo
02cf:5ba2*     _maxammo
02cf:5baa*     _clipammo
02cf:5bae*     _opposite
02cf:5bb7*     _diags
02cf:5bbc*     _filetolumpindex
02cf:5bc2*     _currentloadedfileindex
02cf:5bc4*     _pageswapargs
02cf:5df4*     _current5000State
02cf:5df5*     _last5000State
02cf:5df6*     _current9000State
02cf:5df7*     _last9000State
02cf:56b6*     _snd_prefixen
02cf:5df8*     _currenttask
02cf:5df9*     _seglooptexrepeat
02cf:5dfc*     _segloopnextlookup
02cf:5e00*     _versionstring
02cf:5e0c*     _currentoverlay
02cf:5e0d*     _S_music
02cf:5e13*     _S_sfx
02cf:5e20*     _mus_playing
02cf:8823*     _demosequence
02cf:8824+     _snd_SBirq
02cf:8825*     _snd_MusicVolume
02cf:8826*     _snd_SfxVolume
02cf:8827*     _snd_SfxDevice
02cf:8828+     _snd_SBdma
Module: codegen.obj(C:\REALDOOM\build\tools\codegen\codegen.c)
0000:0000      main_
02cf:5e22+     _CONSTANTS
02cf:6bf2+     _SEGMENTS
02cf:79c2+     _LOCALS
02cf:79e8+     _VALUES
Module: C:\WATCOM2\lib286\dos\clibm.lib(fopen.c)
0000:0090+     __open_flags_
0000:023e+     _fsopen_
0000:0283      fopen_
0000:02e7*     freopen_
Module: C:\WATCOM2\lib286\dos\clibm.lib(fprintf.c)
0000:032b      fprintf_
Module: C:\WATCOM2\lib286\dos\clibm.lib(fclose.c)
0000:0342      __doclose_
0000:03d8      __shutdown_stream_
0000:03ec      fclose_
02cf:882a+     ___RmTmpFileFn
Module: C:\WATCOM2\lib286\dos\clibm.lib(printf.c)
0000:040f      printf_
Module: C:\WATCOM2\lib286\dos\clibm.lib(cstart)
02cf:0000*     __nullarea
02cf:7a0e*     __ovlflag
02cf:7a0f*     __intno
02cf:7a10*     __ovlvec
0000:0426      _cstart_
0000:05d7      __exit_
0000:05f4      __do_exit_with_msg_
0000:06d3      __GETDS
Module: C:\WATCOM2\lib286\dos\clibm.lib(cmodel.asm)
0000:06de      _big_code_
0000:06de*     CodeModelMismatch
Module: C:\WATCOM2\lib286\dos\clibm.lib(argcv.c)
02cf:882e      __argc
02cf:8830      __argv
02cf:8832      ___argc
02cf:8834      ___argv
Module: C:\WATCOM2\lib286\dos\clibm.lib(comtflag.c)
0000:06de*     __set_commode_
02cf:7a14      __commode
Module: C:\WATCOM2\lib286\dos\clibm.lib(errno.c)
0000:06e5      __get_errno_ptr_
02cf:8836+     _errno
Module: C:\WATCOM2\lib286\dos\clibm.lib(textmode.c)
02cf:7a16      __fmode
Module: C:\WATCOM2\lib286\dos\clibm.lib(tolower.c)
0000:06e9      tolower_
Module: C:\WATCOM2\lib286\dos\clibm.lib(open.c)
0000:08c1*     open_
0000:08e1      _sopen_
Module: C:\WATCOM2\lib286\dos\clibm.lib(fseek.c)
0000:094f      fseek_
Module: C:\WATCOM2\lib286\dos\clibm.lib(chktty.c)
0000:0a6d      __chktty_
Module: C:\WATCOM2\lib286\dos\clibm.lib(freefp.c)
0000:0a94      __freefp_
0000:0ab8      __purgefp_
Module: C:\WATCOM2\lib286\dos\clibm.lib(allocfp.c)
0000:0ad1      __allocfp_
Module: C:\WATCOM2\lib286\dos\clibm.lib(iob.c)
02cf:7a18      ___iob
02cf:8838      ___OpenStreams
02cf:883a      ___ClosedStreams
Module: C:\WATCOM2\lib286\dos\clibm.lib(fprtf.c)
0000:0b76      __fprtf_
Module: C:\WATCOM2\lib286\dos\clibm.lib(__lseek.c)
0000:0c11      __lseek_
Module: C:\WATCOM2\lib286\dos\clibm.lib(_clse.c)
0000:0c4b      __close_
Module: C:\WATCOM2\lib286\dos\clibm.lib(nfree.c)
0000:0c81      _nfree_
0000:0c81      free_
02cf:883c+     ___MiniHeapFreeRover
Module: C:\WATCOM2\lib286\dos\clibm.lib(flush.c)
0000:0d46      __flush_
Module: C:\WATCOM2\lib286\dos\clibm.lib(xmsg.c)
0000:0e3a*     __exit_with_msg_
0000:0e3f      __fatal_runtime_error_
Module: C:\WATCOM2\lib286\dos\clibm.lib(cmain086.c)
0000:0e59      __CMain
Module: C:\WATCOM2\lib286\dos\clibm.lib(initrtns.c)
0000:0ea1      __InitRtns
0000:0ea1*     __FInitRtns
0000:0ef8      __FiniRtns
0000:0ef8*     __FFiniRtns
Module: C:\WATCOM2\lib286\dos\clibm.lib(crwdata)
02cf:7b30      __curbrk
02cf:7b38      __STACKLOW
02cf:7b3a      __STACKTOP
02cf:7b3c      __cbyte
02cf:7b3e      __child
02cf:7b40      __no87
02cf:7b4d      ___FPE_handler
02cf:7b32      __psp
02cf:7b41      __get_ovl_stack
02cf:7b45      __restore_ovl_stack
02cf:7b49      __close_ovl_file
02cf:7b51      __LpCmdLine
02cf:7b55      __LpPgmName
02cf:7b34      __osmajor
02cf:7b35      __osminor
02cf:7b36      __osmode
02cf:7b37      __HShift
Module: C:\WATCOM2\lib286\dos\clibm.lib(uselfn.c)
02cf:7b5a      ___uselfn
Module: C:\WATCOM2\lib286\dos\clibm.lib(dosseg)
0000:0f56      __DOSseg__
Module: C:\WATCOM2\lib286\dos\clibm.lib(initargv.c)
0000:10be      __Init_Argv_
0000:10f5      __Fini_Argv_
Module: C:\WATCOM2\lib286\dos\clibm.lib(opendos.c)
0000:110b      _dos_open_
Module: C:\WATCOM2\lib286\dos\clibm.lib(iomode.c)
0000:1121      __GetIOMode_
0000:1138      __SetIOMode_nogrow_
02cf:7b5c      ___NFiles
02cf:7b5e      ___init_mode
02cf:7b86      ___io_mode
Module: C:\WATCOM2\lib286\dos\clibm.lib(isatt.c)
0000:114d      isatty_
Module: C:\WATCOM2\lib286\dos\clibm.lib(dosret.c)
0000:1169      __set_errno_dos_
0000:11cd*     __set_errno_dos_reterr_
Module: C:\WATCOM2\lib286\dos\clibm.lib(doserrno.c)
0000:11d8      __get_doserrno_ptr_
02cf:8840+     __doserrno
Module: C:\WATCOM2\lib286\dos\clibm.lib(umaskval.c)
02cf:7b9c      ___umaskval
Module: C:\WATCOM2\lib286\dos\clibm.lib(creatdos.c)
0000:11dc      _dos_creat_
0000:11f0*     _dos_creatnew_
Module: C:\WATCOM2\lib286\dos\clibm.lib(stiomode.c)
0000:1204+     __grow_iomode_
0000:1291+     __shrink_iomode_
0000:12ac      __SetIOMode_
Module: C:\WATCOM2\lib286\dos\clibm.lib(lseek.c)
0000:1300      lseek_
Module: C:\WATCOM2\lib286\dos\clibm.lib(tell.c)
0000:1331      _tell_
Module: C:\WATCOM2\lib286\dos\clibm.lib(nmalloc.c)
0000:1342      _nmalloc_
0000:1342      malloc_
02cf:7b9e      ___nheapbeg
02cf:7ba0      ___MiniHeapRover
02cf:7ba2      ___LargestSizeB4MiniHeapRover
Module: C:\WATCOM2\lib286\dos\clibm.lib(initfile.c)
0000:1401      __InitFiles_
Module: C:\WATCOM2\lib286\dos\clibm.lib(ioexit.c)
0000:14e1*     fcloseall_
0000:14e8      __full_io_exit_
Module: C:\WATCOM2\lib286\dos\clibm.lib(fputc.c)
0000:14f2      fputc_
Module: C:\WATCOM2\lib286\dos\clibm.lib(ioalloc.c)
0000:15a3      __ioalloc_
Module: C:\WATCOM2\lib286\dos\clibm.lib(prtf.c)
0000:1f67      __prtf_
Module: C:\WATCOM2\lib286\dos\clibm.lib(mem.c)
0000:2170      __MemAllocator
0000:2238      __MemFree
Module: C:\WATCOM2\lib286\dos\clibm.lib(qwrit.c)
0000:23b2      __qwrite_
Module: C:\WATCOM2\lib286\dos\clibm.lib(fsync.c)
0000:2411      fsync_
Module: C:\WATCOM2\lib286\dos\clibm.lib(enterdb.c)
0000:2416      __EnterWVIDEO_
02cf:7ba4+     __WD_Present
Module: C:\WATCOM2\lib286\dos\clibm.lib(___argc.c)
02cf:8844      ____Argv
02cf:8846      ____Argc
Module: C:\WATCOM2\lib286\dos\clibm.lib(exit.c)
0000:2432+     __null_int23_exit_
0000:2433      exit_
0000:2453*     _exit_
02cf:7ba6+     ___int23_exit
02cf:7baa+     ___FPE_handler_exit
Module: C:\WATCOM2\lib286\dos\clibm.lib(sgdef086)
02cf:7bbe      __Start_XI
02cf:7bd0      __End_XI
02cf:7bd0      __Start_YI
02cf:7be2      __End_YI
Module: C:\WATCOM2\lib286\dos\clibm.lib(histsplt.c)
02cf:8848      ___historical_splitparms
Module: C:\WATCOM2\lib286\dos\clibm.lib(error086.asm)
0000:2462      __doserror_
0000:2470*     __doserror1_
Module: C:\WATCOM2\lib286\dos\clibm.lib(nrealloc.c)
0000:247c*     _nrealloc_
0000:247c      realloc_
Module: C:\WATCOM2\lib286\dos\clibm.lib(iomodtty.c)
0000:24f6      __ChkTTYIOMode_
0000:252a*     __IOMode_
Module: C:\WATCOM2\lib286\dos\clibm.lib(nmemneed.c)
0000:253a      __nmemneed_
Module: C:\WATCOM2\lib286\dos\clibm.lib(grownear.c)
0000:25a3+     __LastFree_
0000:260b      __ExpandDGROUP_
Module: C:\WATCOM2\lib286\dos\clibm.lib(wctomb.c)
0000:26e3      wctomb_
Module: C:\WATCOM2\lib286\dos\clibm.lib(itoa.c)
0000:2700+     utoa_
0000:2745      itoa_
Module: C:\WATCOM2\lib286\dos\clibm.lib(i4m.asm)
0000:2762*     __I4M
0000:2762      __U4M
Module: C:\WATCOM2\lib286\dos\clibm.lib(noefgfmt.c)
02cf:7bae      ___EFG_printf
02cf:7bb2*     ___EFG_scanf
Module: C:\WATCOM2\lib286\dos\clibm.lib(lltoa.c)
0000:2789      ulltoa_
0000:284d*     lltoa_
Module: C:\WATCOM2\lib286\dos\clibm.lib(strupr.c)
0000:28a1      _strupr_
Module: C:\WATCOM2\lib286\dos\clibm.lib(ltoa.c)
0000:28c1      ultoa_
0000:2914*     ltoa_
Module: C:\WATCOM2\lib286\dos\clibm.lib(mbisdbcs.c)
02cf:7bb6      ___IsDBCS
Module: C:\WATCOM2\lib286\dos\clibm.lib(mbislead.c)
0000:2935*     _ismbblead_
02cf:884a      ___MBCSIsTable
Module: C:\WATCOM2\lib286\dos\clibm.lib(filedos.c)
0000:294c*     _dos_close_
0000:295a      _dos_commit_
Module: C:\WATCOM2\lib286\dos\clibm.lib(nmsize.c)
0000:2969*     _msize_
0000:2969      _nmsize_
Module: C:\WATCOM2\lib286\dos\clibm.lib(nexpand.c)
0000:2978      _nexpand_
0000:2978*     _expand_
Module: C:\WATCOM2\lib286\dos\clibm.lib(amblksiz.c)
02cf:7bb8      __amblksiz
Module: C:\WATCOM2\lib286\dos\clibm.lib(heapen.c)
0000:29c7*     _heapenable_
02cf:7bba      ___heap_enabled
Module: C:\WATCOM2\lib286\dos\clibm.lib(sbrk.c)
0000:29d3      __brk_
0000:2a29*     sbrk_
Module: C:\WATCOM2\lib286\dos\clibm.lib(alphabet.c)
02cf:56c2      ___Alphabet
Module: C:\WATCOM2\lib286\dos\clibm.lib(mbinit.c)
0000:2a8c      __mbinit_
02cf:7bbc+     ___MBCodePage
Module: C:\WATCOM2\lib286\dos\clibm.lib(_expand.c)
0000:2af7      __HeapManager_expand_
Module: C:\WATCOM2\lib286\dos\clibm.lib(getltdos.c)
0000:2c88      dos_get_dbcs_lead_table_
Module: C:\WATCOM2\lib286\dos\clibm.lib(getcpdos.c)
0000:2cb1      dos_get_code_page_
Module: C:\WATCOM2\lib286\dos\clibm.lib(bfree.c)
0000:2cc1      _bfree_


                        +--------------------+
                        |   Libraries Used   |
                        +--------------------+

C:\WATCOM2\lib286\dos\clibm.lib


                        +-----------------------+
                        |   Linker Statistics   |
                        +-----------------------+

Stack size:  1000 (4096.)
Memory size:  c640 (50752.)
Entry point address: 0000:0426
Link time: 00:00.10
