Open Watcom Linker Version 2.0 beta Sep  3 2024 02:05:05 (32-bit)
Copyright (c) 2002-2024 The Open Watcom Contributors. All Rights Reserved.
Portions Copyright (c) 1985-2002 Sybase, Inc. All Rights Reserved.
Created on:       25/01/15 17:37:40
Executable Image: codegen.exe
creating a DOS executable


                        +------------+
                        |   Groups   |
                        +------------+

Group                           Address              Size
=====                           =======              ====

DGROUP                          02cf:0000            000039c0



                        +--------------+
                        |   Segments   |
                        +--------------+

Segment                Class          Group          Address         Size
=======                =====          =====          =======         ====

m_near_TEXT            CODE           AUTO           0000:0000       00000000
codegen_TEXT           CODE           AUTO           0000:0000       00000084
_TEXT                  CODE           AUTO           0000:0090       00002c56
FAR_DATA               FAR_DATA       AUTO           02ce:0006       00000000
_NULL                  BEGDATA        DGROUP         02cf:0000       00000020
_AFTERNULL             BEGDATA        DGROUP         02d1:0000       00000002
CONST                  DATA           DGROUP         02d1:0002       00000ff0
CONST2                 DATA           DGROUP         03d0:0002       00000031
_DATA                  DATA           DGROUP         03d4:0000       00000bce
XIB                    DATA           DGROUP         0490:000e       00000000
XI                     DATA           DGROUP         0490:000e       00000012
XIE                    DATA           DGROUP         0492:0000       00000000
YIB                    DATA           DGROUP         0492:0000       00000000
YI                     DATA           DGROUP         0492:0000       00000012
YIE                    DATA           DGROUP         0493:0002       00000000
DATA                   DATA           DGROUP         0493:0002       00000000
_BSS                   BSS            DGROUP         0494:0000       00000d61
STACK                  STACK          DGROUP         056b:0000       00001000


                        +----------------+
                        |   Memory Map   |
                        +----------------+

* = unreferenced symbol
+ = symbol only referenced locally

Address        Symbol
=======        ======

Module: m_near.obj(C:\REALDOOM\m_near.c)
02cf:1c50*     _savename
02cf:1c60*     _texturecache_nodes
02cf:1cc0*     _spritecache_nodes
02cf:1d10*     _wadfiles
02cf:1d18*     _dl
02cf:1d28*     _anims
02cf:1de8*     _usedtexturepagemem
02cf:1e00*     _solidsegs
02cf:1e80*     _trace
02cf:1e90*     _strace
02cf:1ea0*     _switchlist
02cf:1f68*     _buttonlist
02cf:1f90*     _saveOldString
02cf:1fa8*     _w_faces
02cf:1fb0*     _w_ammo
02cf:1fd8*     _w_arms
02cf:2008*     _w_keyboxes
02cf:2020*     _w_armsbg
02cf:2028*     _w_maxammo
02cf:2050*     _localcmds
02cf:20d0*     _gamekeydown
02cf:21d0*     _keyboardque
02cf:21f0*     _segregs
02cf:21f8*     _am_l
02cf:2200*     _am_fl
02cf:2208*     _am_lc
02cf:2210*     _am_ml
02cf:2218*     _markpoints
02cf:2240*     _activenumpages
02cf:2248*     _spriteL1LRU
02cf:2250*     _activespritepages
02cf:2258*     _textureL1LRU
02cf:2268*     _activetexturepages
02cf:2278*     _cachedsegmentlumps
02cf:2280*     _cachedlumps
02cf:2288*     _flatcache_nodes
02cf:2294*     _segloopcachedsegment
02cf:2298*     _segloopcachedbasecol
02cf:229c*     _segloopprevlookup
02cf:22a0*     _filetolumpsize
02cf:22ac*     _intercept_p
02cf:22b0*     _levelTimeCount
02cf:22b4*     _usedspritepagemem
02cf:22c8*     _bottomslope
02cf:22cc*     _sightzstart
02cf:22d0*     _cachedt2x
02cf:22d4*     _tmymove
02cf:22d8*     _cachedt2y
02cf:22dc*     _tmxmove
02cf:22e0*     _linetarget_pos
02cf:22e4*     _aimslope
02cf:22e8*     _topslope
02cf:22ec*     _shootz
02cf:22f0*     _tmy
02cf:22f4*     _tmx
02cf:22f8*     _tmthing_pos
02cf:22fc*     _bestslidefrac
02cf:2300*     _save_p
02cf:2304*     _bulletslope
02cf:2308*     _activeceilings
02cf:2344*     _activeplats
02cf:2380*     _leveltime
02cf:2384*     _setStateReturn_pos
02cf:2388*     _caststate
02cf:238c*     _TaskServiceCount
02cf:2390*     _OldInt8
02cf:2394*     _st_stuff_buf
02cf:23c8*     _w_health
02cf:23d4*     _w_armor
02cf:23e0+     _mousearray
02cf:23e4*     _starttime
02cf:23e8*     _gametic
02cf:23ec*     _maketic
02cf:23f0*     _gametime
02cf:23f4*     _p_init_sprtemp
02cf:23f8*     _am_max_scale_mtof
02cf:23fc*     _am_scale_mtof
02cf:2400*     _am_scale_ftom
02cf:2404*     _screen_oldloc
02cf:2408*     _am_buffer
02cf:241c*     _m_paninc
02cf:2420*     _activespritenumpages
02cf:2424*     _lineopening
02cf:242a*     _numRef
02cf:2434*     _keyboxes
02cf:243a*     _w_ready
02cf:2444*     _out
02cf:2452*     _in
02cf:2460*     _regs
02cf:246e*     _segloopheightvalcache
02cf:2470*     _spritewidths_segment
02cf:2472*     _bmapwidth
02cf:2474*     _emshandle
02cf:2476*     _numvertexes
02cf:2478*     _bmaporgx
02cf:247a*     _bmaporgy
02cf:247c*     _numlines
02cf:247e*     _numnodes
02cf:2480*     _pagenum9000
02cf:2482*     _numsectors
02cf:2484*     _bmapheight
02cf:2486*     _numsubsectors
02cf:2488*     _numsides
02cf:248a*     _numsegs
02cf:248c*     _numlinespecials
02cf:248e*     _lastanim
02cf:2490*     _numlumps
02cf:2492*     _newend
02cf:2494*     _attackrange16
02cf:2496*     _la_damage
02cf:2498*     _linetarget
02cf:249a*     _shootthing
02cf:249c*     _ceilinglinenum
02cf:249e*     _tmthing
02cf:24a0*     _tmfloorz
02cf:24a2*     _lastcalculatedsector
02cf:24a4*     _tmdropoffz
02cf:24a6*     _tmceilingz
02cf:24a8*     _bestslidelinenum
02cf:24aa*     _numspechit
02cf:24ac*     _tmflags1
02cf:24ae*     _oldentertics
02cf:24b0*     _setStateReturn
02cf:24b2*     _numswitches
02cf:24b4*     _currentThinkerListHead
02cf:24b6*     _sp_state
02cf:24b8*     _yahRef
02cf:24ba*     _cnt_par
02cf:24bc*     _cnt_pause
02cf:24be*     _cnt_items
02cf:24c0*     _wbs
02cf:24c2*     _cnt_kills
02cf:24c4*     _cnt_secret
02cf:24c6*     _bcnt
02cf:24c8*     _TS_TimesInInterrupt
02cf:24ca*     _cnt_time
02cf:24cc*     _acceleratestage
02cf:24ce*     _cnt
02cf:24d0*     _whichSkull
02cf:24d2*     _currentMenu
02cf:24d4*     _skullAnimCounter
02cf:24d6*     _saveStringEnter
02cf:24d8*     _itemOn
02cf:24da*     _saveCharIndex
02cf:24dc*     _messageRoutine
02cf:24de*     _saveSlot
02cf:24e0*     _messageLastMenuActive
02cf:24e2*     _finaleflat
02cf:24e4*     _finaletext
02cf:24e6*     _finalecount
02cf:24e8*     _finalestage
02cf:24ea*     _st_calc_lastcalc
02cf:24ec*     _defdemoname
02cf:24ee*     _defaultfile
02cf:24f0*     _myargc
02cf:24f2*     _myargv
02cf:24f4*     _dclicks
02cf:24f6*     _dclicktime
02cf:24f8*     _dclickstate
02cf:24fa*     _dclicktime2
02cf:24fc*     _mousex
02cf:24fe*     _dclickstate2
02cf:2500*     _dclicks2
02cf:2502*     _demo_p
02cf:2504*     _totalkills
02cf:2506*     _totalitems
02cf:2508*     _totalsecret
02cf:250a*     _playerMobjRef
02cf:250c*     _p_init_maxframe
02cf:250e*     _EMS_PAGE
02cf:2510*     _am_min_scale_mtof
02cf:2512*     _old_screen_viewport_width
02cf:2514*     _old_screen_botleft_x
02cf:2516*     _old_screen_botleft_y
02cf:2518*     _am_max_level_y
02cf:251a*     _am_max_level_x
02cf:251c*     _old_screen_viewport_height
02cf:251e*     _am_min_level_x
02cf:2520*     _am_min_level_y
02cf:2522*     _screen_viewport_height
02cf:2524*     _screen_topright_y
02cf:2526*     _screen_topright_x
02cf:2528*     _screen_viewport_width
02cf:252a*     _screen_botleft_x
02cf:252c*     _screen_botleft_y
02cf:252e*     _ftom_zoommul
02cf:2530*     _mtof_zoommul
02cf:2532*     _numtextures
02cf:2534*     _skytexture
02cf:2536*     _spritelights
02cf:2538*     _firstspritelump
02cf:253a*     _numpatches
02cf:253c*     _pspritescale
02cf:253e*     _firstpatch
02cf:2540*     _viewwindowoffset
02cf:2542*     _r_cachedplayerMobjsecnum
02cf:2544*     _numspritelumps
02cf:2546*     _pendingdetail
02cf:2548*     _numflats
02cf:254a*     _scaledviewwidth
02cf:254c*     _viewwindowx
02cf:254e*     _viewwindowy
02cf:2550*     _pagename
02cf:2552*     _pagetic
02cf:2554*     _snd_SBport
02cf:2556*     _snd_Mport
02cf:2558*     _plrs
02cf:2561*     _HeadTask
02cf:2570*     _w_message
02cf:26d9*     _menu_messageString
02cf:2742*     _filename_argument
02cf:274b*     _w_title
02cf:27a4*     _oldweaponsowned
02cf:27ad*     _wminfo
02cf:27c2*     _player
02cf:2825*     _levelTimer
02cf:2826*     _earlyout
02cf:2827*     _crushchange
02cf:2828*     _nofit
02cf:2829*     _onground
02cf:282a*     _castonmelee
02cf:282b*     _splatRef
02cf:282c*     _casttics
02cf:282d*     _castdeath
02cf:282e*     _castframes
02cf:282f*     _castnum
02cf:2830*     _castattacking
02cf:2831*     _state
02cf:2832*     _menu_epi
02cf:2833*     _finale_laststage
02cf:2834*     _messageNeedsInput
02cf:2835*     _message_dontfuckwithme
02cf:2836*     _message_counter
02cf:2837*     _message_nottobefuckedwith
02cf:2838*     _messageToPrint
02cf:2839*     _message_on
02cf:283a*     _do_st_refresh
02cf:283b*     _st_randomnumber
02cf:283c*     _d_episode
02cf:283d*     _secretexit
02cf:283e*     _d_skill
02cf:283f*     _d_map
02cf:2840*     _st_statusbaron
02cf:2841*     _updatedthisframe
02cf:2842*     _st_firsttime
02cf:2843*     _st_gamestate
02cf:2844+     _usemouse
02cf:2845+     _mousebforward
02cf:2846*     _turnheld
02cf:2847+     _mousebstrafe
02cf:2848*     _savegameslot
02cf:2849+     _key_speed
02cf:284a+     _mousebfire
02cf:284b+     _key_left
02cf:284c+     _key_fire
02cf:284d+     _key_strafe
02cf:284e+     _key_straferight
02cf:284f*     _demoplayback
02cf:2850+     _key_up
02cf:2851*     _singledemo
02cf:2852*     _netdemo
02cf:2853+     _key_down
02cf:2854+     _key_use
02cf:2855+     _key_right
02cf:2856+     _key_strafeleft
02cf:2857*     _paused
02cf:2858*     _viewactive
02cf:2859*     _timingdemo
02cf:285a*     _sendsave
02cf:285b*     _gamemap
02cf:285c*     _noblit
02cf:285d*     _demorecording
02cf:285e*     _gameepisode
02cf:285f*     _sendpause
02cf:2860*     _usergame
02cf:2861*     _borderdrawcount
02cf:2862+     _numChannels
02cf:2863*     _gameskill
02cf:2864*     _respawnmonsters
02cf:2865*     _gamestate
02cf:2866*     _gameaction
02cf:2867+     _usegamma
02cf:2868*     _kbdhead
02cf:2869*     _kbdtail
02cf:286a*     _mousepresent
02cf:286b*     _novideo
02cf:286c*     _setsizeneeded
02cf:286d*     _setblocks
02cf:286e*     _eventtail
02cf:286f+     _sfxVolume
02cf:2870+     _showMessages
02cf:2871+     _mouseSensitivity
02cf:2872*     _menuactive
02cf:2873*     _screenSize
02cf:2874*     _inhelpscreens
02cf:2875*     _eventhead
02cf:2876*     _quickSaveSlot
02cf:2877+     _detailLevel
02cf:2878+     _musicVolume
02cf:2879*     _demosequence
02cf:287a*     _shareware
02cf:287b*     _startmap
02cf:287c*     _modifiedgame
02cf:287d+     _snd_SBport8bit
02cf:287e*     _autostart
02cf:287f*     _advancedemo
02cf:2880*     _nomonsters
02cf:2881*     _startskill
02cf:2882*     _registered
02cf:2883*     _fastparm
02cf:2884*     _respawnparm
02cf:2885*     _commercial
02cf:1050*     _wipegamestate
02cf:1051*     _singletics
02cf:1052*     _skytextureloaded
02cf:1054*     _validcount
02cf:1056*     _clipangle
02cf:1058*     _fieldofview
02cf:105a*     _spritecache_l2_head
02cf:105b*     _spritecache_l2_tail
02cf:105c*     _flatcache_l2_head
02cf:105d*     _flatcache_l2_tail
02cf:105e*     _texturecache_l2_head
02cf:105f*     _texturecache_l2_tail
02cf:1060*     _cachedtex
02cf:1062*     _cachedsegmenttex
02cf:1064*     _cachedsegmenttex2
02cf:1066*     _cachedtex2
02cf:1068*     _cachedcollength
02cf:1069*     _cachedcollength2
02cf:106a*     _am_cheating
02cf:106b*     _am_grid
02cf:106c*     _markpointnum
02cf:106d*     _followplayer
02cf:106e*     _am_stopped
02cf:106f*     _am_bigstate
02cf:1070*     _automapactive
02cf:1071*     _am_lastlevel
02cf:1072*     _am_lastepisode
02cf:1073*     _player_arrow
02cf:10ab*     _cheat_player_arrow
02cf:112b*     _thintriangle_guy
02cf:1144*     _pagesegments
02cf:1154*     _R_DrawPlanesCall
02cf:1158*     _R_WriteBackViewConstantsSpanCall
02cf:115c*     _R_DrawMaskedCall
02cf:1160*     _wipe_StartScreenCall
02cf:1164*     _wipe_WipeLoopCall
02cf:1168*     _R_WriteBackMaskedFrameConstantsCall
02cf:116c*     _R_WriteBackViewConstantsMaskedCall
02cf:1170*     _currentlumpindex
02cf:1172*     _maskedcount
02cf:1174*     _currentpostoffset
02cf:1176*     _currentpostdataoffset
02cf:1178*     _currentpixeloffset
02cf:117a*     _grmode
02cf:117c*     _oldkeyboardisr
02cf:1180*     _viewactivestate
02cf:1181*     _menuactivestate
02cf:1182*     _inhelpscreensstate
02cf:1183*     _fullscreen
02cf:1184*     _oldgamestate
02cf:1185*     _precache
02cf:1188*     _forwardmove
02cf:1190*     _sidemove
02cf:1198*     _angleturn
02cf:119e*     _mousebuttons
02cf:11a0*     _rndindex
02cf:11a2*     _prndindex
02cf:11a4*     _defaults
02cf:1268*     _tallnum
02cf:127c*     _shortnum
02cf:1290*     _keys
02cf:129c*     _faces
02cf:12f0*     _arms
02cf:1308*     _st_oldhealth
02cf:130a*     _st_facecount
02cf:130c*     _st_faceindex
02cf:130e+     _cheat_mus_seq
02cf:1317+     _cheat_choppers_seq
02cf:1322+     _cheat_god_seq
02cf:1328+     _cheat_ammo_seq
02cf:132e+     _cheat_ammonokey_seq
02cf:1333+     _cheat_noclip_seq
02cf:133e+     _cheat_commercial_noclip_seq
02cf:1345+     _cheat_powerup_seq
02cf:138b+     _cheat_clev_seq
02cf:1395+     _cheat_mypos_seq
02cf:139d+     _cheat_amap_seq
02cf:13a2*     _cheat_amap
02cf:13a6*     _cheat_mus
02cf:13aa*     _cheat_god
02cf:13ae*     _cheat_ammo
02cf:13b2*     _cheat_ammonokey
02cf:13b6*     _cheat_noclip
02cf:13ba*     _cheat_commercial_noclip
02cf:13be*     _cheat_powerup
02cf:13da*     _cheat_choppers
02cf:13de*     _cheat_clev
02cf:13e2*     _cheat_mypos
02cf:13e6*     _st_palette
02cf:13e8*     _st_calc_oldhealth
02cf:13ea*     _st_face_lastattackdown
02cf:13eb*     _st_face_priority
02cf:13ec*     _hu_font
02cf:146a*     _mapnames
02cf:1497*     _mapnames2
02cf:14b7*     _gammamsg
02cf:14bc*     _skullName
02cf:14c0*     _detailNames
02cf:14c2*     _msgNames
02cf:14c4*     _TaskServiceRate
02cf:14c8*     _TS_Installed
02cf:14c9*     _TS_InInterrupt
02cf:14ca*     _NUMANIMS
02cf:14d0*     _wianims
02cf:14dc*     _unloaded
02cf:14dd*     _snl_pointeron
02cf:14de*     _castorder
02cf:1500*     _st_stopped
02cf:1502*     _armsbgarray
02cf:1504*     _weaponinfo
02cf:1568*     _maxammo
02cf:1570*     _clipammo
02cf:1574*     _opposite
02cf:157d*     _diags
02cf:1582*     _filetolumpindex
02cf:1588*     _currentloadedfileindex
02cf:158a*     _pageswapargs
02cf:17ba*     _current5000State
02cf:17bb*     _last5000State
02cf:17bc*     _current9000State
02cf:1012*     _snd_prefixen
02cf:17bd*     _last9000State
02cf:17be*     _currenttask
02cf:17bf*     _is_ultimate
02cf:17c0*     _seglooptexrepeat
02cf:17c2*     _segloopnextlookup
02cf:17c6*     _versionstring
02cf:2886*     _startepisode
02cf:2887+     _snd_DesiredMusicDevice
02cf:2888+     _snd_Mport8bit
02cf:2889+     _snd_SBirq
02cf:288a*     _snd_MusicVolume
02cf:288b*     _snd_SfxVolume
02cf:288c+     _snd_DesiredSfxDevice
02cf:288d*     _snd_MusicDevice
02cf:288e*     _snd_SfxDevice
02cf:288f+     _snd_SBdma
Module: codegen.obj(C:\REALDOOM\build\tools\codegen\codegen.c)
0000:0000      main_
02cf:17d2+     _CONSTANTS
02cf:18fa+     _SEGMENTS
02cf:1a22+     _LOCALS
02cf:1a48+     _VALUES
Module: C:\WATCOM2\lib286\dos\clibm.lib(fopen.c)
0000:0090+     __open_flags_
0000:023e+     _fsopen_
0000:0283      fopen_
0000:02e7*     freopen_
Module: C:\WATCOM2\lib286\dos\clibm.lib(fprintf.c)
0000:032b      fprintf_
Module: C:\WATCOM2\lib286\dos\clibm.lib(fclose.c)
0000:0342      __doclose_
0000:03d8      __shutdown_stream_
0000:03ec      fclose_
02cf:2890+     ___RmTmpFileFn
Module: C:\WATCOM2\lib286\dos\clibm.lib(printf.c)
0000:040f      printf_
Module: C:\WATCOM2\lib286\dos\clibm.lib(cstart)
02cf:0000*     __nullarea
02cf:1a6e*     __ovlflag
02cf:1a6f*     __intno
02cf:1a70*     __ovlvec
0000:0426      _cstart_
0000:05d7      __exit_
0000:05f4      __do_exit_with_msg_
0000:06d3      __GETDS
Module: C:\WATCOM2\lib286\dos\clibm.lib(cmodel.asm)
0000:06de      _big_code_
0000:06de*     CodeModelMismatch
Module: C:\WATCOM2\lib286\dos\clibm.lib(argcv.c)
02cf:2894      __argc
02cf:2896      __argv
02cf:2898      ___argc
02cf:289a      ___argv
Module: C:\WATCOM2\lib286\dos\clibm.lib(comtflag.c)
0000:06de*     __set_commode_
02cf:1a74      __commode
Module: C:\WATCOM2\lib286\dos\clibm.lib(errno.c)
0000:06e5      __get_errno_ptr_
02cf:289c+     _errno
Module: C:\WATCOM2\lib286\dos\clibm.lib(textmode.c)
02cf:1a76      __fmode
Module: C:\WATCOM2\lib286\dos\clibm.lib(tolower.c)
0000:06e9      tolower_
Module: C:\WATCOM2\lib286\dos\clibm.lib(open.c)
0000:08c1*     open_
0000:08e1      _sopen_
Module: C:\WATCOM2\lib286\dos\clibm.lib(fseek.c)
0000:094f      fseek_
Module: C:\WATCOM2\lib286\dos\clibm.lib(chktty.c)
0000:0a6d      __chktty_
Module: C:\WATCOM2\lib286\dos\clibm.lib(freefp.c)
0000:0a94      __freefp_
0000:0ab8      __purgefp_
Module: C:\WATCOM2\lib286\dos\clibm.lib(allocfp.c)
0000:0ad1      __allocfp_
Module: C:\WATCOM2\lib286\dos\clibm.lib(iob.c)
02cf:1a78      ___iob
02cf:289e      ___OpenStreams
02cf:28a0      ___ClosedStreams
Module: C:\WATCOM2\lib286\dos\clibm.lib(fprtf.c)
0000:0b76      __fprtf_
Module: C:\WATCOM2\lib286\dos\clibm.lib(__lseek.c)
0000:0c11      __lseek_
Module: C:\WATCOM2\lib286\dos\clibm.lib(_clse.c)
0000:0c4b      __close_
Module: C:\WATCOM2\lib286\dos\clibm.lib(nfree.c)
0000:0c81      _nfree_
0000:0c81      free_
02cf:28a2+     ___MiniHeapFreeRover
Module: C:\WATCOM2\lib286\dos\clibm.lib(flush.c)
0000:0d46      __flush_
Module: C:\WATCOM2\lib286\dos\clibm.lib(xmsg.c)
0000:0e3a*     __exit_with_msg_
0000:0e3f      __fatal_runtime_error_
Module: C:\WATCOM2\lib286\dos\clibm.lib(cmain086.c)
0000:0e59      __CMain
Module: C:\WATCOM2\lib286\dos\clibm.lib(initrtns.c)
0000:0ea1      __InitRtns
0000:0ea1*     __FInitRtns
0000:0ef8      __FiniRtns
0000:0ef8*     __FFiniRtns
Module: C:\WATCOM2\lib286\dos\clibm.lib(crwdata)
02cf:1b90      __curbrk
02cf:1b98      __STACKLOW
02cf:1b9a      __STACKTOP
02cf:1b9c      __cbyte
02cf:1b9e      __child
02cf:1ba0      __no87
02cf:1bad      ___FPE_handler
02cf:1b92      __psp
02cf:1ba1      __get_ovl_stack
02cf:1ba5      __restore_ovl_stack
02cf:1ba9      __close_ovl_file
02cf:1bb1      __LpCmdLine
02cf:1bb5      __LpPgmName
02cf:1b94      __osmajor
02cf:1b95      __osminor
02cf:1b96      __osmode
02cf:1b97      __HShift
Module: C:\WATCOM2\lib286\dos\clibm.lib(uselfn.c)
02cf:1bba      ___uselfn
Module: C:\WATCOM2\lib286\dos\clibm.lib(dosseg)
0000:0f56      __DOSseg__
Module: C:\WATCOM2\lib286\dos\clibm.lib(initargv.c)
0000:10be      __Init_Argv_
0000:10f5      __Fini_Argv_
Module: C:\WATCOM2\lib286\dos\clibm.lib(opendos.c)
0000:110b      _dos_open_
Module: C:\WATCOM2\lib286\dos\clibm.lib(iomode.c)
0000:1121      __GetIOMode_
0000:1138      __SetIOMode_nogrow_
02cf:1bbc      ___NFiles
02cf:1bbe      ___init_mode
02cf:1be6      ___io_mode
Module: C:\WATCOM2\lib286\dos\clibm.lib(isatt.c)
0000:114d      isatty_
Module: C:\WATCOM2\lib286\dos\clibm.lib(dosret.c)
0000:1169      __set_errno_dos_
0000:11cd*     __set_errno_dos_reterr_
Module: C:\WATCOM2\lib286\dos\clibm.lib(doserrno.c)
0000:11d8      __get_doserrno_ptr_
02cf:28a6+     __doserrno
Module: C:\WATCOM2\lib286\dos\clibm.lib(umaskval.c)
02cf:1bfc      ___umaskval
Module: C:\WATCOM2\lib286\dos\clibm.lib(creatdos.c)
0000:11dc      _dos_creat_
0000:11f0*     _dos_creatnew_
Module: C:\WATCOM2\lib286\dos\clibm.lib(stiomode.c)
0000:1204+     __grow_iomode_
0000:1291+     __shrink_iomode_
0000:12ac      __SetIOMode_
Module: C:\WATCOM2\lib286\dos\clibm.lib(lseek.c)
0000:1300      lseek_
Module: C:\WATCOM2\lib286\dos\clibm.lib(tell.c)
0000:1331      _tell_
Module: C:\WATCOM2\lib286\dos\clibm.lib(nmalloc.c)
0000:1342      _nmalloc_
0000:1342      malloc_
02cf:1bfe      ___nheapbeg
02cf:1c00      ___MiniHeapRover
02cf:1c02      ___LargestSizeB4MiniHeapRover
Module: C:\WATCOM2\lib286\dos\clibm.lib(initfile.c)
0000:1401      __InitFiles_
Module: C:\WATCOM2\lib286\dos\clibm.lib(ioexit.c)
0000:14e1*     fcloseall_
0000:14e8      __full_io_exit_
Module: C:\WATCOM2\lib286\dos\clibm.lib(fputc.c)
0000:14f2      fputc_
Module: C:\WATCOM2\lib286\dos\clibm.lib(ioalloc.c)
0000:15a3      __ioalloc_
Module: C:\WATCOM2\lib286\dos\clibm.lib(prtf.c)
0000:1f67      __prtf_
Module: C:\WATCOM2\lib286\dos\clibm.lib(mem.c)
0000:2170      __MemAllocator
0000:2238      __MemFree
Module: C:\WATCOM2\lib286\dos\clibm.lib(qwrit.c)
0000:23b2      __qwrite_
Module: C:\WATCOM2\lib286\dos\clibm.lib(fsync.c)
0000:2411      fsync_
Module: C:\WATCOM2\lib286\dos\clibm.lib(enterdb.c)
0000:2416      __EnterWVIDEO_
02cf:1c04+     __WD_Present
Module: C:\WATCOM2\lib286\dos\clibm.lib(___argc.c)
02cf:28aa      ____Argv
02cf:28ac      ____Argc
Module: C:\WATCOM2\lib286\dos\clibm.lib(exit.c)
0000:2432+     __null_int23_exit_
0000:2433      exit_
0000:2453*     _exit_
02cf:1c06+     ___int23_exit
02cf:1c0a+     ___FPE_handler_exit
Module: C:\WATCOM2\lib286\dos\clibm.lib(sgdef086)
02cf:1c1e      __Start_XI
02cf:1c30      __End_XI
02cf:1c30      __Start_YI
02cf:1c42      __End_YI
Module: C:\WATCOM2\lib286\dos\clibm.lib(histsplt.c)
02cf:28ae      ___historical_splitparms
Module: C:\WATCOM2\lib286\dos\clibm.lib(error086.asm)
0000:2462      __doserror_
0000:2470*     __doserror1_
Module: C:\WATCOM2\lib286\dos\clibm.lib(nrealloc.c)
0000:247c*     _nrealloc_
0000:247c      realloc_
Module: C:\WATCOM2\lib286\dos\clibm.lib(iomodtty.c)
0000:24f6      __ChkTTYIOMode_
0000:252a*     __IOMode_
Module: C:\WATCOM2\lib286\dos\clibm.lib(nmemneed.c)
0000:253a      __nmemneed_
Module: C:\WATCOM2\lib286\dos\clibm.lib(grownear.c)
0000:25a3+     __LastFree_
0000:260b      __ExpandDGROUP_
Module: C:\WATCOM2\lib286\dos\clibm.lib(wctomb.c)
0000:26e3      wctomb_
Module: C:\WATCOM2\lib286\dos\clibm.lib(itoa.c)
0000:2700+     utoa_
0000:2745      itoa_
Module: C:\WATCOM2\lib286\dos\clibm.lib(i4m.asm)
0000:2762*     __I4M
0000:2762      __U4M
Module: C:\WATCOM2\lib286\dos\clibm.lib(noefgfmt.c)
02cf:1c0e      ___EFG_printf
02cf:1c12*     ___EFG_scanf
Module: C:\WATCOM2\lib286\dos\clibm.lib(lltoa.c)
0000:2789      ulltoa_
0000:284d*     lltoa_
Module: C:\WATCOM2\lib286\dos\clibm.lib(strupr.c)
0000:28a1      _strupr_
Module: C:\WATCOM2\lib286\dos\clibm.lib(ltoa.c)
0000:28c1      ultoa_
0000:2914*     ltoa_
Module: C:\WATCOM2\lib286\dos\clibm.lib(mbisdbcs.c)
02cf:1c16      ___IsDBCS
Module: C:\WATCOM2\lib286\dos\clibm.lib(mbislead.c)
0000:2935*     _ismbblead_
02cf:28b0      ___MBCSIsTable
Module: C:\WATCOM2\lib286\dos\clibm.lib(filedos.c)
0000:294c*     _dos_close_
0000:295a      _dos_commit_
Module: C:\WATCOM2\lib286\dos\clibm.lib(nmsize.c)
0000:2969*     _msize_
0000:2969      _nmsize_
Module: C:\WATCOM2\lib286\dos\clibm.lib(nexpand.c)
0000:2978      _nexpand_
0000:2978*     _expand_
Module: C:\WATCOM2\lib286\dos\clibm.lib(amblksiz.c)
02cf:1c18      __amblksiz
Module: C:\WATCOM2\lib286\dos\clibm.lib(heapen.c)
0000:29c7*     _heapenable_
02cf:1c1a      ___heap_enabled
Module: C:\WATCOM2\lib286\dos\clibm.lib(sbrk.c)
0000:29d3      __brk_
0000:2a29*     sbrk_
Module: C:\WATCOM2\lib286\dos\clibm.lib(alphabet.c)
02cf:101e      ___Alphabet
Module: C:\WATCOM2\lib286\dos\clibm.lib(mbinit.c)
0000:2a8c      __mbinit_
02cf:1c1c+     ___MBCodePage
Module: C:\WATCOM2\lib286\dos\clibm.lib(_expand.c)
0000:2af7      __HeapManager_expand_
Module: C:\WATCOM2\lib286\dos\clibm.lib(getltdos.c)
0000:2c88      dos_get_dbcs_lead_table_
Module: C:\WATCOM2\lib286\dos\clibm.lib(getcpdos.c)
0000:2cb1      dos_get_code_page_
Module: C:\WATCOM2\lib286\dos\clibm.lib(bfree.c)
0000:2cc1      _bfree_


                        +--------------------+
                        |   Libraries Used   |
                        +--------------------+

C:\WATCOM2\lib286\dos\clibm.lib


                        +-----------------------+
                        |   Linker Statistics   |
                        +-----------------------+

Stack size:  1000 (4096.)
Memory size:  66b0 (26288.)
Entry point address: 0000:0426
Link time: 00:00.10
