Open Watcom Linker Version 1.9
Portions Copyright (c) 1985-2002 Sybase, Inc. All Rights Reserved.
Created on:       23/08/17 17:49:50
Executable Image: newdoom.exe
creating an OS/2 linear executable


                        +------------+
                        |   Groups   |
                        +------------+

Group                           Address              Size
=====                           =======              ====

DGROUP                          0002:00000000        0007c9d0



                        +--------------+
                        |   Segments   |
                        +--------------+

Segment                Class          Group          Address         Size
=======                =====          =====          =======         ====

BEGTEXT                CODE           AUTO           0001:00000000   00000010
_TEXT                  CODE           AUTO           0001:00000010   0002ee60
_NULL                  BEGDATA        DGROUP         0002:00000000   00000004
_AFTERNULL             BEGDATA        DGROUP         0002:00000004   00000000
CONST                  DATA           DGROUP         0002:00000004   00004d78
CONST2                 DATA           DGROUP         0002:00004d7c   00000218
_DATA                  DATA           DGROUP         0002:00004fa0   00017420
XIB                    DATA           DGROUP         0002:0001c3c0   00000000
XI                     DATA           DGROUP         0002:0001c3c0   00000024
XIE                    DATA           DGROUP         0002:0001c3e4   00000000
YIB                    DATA           DGROUP         0002:0001c3e4   00000000
YI                     DATA           DGROUP         0002:0001c3e4   0000001e
YIE                    DATA           DGROUP         0002:0001c402   00000000
TIB                    DATA           DGROUP         0002:0001c402   00000000
TI                     DATA           DGROUP         0002:0001c402   00000000
TIE                    DATA           DGROUP         0002:0001c402   00000000
DATA                   DATA           DGROUP         0002:0001c402   00000000
_BSS                   BSS            DGROUP         0002:0001c410   000505b8
STACK                  STACK          DGROUP         0002:0006c9d0   00010000


                        +----------------+
                        |   Memory Map   |
                        +----------------+

* = unreferenced symbol
+ = symbol only referenced locally

Address        Symbol
=======        ======

Module: i_main.obj(C:\PCDOOM2\i_main.c)
0001:00000010  main_
Module: i_ibm.obj(C:\PCDOOM2\i_ibm.c)
0002:0001c410+ _olddb
0002:0001c430+ _emptycmd
0002:0001c438+ _keyboardque
0002:0001c458+ _realstackseg
0002:0001c45c+ _lastpress
0002:0001c460+ _currentscreen
0002:0001c464+ _pcscreen
0002:0001c468+ _extcontrol
0002:0001c46c+ _regs
0002:0001c488+ _kbdhead
0002:0001c48c+ _kbdtail
0002:0001c490+ _segregs
0002:0001c49c+ _grmode
0001:00000030  I_BaseTiccmd_
0001:00000060  I_GetTime_
0001:00000070* I_ColorBorder_
0001:000000b0* I_UnColorBorder_
0001:000000f0  I_WaitVBL_
0001:00000130  I_SetPalette_
0001:00000190+ I_UpdateBox_
0001:00000290  I_UpdateNoBlit_
0001:000003a0  I_FinishUpdate_
0001:000003e0  I_InitGraphics_
0001:000004e0+ I_ShutdownGraphics_
0001:00000510  I_ReadScreen_
0001:00000590  I_StartTic_
0001:000006a0  I_TimerISR_
0001:000006b0+ I_KeyboardISR_
0001:00000700* I_StartupKeyboard_
0001:00000740+ I_ShutdownKeyboard_
0001:00000790+ I_ResetMouse_
0001:000007c0+ I_StartupMouse_
0001:00000820+ I_ShutdownMouse_
0001:00000840+ I_ReadMouse_
0001:000008c0+ I_StartupDPMI_
0001:000008f0  I_Init_
0001:000009b0* I_Shutdown_
0001:000009d0  I_Error_
0001:00000a40  I_Quit_
0001:00000b00  I_ZoneBase_
0001:00000c20* checkIfEMSExists_
0001:00000c60* I_ZoneBaseEMS_
0001:00000d80* I_InitEMS_
0001:00000ea0+ I_InitDiskFlash_
0001:00000f00  I_BeginRead_
0001:00000fc0  I_EndRead_
0001:00001050  I_AllocLow_
0001:000010e0  I_InitNetwork_
0001:000011b0  I_NetCmd_
0001:000011e0+ DPMIInt_
0002:00004fa0  _scantokey
0002:00005024+ _oldkeyboardisr
0002:0001c4a0+ _mousepresent
0002:0001c4a4+ _novideo
0002:0001c4a8+ _ticcount
0002:0001c4ac  _destview
0002:0001c4b0  _destscreen
0002:0001c4b4+ _dpmiregs
Module: i_sound.obj(C:\PCDOOM2\i_sound.c)
0002:0001c4ec+ _dmxCodes
0002:0001c51c+ _snd_MusicVolume
0002:0001c520+ _snd_SfxVolume
0002:0001c524  _snd_SBirq
0002:0001c528  _snd_SBport
0002:0001c52c  _snd_Mport
0002:0001c530  _snd_SBdma
0002:0001c534  _snd_DesiredSfxDevice
0002:0001c538  _snd_MusicDevice
0002:0001c53c+ _snd_SfxDevice
0001:00001260+ I_StartupTimer_
0001:000012b0  I_ShutdownTimer_
0001:000012d0  I_PauseSong_
0001:000012e0  I_ResumeSong_
0001:000012f0  I_SetMusicVolume_
0001:00001300* I_SetSfxVolume_
0001:00001310  I_RegisterSong_
0001:00001320  I_UnRegisterSong_
0001:00001330* I_QrySongPlaying_
0001:00001340  I_StopSong_
0001:00001350  I_PlaySong_
0001:00001360  I_GetSfxLumpNum_
0001:000013a0  I_StartSound_
0001:000013b0  I_StopSound_
0001:000013c0  I_SoundIsPlaying_
0001:000013d0  I_UpdateSoundParams_
0001:000013e0* I_sndArbitrateCards_
0001:000013f0  I_StartupSound_
0001:00001470  I_ShutdownSound_
0001:00001480  I_SetChannels_
0002:00004d7c+ _snd_prefixen
0002:0000502c+ _tsm_ID
0002:0001c540  _snd_DesiredMusicDevice
Module: i_ibm_a.obj(i_ibm_a.ASM)
0002:00005030* _joystickx
0002:00005034* _joysticky
0001:00001498* I_SetDivException_
0001:00001488* I_DivException_
0001:000014c3* I_ReadJoystick_
Module: tables.obj(C:\PCDOOM2\tables.c)
0002:00005038  _finetangent
0002:00009038  _finesine
0002:00013038  _tantoangle
Module: f_finale.obj(C:\PCDOOM2\f_finale.c)
0001:00001520  F_StartFinale_
0001:00001650  F_Responder_
0001:00001670  F_Ticker_
0001:00001740+ F_TextWrite_
0001:00001890+ F_StartCast_
0001:00001920+ F_CastTicker_
0001:00001d60+ F_CastResponder_
0001:00001e00+ F_CastPrint_
0001:00001ec0+ F_CastDrawer_
0001:00001fb0+ F_DrawPatchCol_
0001:00002010+ F_BunnyScroll_
0001:00002160  F_Drawer_
0002:0001503c+ _e1text
0002:00015040+ _e2text
0002:00015044+ _e3text
0002:00015048+ _c1text
0002:0001504c+ _c2text
0002:00015050+ _c3text
0002:00015054+ _c4text
0002:00015058+ _c5text
0002:0001505c+ _c6text
0002:00015060+ _castorder
0002:0001c544+ _castonmelee
0002:0001c548+ _castdeath
0002:0001c54c+ _castframes
0002:0001c550+ _castattacking
0002:0001c554+ _casttics
0002:0001c558+ _caststate
0002:0001c55c+ _castnum
0002:0001c560+ _finaleflat
0002:0001c564+ _finaletext
0002:0001c568+ _finalecount
0002:0001c56c+ _finalestage
Module: d_main.obj(C:\PCDOOM2\d_main.c)
0002:0001c574+ _title
0002:0001c5f4+ _wadfile
0002:0001c9f4+ _mapdir
0002:0001cdf4+ _wadfiles
0002:0001ce44  _events
0002:0001d184  _basedefault
0002:0001d584+ _pagename
0002:0001d588+ _copynode
0002:0001feb4+ _demosequence
0002:0001feb8+ _pagetic
0002:0001febc  _advancedemo
0002:0001fec0+ _drone
0002:0001fec4  _eventtail
0002:0001fec8  _eventhead
0002:0001fecc  _debugfile
0002:0001fed0  _shareware
0002:0001fed4  _registered
0002:0001fed8  _french
0002:0001fedc  _commercial
0002:0001fee0  _startmap
0002:0001fee4  _modifiedgame
0002:0001fee8  _autostart
0002:0001feec  _nomonsters
0002:0001fef0  _fastparm
0002:0001fef4  _respawnparm
0001:000022b0  D_PostEvent_
0001:000022e0  D_ProcessEvents_
0001:00002340  FixedDiv_
0001:000023a0+ D_Display_
0001:000026a0+ D_DoomLoop_
0001:00002870  D_PageTicker_
0001:000028a0* D_PageDrawer_
0001:000028b0  D_AdvanceDemo_
0001:000028e0  D_DoAdvanceDemo_
0001:00002a30  D_StartTitle_
0001:00002a50+ D_GetCursorColumn_
0001:00002a80+ D_GetCursorRow_
0001:00002ab0+ D_SetCursorPosition_
0001:00002ae0+ D_DrawTitle_
0001:00002b70+ D_RedrawTitle_
0001:00002bc0+ D_AddFile_
0001:00002c20+ IdentifyVersion_
0001:00002cf0+ FindResponseFile_
0001:00002ec0  D_DoomMain_
0002:000150bc  _singletics
0002:000150c0  _wipegamestate
0002:0001fef8  _startepisode
0002:0001fefc  _startskill
Module: d_net.obj(C:\PCDOOM2\d_net.c)
0002:0001ff04+ _frametics
0002:0001ff14+ _frameskip
0002:0001ff24+ _exitmsg
0002:0001ff74+ _reboundstore
0002:0001ffdc+ _remoteresend
0002:0001fffc+ _nodeforplayer
0002:0002000c+ _resendto
0002:0002002c+ _resendcount
0002:0002004c+ _nettics
0002:0002006c  _netcmds
0002:000201ec+ _localcmds
0002:0002024c+ _nodeingame
0001:000036b0* NetbufferSize_
0001:000036d0+ NetbufferChecksum_
0001:00003730+ ExpandTics_
0001:000037b0+ HSendPacket_
0001:000038e0+ HGetPacket_
0001:00003ab0+ GetPackets_
0001:00003cf0  NetUpdate_
0001:00003e90+ CheckAbort_
0001:00003f00+ D_ArbitrateNetStart_
0001:000040e0  D_CheckNetGame_
0001:00004220  D_QuitNetGame_
0001:000042c0  TryRunTics_
0002:0002026c+ _oldnettics
0002:00020270+ _frameon
0002:00020274+ _gametime
0002:00020278+ _maxsend
0002:0002027c+ _lastnettic
0002:00020280+ _reboundpacket
0002:00020284  _maketic
0002:00020288  _ticdup
0002:0002028c+ _netbuffer
0002:00020290+ _skiptics
0002:00020294  _doomcom
Module: g_game.obj(C:\PCDOOM2\g_game.c)
0002:0002029c+ _savename
0002:0002039c+ _bodyque
0002:000203dc+ _mousearray
0002:000203ec+ _gamekeydown
0002:000207ec+ _savedescription
0002:0002080c+ _demoname
0002:0002082c+ _consistancy
0002:0002088c  _playeringame
0002:0002089c  _wminfo
0002:00020964+ _defdemoname
0002:00020968+ _d_episode
0002:0002096c+ _d_map
0002:00020970+ _secretexit
0002:00020974  _statcopy
0002:00020978  _mousebforward
0002:0002097c+ _dclicks
0002:00020980+ _turnheld
0002:00020984+ _dclicktime
0002:00020988+ _dclickstate
0002:0002098c  _mousebstrafe
0002:00020990+ _dclicktime2
0002:00020994+ _mousey
0002:00020998+ _mousex
0002:0002099c+ _savegameslot
0002:000209a0+ _dclickstate2
0002:000209a4+ _dclicks2
0002:000209a8  _key_speed
0002:000209ac  _mousebfire
0002:000209b0  _key_left
0002:000209b4+ _starttime
0002:000209b8+ _timingdemo
0002:000209bc  _key_fire
0002:000209c0  _key_strafe
0002:000209c4+ _demo_p
0002:000209c8  _key_straferight
0002:000209cc  _key_up
0002:000209d0+ _netdemo
0002:000209d4  _key_down
0002:000209d8  _key_use
0002:000209dc  _key_right
0002:000209e0  _key_strafeleft
0002:000209e4+ _sendsave
0002:000209e8+ _sendpause
0002:000209ec  _bodyqueslot
0002:000209f0  _players
0002:00020e1c  _gametic
0002:00020e20  _gamestate
0002:00020e24  _demorecording
0002:00020e28  _singledemo
0002:00020e2c  _paused
0002:00020e30  _viewactive
0002:00020e34+ _noblit
0002:00020e38  _demoplayback
0002:00020e3c  _nodrawers
0002:00020e40  _totalkills
0002:00020e44  _displayplayer
0002:00020e48  _totalitems
0002:00020e4c  _totalsecret
0002:00020e50  _consoleplayer
0002:00020e54+ _levelstarttic
0001:00004550  G_BuildTiccmd_
0001:00004910+ G_DoLoadLevel_
0001:00004a00  G_Responder_
0001:00004c30  G_Ticker_
0001:00004ef0+ G_PlayerFinishLevel_
0001:00004f60  G_PlayerReborn_
0001:00005080+ G_CheckSpot_
0001:00005210  G_DeathMatchSpawnPlayer_
0001:000052a0+ G_DoReborn_
0001:00005370  G_ExitLevel_
0001:00005390  G_SecretExitLevel_
0001:000053e0+ G_DoCompleted_
0001:000056a0  G_WorldDone_
0001:00005710+ G_DoWorldDone_
0001:00005740  G_LoadGame_
0001:00005780+ G_DoLoadGame_
0001:00005900  G_SaveGame_
0001:00005940+ G_DoSaveGame_
0001:00005b10  G_DeferedInitNew_
0001:00005b30+ G_DoNewGame_
0001:00005ba0  G_InitNew_
0001:00005da0+ G_ReadDemoTiccmd_
0001:00005e20+ G_WriteDemoTiccmd_
0001:00005eb0  G_RecordDemo_
0001:00005f70  G_BeginRecording_
0001:00006000  G_DeferedPlayDemo_
0001:00006020+ G_DoPlayDemo_
0001:00006150  G_TimeDemo_
0001:000061a0  G_CheckDemoStatus_
0002:000150d8  _precache
0002:000150dc  _forwardmove
0002:000150e4  _sidemove
0002:000150ec+ _angleturn
0002:000150f8+ _mousebuttons
0002:000150fc+ _pars
0002:0001519c+ _cpars
0002:00020e58  _usergame
0002:00020e5c  _gamemap
0002:00020e60  _respawnmonsters
0002:00020e64  _deathmatch
0002:00020e68  _gameepisode
0002:00020e6c  _netgame
0002:00020e70+ _demobufferRef
0002:00020e72+ _savebufferRef
0002:00020e74+ _d_skill
0002:00020e75  _gameaction
0002:00020e76  _gameskill
Module: m_menu.obj(C:\PCDOOM2\m_menu.c)
0002:00020ec8+ _tempstring
0002:00020f18+ _savegamestrings
0002:00021008+ _endstring
0002:000210a8+ _saveOldString
0002:000210c0+ _epi
0002:000210c4+ _sound_e
0002:000210c8+ _load_e
0002:000210cc+ _options_e
0002:000210d0+ _read_e2
0002:000210d4+ _newgame_e
0002:000210d8+ _read_e
0002:000210dc+ _episodes_e
0002:000210e0+ _main_e
0002:000210e4+ _currentMenu
0002:000210e8  _inhelpscreens
0002:000210ec+ _saveStringEnter
0002:000210f0+ _saveCharIndex
0002:000210f4+ _saveSlot
0002:000210f8  _sfxVolume
0002:000210fc  _showMessages
0002:00021100+ _messageNeedsInput
0002:00021104+ _messageLastMenuActive
0002:00021108  _screenblocks
0002:0002110c+ _messageString
0002:00021110+ _screenSize
0002:00021114+ _messageToPrint
0002:00021118+ _quickSaveSlot
0002:0002111c  _detailLevel
0002:00021120  _musicVolume
0002:00021124+ _messageRoutine
0002:00021128  _mouseSensitivity
0002:0002112c  _menuactive
0002:00021130+ _whichSkull
0002:0001521c+ _gammamsg
0002:0001529e+ _endmsg
0002:0001551e+ _endmsg2
0002:0001579e+ _skullName
0002:000157b0+ _MainMenu
0002:00015816+ _MainDef
0002:0001582a+ _EpisodeMenu
0002:0001585d+ _EpiDef
0002:00015871+ _NewGameMenu
0002:000158c6+ _NewDef
0002:000158da+ _OptionsMenu
0002:00015962+ _OptionsDef
0002:00015976+ _ReadMenu1
0001:000062d0+ M_ReadSaveStrings_
0001:000063b0+ M_DrawLoad_
0001:00006430+ M_DrawSaveLoadBorder_
0001:000064c0+ M_LoadSelect_
0001:00006510+ M_LoadGame_
0001:00006550+ M_DrawSave_
0001:00006610+ M_DoSave_
0001:00006640+ M_SaveSelect_
0001:000066d0+ M_SaveGame_
0001:00006720+ M_QuickSaveResponse_
0001:00006750+ M_QuickSave_
0001:000067f0+ M_QuickLoadResponse_
0001:00006820+ M_QuickLoad_
0001:00006890+ M_DrawReadThis1_
0001:000068d0+ M_DrawReadThis2_
0001:00006910+ M_DrawReadThisRetail_
0001:00006950+ M_DrawSound_
0001:000069c0+ M_Sound_
0001:000069e0+ M_SfxVol_
0001:00006a20+ M_MusicVol_
0001:00006a60+ M_DrawMainMenu_
0001:00006a90+ M_DrawNewGame_
0001:00006ae0+ M_NewGame_
0001:00006b40+ M_DrawEpisode_
0001:00006b70+ M_VerifyNightmare_
0001:00006ba0+ M_ChooseSkill_
0001:00006bf0+ M_Episode_
0001:00006c50+ M_DrawOptions_
0001:00006d40+ M_Options_
0001:00006d60+ M_ChangeMessages_
0001:00006db0+ M_EndGameResponse_
0001:00006de0+ M_EndGame_
0001:00006e30+ M_ReadThis_
0001:00006e50+ M_ReadThis2_
0001:00006e70+ M_FinishReadThis_
0001:00006e90+ M_QuitResponse_
0001:00006ee0+ M_QuitDOOM_
0001:00006f70+ M_ChangeSensitivity_
0001:00006fa0+ M_ChangeDetail_
0001:00006ff0+ M_SizeDisplay_
0001:00007040+ M_DrawThermo_
0001:00007100+ M_StartMessage_
0001:00007140+ M_StringWidth_
0001:000071a0+ M_StringHeight_
0001:000071f0+ M_WriteText_
0001:00007270  M_Responder_
0001:00007bc0  M_StartControlPanel_
0001:00007bf0  M_Drawer_
0001:00007e20* M_ClearMenus_
0001:00007e30* M_SetupNextMenu_
0001:00007e50  M_Ticker_
0001:00007e80  M_Init_
0002:00015987+ _ReadDef1
0002:0001599b+ _ReadMenu2
0002:000159ac+ _ReadDef2
0002:000159c0+ _SoundMenu
0002:00015a04+ _SoundDef
0002:00015a18+ _LoadMenu
0002:00015a7e+ _LoadDef
0002:00015a92+ _SaveMenu
0002:00015af8+ _SaveDef
0002:00015b0c+ _detailNames
0002:00015b1e+ _msgNames
0002:00015b30+ _quitsounds
0002:00015b50+ _quitsounds2
0002:00021132+ _skullAnimCounter
0002:00021134+ _itemOn
Module: m_misc.obj(C:\PCDOOM2\m_misc.c)
0001:00007f40  M_CheckParm_
0001:00007f80  P_Random_
0001:00007fb0  M_Random_
0001:00007fe0  M_ClearRandom_
0001:00008000  M_ClearBox_
0001:00008020  M_AddToBox_
0001:00008050  M_WriteFile_
0001:000080a0  M_ReadFile_
0001:00008160  M_SaveDefaults_
0001:00008210  M_LoadDefaults_
0002:00015b84+ _rndtable
0002:00015c84  _rndindex
0002:00015c88  _prndindex
0002:00015c8c+ _counter
0002:00015c90+ _defaults
0002:0002113c+ _numdefaults
0002:00021140+ _defaultfile
0002:00021144  _usemouse
0002:00021148  _myargc
0002:0002114c  _myargv
Module: am_map.obj(C:\PCDOOM2\am_map.c)
0002:00015f88+ _player_arrow
0002:00015ff8+ _cheat_player_arrow
0002:000160f8+ _triangle_guy
0002:00016128+ _thintriangle_guy
0002:00016164  _automapactive
0001:000083f0+ AM_activateNewScale_
0001:000084a0* AM_saveScaleAndLoc_
0001:000084d0+ AM_restoreScaleAndLoc_
0001:00008590+ AM_addMark_
0001:000085f0+ AM_findMinMaxBoundaries_
0001:00008710+ AM_changeWindowLoc_
0001:000087f0+ AM_initVariables_
0001:00008920+ AM_loadPics_
0001:00008970+ AM_unloadPics_
0001:000089a0+ AM_clearMarks_
0001:000089d0+ AM_LevelInit_
0001:00008a50  AM_Stop_
0001:00008a80+ AM_Start_
0001:00008ae0* AM_minOutWindowScale_
0001:00008b10* AM_maxOutWindowScale_
0001:00008b40  AM_Responder_
0001:00008f60+ AM_changeWindowScale_
0001:00008fe0+ AM_doFollowPlayer_
0001:000090c0  AM_Ticker_
0001:00009110* AM_clearFB_
0001:00009140+ AM_clipMline_
0001:00009480+ AM_drawFline_
0001:00009580+ AM_drawMline_
0001:000095b0+ AM_drawGrid_
0001:00009680+ AM_drawWalls_
0001:00009870+ AM_rotate_
0001:000098f0+ AM_drawLineCharacter_
0001:000099d0+ AM_drawPlayers_
0001:00009ad0+ AM_drawThings_
0001:00009b50+ AM_drawMarks_
0001:00009c10* AM_drawCrosshair_
0001:00009c40  AM_Drawer_
Module: p_ceilng.obj(C:\PCDOOM2\p_ceilng.c)
0001:00009d10  T_MoveCeiling_
0001:00009ef0  EV_DoCeiling_
0001:0000a070+ P_AddActiveCeiling_
0001:0000a0a0+ P_RemoveActiveCeiling_
0001:0000a110+ P_ActivateInStasisCeiling_
0001:0000a170  EV_CeilingCrushStop_
0002:00021274  _activeceilings
Module: p_doors.obj(C:\PCDOOM2\p_doors.c)
0001:0000a230  T_VerticalDoor_
0001:0000a4c0  EV_DoLockedDoor_
0001:0000a5e0  EV_DoDoor_
0001:0000a810  EV_VerticalDoor_
0001:0000ab30  P_SpawnDoorCloseIn30_
0001:0000abc0  P_SpawnDoorRaiseIn5Mins_
Module: p_enemy.obj(C:\PCDOOM2\p_enemy.c)
0001:0000ac70+ P_RecursiveSound_
0001:0000adf0  P_NoiseAlert_
0001:0000ae20+ P_CheckMeleeRange_
0001:0000aeb0+ P_CheckMissileRange_
0001:0000afe0+ P_Move_
0001:0000b110+ P_TryWalk_
0001:0000b150+ P_NewChaseDir_
0001:0000b3b0+ P_LookForPlayers_
0001:0000b500  A_KeenDie_
0001:0000b5b0  A_Look_
0001:0000b6f0  A_Chase_
0001:0000b9b0  A_FaceTarget_
0001:0000ba30  A_PosAttack_
0001:0000bac0  A_SPosAttack_
0001:0000bb70  A_CPosAttack_
0001:0000bc00  A_CPosRefire_
0001:0000bc80  A_SpidRefire_
0001:0000bd00  A_BspiAttack_
0001:0000bd50  A_TroopAttack_
0001:0000bde0  A_SargAttack_
0001:0000be50  A_HeadAttack_
0001:0000bee0  A_CyberAttack_
0001:0000bf20  A_BruisAttack_
0001:0000bfb0  A_SkelMissile_
0001:0000c030  A_Tracer_
0001:0000c200  A_SkelWhoosh_
0001:0000c230  A_SkelFist_
0001:0000c2a0+ PIT_VileCheck_
0001:0000c380  A_VileChase_
0001:0000c500  A_VileStart_
0001:0000c520  A_StartFire_
0001:0000c550  A_FireCrackle_
0001:0000c580  A_Fire_
0001:0000c640  A_VileTarget_
0001:0000c6c0  A_VileAttack_
0001:0000c7e0  A_FatRaise_
0001:0000c810  A_FatAttack1_
0001:0000c8b0  A_FatAttack2_
0001:0000c950  A_FatAttack3_
0001:0000ca40  A_SkullAttack_
0001:0000cb30+ A_PainShootSkull_
0001:0000cc70  A_PainAttack_
0001:0000ccb0  A_PainDie_
0001:0000cd00  A_Scream_
0001:0000cd90  A_XScream_
0001:0000cdb0  A_Pain_
0001:0000cde0  A_Fall_
0001:0000ce00  A_Explode_
0001:0000ce30  A_BossDeath_
0001:0000cfb0  A_Hoof_
0001:0000cfe0  A_Metal_
0001:0000d010  A_BabyMetal_
0001:0000d040* A_OpenShotgun2_
0001:0000d060* A_LoadShotgun2_
0001:0000d080* A_CloseShotgun2_
0001:0000d0b0  A_BrainAwake_
0001:0000d140  A_BrainPain_
0001:0000d160  A_BrainScream_
0001:0000d230  A_BrainExplode_
0001:0000d2d0  A_BrainDie_
0001:0000d2e0  A_BrainSpit_
0001:0000d3a0  A_SpawnSound_
0001:0000d3d0  A_SpawnFly_
0001:0000d520  A_PlayerScream_
0002:000161cc+ _opposite
0002:000161f0+ _diags
0002:00016200+ _xspeed
0002:00016220+ _yspeed
0002:00016240+ _TRACEANGLE
0002:000212b0+ _braintargets
0002:000212f0+ _numbraintargets
0002:000212f4+ _braintargeton
0002:000212f8+ _viletryy
0002:000212fc+ _viletryx
0002:00021300+ _vileobj
0002:00021304+ _corpsehitRef
0002:00021306+ _soundtargetRef
Module: p_floor.obj(C:\PCDOOM2\p_floor.c)
0001:0000d560  T_MovePlane_
0001:0000d840  T_MoveFloor_
0001:0000d9a0  EV_DoFloor_
0001:0000de60  EV_BuildStairs_
Module: p_inter.obj(C:\PCDOOM2\p_inter.c)
0001:0000e080+ P_GiveAmmo_
0001:0000e1c0+ P_GiveWeapon_
0001:0000e2e0+ P_GiveBody_
0001:0000e320+ P_GiveArmor_
0001:0000e340+ P_GiveCard_
0001:0000e370  P_GivePower_
0001:0000e4c0  P_TouchSpecialThing_
0001:0000ec40+ P_KillMobj_
0001:0000edd0  P_DamageMobj_
0002:00016248  _maxammo
0002:00016258+ _clipammo
Module: p_lights.obj(C:\PCDOOM2\p_lights.c)
0001:0000f130  T_FireFlicker_
0001:0000f1a0  P_SpawnFireFlicker_
0001:0000f240  T_LightFlash_
0001:0000f2c0  P_SpawnLightFlash_
0001:0000f360  T_StrobeFlash_
0001:0000f3d0  P_SpawnStrobeFlash_
0001:0000f4a0  EV_StartLightStrobing_
0001:0000f500  EV_TurnTagLightsOff_
0001:0000f5c0  EV_LightTurnOn_
0001:0000f690  T_Glow_
0001:0000f750  P_SpawnGlowingLight_
Module: p_map.obj(C:\PCDOOM2\p_map.c)
0002:00021308+ _tmbbox
0002:00021318  _spechit
0002:00021328+ _crushchange
0002:0002132c+ _nofit
0002:00021330+ _bombdamage
0002:00021334  _attackrange
0002:00021338+ _la_damage
0002:0002133c+ _aimslope
0002:00021340+ _shootz
0002:00021344+ _bestslidefrac
0002:00021348+ _tmymove
0002:0002134c+ _tmxmove
0002:00021350+ _secondslidefrac
0002:00021354+ _tmy
0002:00021358+ _tmx
0002:0002135c+ _tmflags
0002:00021360+ _tmdropoffz
0002:00021364  _numspechit
0002:00021368+ _tmceilingz
0002:0002136c  _tmfloorz
0002:00021370  _floatok
0002:00021374+ _usethingRef
0002:00021376+ _bombspotRef
0002:00021378+ _bombsourceRef
0002:0002137a+ _shootthingRef
0001:0000f7f0+ PIT_StompThing_
0001:0000f8a0  P_TeleportMove_
0001:0000fa30+ PIT_CheckLine_
0001:0000fba0+ PIT_CheckThing_
0001:0000fe10  P_CheckPosition_
0001:0000ffd0  P_TryMove_
0001:00010190+ P_ThingHeightClip_
0001:00010220+ P_HitSlideLine_
0001:00010330+ PTR_SlideTraverse_
0001:00010430  P_SlideMove_
0001:00010690+ PTR_AimTraverse_
0001:00010880+ PTR_ShootTraverse_
0001:00010b90  P_AimLineAttack_
0001:00010c40  P_LineAttack_
0001:00010cd0+ PTR_UseTraverse_
0001:00010d90  P_UseLines_
0001:00010df0+ PIT_RadiusAttack_
0001:00010ed0  P_RadiusAttack_
0001:00010f70+ PIT_ChangeSector_
0001:00011080  P_ChangeSector_
0002:0002137c+ _slidemoRef
0002:0002137e+ _bestslidelinenum
0002:00021380+ _secondslidelinenum
0002:00021382+ _tmthingRef
0002:00021384  _ceilinglinenum
0002:00021386  _linetargetRef
Module: p_maputl.obj(C:\PCDOOM2\p_maputl.c)
0001:000110f0  P_AproxDistance_
0001:00011120  P_PointOnLineSide_
0001:00011200  P_BoxOnLineSide_
0001:00011360+ P_PointOnDivlineSide_
0001:00011430+ P_MakeDivline_
0001:00011460+ P_InterceptVector_
0001:000114d0  P_LineOpening_
0001:00011580  P_UnsetThingPosition_
0001:000116a0  P_SetThingPosition_
0001:00011810  P_BlockLinesIterator_
0001:000118d0  P_BlockThingsIterator_
0001:00011950+ PIT_AddLineIntercepts_
0001:00011ad0+ PIT_AddThingIntercepts_
0001:00011bc0+ P_TraverseIntercepts_
0001:00011c30  P_PathTraverse_
0002:00021388  _trace
0002:00021398+ _intercepts
0002:00021898+ _ptflags
0002:0002189c+ _earlyout
0002:000218a0+ _intercept_p
0002:000218a4  _opentop
0002:000218a8  _lowfloor
0002:000218ac  _openbottom
0002:000218b0  _openrange
Module: p_plats.obj(C:\PCDOOM2\p_plats.c)
0001:00011e90  T_PlatRaise_
0001:00012040  EV_DoPlat_
0001:00012310+ P_ActivateInStasis_
0001:00012370  EV_StopPlat_
0001:000123d0+ P_AddActivePlat_
0001:00012410+ P_RemoveActivePlat_
0002:000218b4  _activeplats
Module: p_pspr.obj(C:\PCDOOM2\p_pspr.c)
0001:00012480+ P_BringUpWeapon_
0001:000124e0+ P_CheckAmmo_
0001:00012630+ P_FireWeapon_
0001:00012690  P_DropWeapon_
0001:000126c0+ A_WeaponReady_
0001:000127d0  A_ReFire_
0001:00012810* A_CheckReload_
0001:00012820+ A_Lower_
0001:00012870+ A_Raise_
0001:000128b0+ A_GunFlash_
0001:000128f0+ A_Punch_
0001:000129c0+ A_Saw_
0001:00012af0+ A_FireMissile_
0001:00012b30+ A_FireBFG_
0001:00012b70+ A_FirePlasma_
0001:00012bd0+ P_BulletSlope_
0001:00012c50+ P_GunShot_
0001:00012cc0+ A_FirePistol_
0001:00012d50+ A_FireShotgun_
0001:00012de0+ A_FireShotgun2_
0001:00012ed0+ A_FireCGun_
0001:00012f90* A_Light0_
0001:00012fa0* A_Light1_
0001:00012fb0* A_Light2_
0001:00012fc0* A_BFGSpray_
0001:00013090* A_BFGsound_
0001:000130b0  P_SetupPsprites_
0001:000130e0  P_MovePsprites_
0001:000131b0+ P_SetPsprite_
0002:00016274  _weaponinfo
0002:000218f0+ _bulletslope
Module: p_setup.obj(C:\PCDOOM2\p_setup.c)
0002:000218f4  _playerstarts
0002:0002191c  _blocklinks
0002:000228bc  _deathmatchstarts
0002:00022920  _deathmatch_p
0002:00022924  _bmapwidth
0002:00022928  _bmaporgx
0002:0002292c  _bmaporgy
0002:00022930  _bmapheight
0002:00022934  _blockmapOffset
0002:00022938  _numvertexes
0002:0002293c  _numlines
0002:00022940  _numnodes
0002:00022944  _numsectors
0002:00022948  _numsubsectors
0002:0002294c  _numsides
0002:00022950  _numsegs
0002:00022954  _blockmaplumpRef
0002:00022956  _rejectmatrixRef
0002:00022958  _linebufferRef
0002:0002295a  _linesRef
0002:0002295c  _sidesRef
0002:0002295e  _segsRef
0002:00022960  _nodesRef
0001:00013320+ P_LoadVertexes_
0001:000133e0+ P_LoadSegs_
0001:00013570+ P_LoadSubsectors_
0001:00013640+ P_LoadSectors_
0001:00013760+ P_LoadNodes_
0001:00013880+ P_LoadThings_
0001:00013950+ P_LoadLineDefs_
0001:00013b60+ P_LoadSideDefs_
0001:00013d00+ P_LoadBlockMap_
0001:00013da0+ P_GroupLines_
0001:00014070  P_SetupLevel_
0001:00014240  P_Init_
0002:00022962  _sectorsRef
0002:00022964  _vertexesRef
0002:00022966  _subsectorsRef
Module: p_sight.obj(C:\PCDOOM2\p_sight.c)
0001:00014260+ P_DivlineSide_
0001:00014330+ P_InterceptVector2_
0001:000143a0+ P_CrossSubsector_
0001:00014670+ P_CrossBSPNode_
0001:00014760  P_CheckSight_
0002:00022968+ _strace
0002:00022978  _bottomslope
0002:0002297c+ _sightzstart
0002:00022980+ _cachedt2x
0002:00022984+ _cachedt2y
0002:00022988  _topslope
Module: p_spec.obj(C:\PCDOOM2\p_spec.c)
0001:00014860  P_InitPicAnims_
0001:00014960  getSideNum_
0001:000149c0  getSector_
0001:00014a30  twoSided_
0001:00014a90  getNextSector_
0001:00014ae0  P_FindLowestFloorSurrounding_
0001:00014b80  P_FindHighestFloorSurrounding_
0001:00014c30  P_FindNextHighestFloor_
0001:00014d10  P_FindLowestCeilingSurrounding_
0001:00014dc0  P_FindHighestCeilingSurrounding_
0001:00014e60  P_FindSectorFromLineTag_
0001:00014ea0  P_FindMinSurroundingLight_
0001:00015170  P_CrossSpecialLine_
0001:00015850  P_ShootSpecialLine_
0001:00015940  P_PlayerInSpecialSector_
0001:00015ae0  P_UpdateSpecials_
0001:00015cb0  EV_DoDonut_
0001:00015ef0  P_SpawnSpecials_
0002:00016338+ _animdefs
0002:0002298c+ _linespeciallist
0002:00022a0c+ _anims
0002:00022c8c+ _lastanim
0002:00022c90+ _levelTimeCount
0002:00022c94+ _levelTimer
0002:00022c98+ _numlinespecials
Module: p_switch.obj(C:\PCDOOM2\p_switch.c)
0001:00016130  P_InitSwitchList_
0001:000161d0+ P_StartButton_
0001:00016280  P_ChangeSwitchTexture_
0001:000166b0  P_UseSpecialLine_
0002:00016590+ _alphSwitchList
0002:00022c9c+ _switchlist
0002:00022e2c  _buttonlist
0002:00022f8c+ _numswitches
Module: p_mobj.obj(C:\PCDOOM2\p_mobj.c)
0001:00017290+ P_ExplodeMissile_
0001:00017320+ P_XYMovement_
0001:00017690+ P_ZMovement_
0001:00017850+ P_NightmareRespawn_
0001:000179d0  P_MobjThinker_
0001:00017b20  P_SpawnMobj_
0001:00017c70  P_RemoveMobj_
0001:00017d10  P_RespawnSpecials_
0001:00017e60  P_SpawnPlayer_
0001:00017fa0  P_SpawnMapThing_
0001:000181e0  P_SpawnPuff_
0001:00018260  P_SpawnBlood_
0001:000182f0+ P_CheckMissileSpawn_
0001:00018370  P_SpawnMissile_
0001:000184c0  P_SpawnPlayerMissile_
0001:000186d0  P_SetMobjState_
0002:00022f90+ _itemrespawnque
0002:00023490+ _itemrespawntime
0002:00023690  _iquehead
0002:00023694  _iquetail
0002:00023698  _SAVEDUNIT
Module: p_telept.obj(C:\PCDOOM2\p_telept.c)
0001:00018a50  EV_Teleport_
Module: p_saveg.obj(C:\PCDOOM2\p_saveg.c)
0001:00018c10  P_ArchivePlayers_
0001:00018cd0  P_UnArchivePlayers_
0001:00018db0  P_ArchiveWorld_
0001:00018ef0  P_UnArchiveWorld_
0001:00019030  P_ArchiveThinkers_
0001:00019130  P_UnArchiveThinkers_
0001:000192e0  P_ArchiveSpecials_
0001:00019650  P_UnArchiveSpecials_
0002:0002369c+ _specials_e
0002:000236a0  _save_p
Module: p_tick.obj(C:\PCDOOM2\p_tick.c)
0001:00019660  P_InitThinkers_
0001:000196b0+ P_GetNextThinkerRef_
0001:00019710  P_AddThinker_
0001:00019780  P_UpdateThinkerFunc_
0001:000197a0  P_RemoveThinker_
0001:000197e0+ P_RunThinkers_
0001:00019a40  P_Ticker_
0002:000168c8+ _addCount
0002:000236a4  _thinkerlist
0002:000251fc  _leveltime
0002:00025200+ _currentThinkerListHead
Module: p_user.obj(C:\PCDOOM2\p_user.c)
0001:00019ac0+ P_Thrust_
0001:00019b10+ P_CalcHeight_
0001:00019c50+ P_MovePlayer_
0001:00019cf0+ P_DeathThink_
0001:00019e00  P_PlayerThink_
0002:00025204+ _onground
Module: r_bsp.obj(C:\PCDOOM2\r_bsp.c)
0001:0001a050  R_ClearDrawSegs_
0001:0001a060+ R_ClipSolidWallSegment_
0001:0001a160+ R_ClipPassWallSegment_
0001:0001a200  R_ClearClipSegs_
0001:0001a240+ R_AddLine_
0001:0001a460+ R_CheckBBox_
0001:0001a5b0+ R_Subsector_
0001:0001a6f0  R_RenderBSPNode_
0002:000168cc  _setval
0002:000168d0+ _checkcoord
0002:00016990+ _upcount
0002:00025208+ _solidsegs
0002:00025308  _drawsegs
0002:00028108  _ds_p
0002:0002810c+ _newend
0002:00028110  _backsecnum
0002:00028112  _frontsecnum
0002:00028114  _curlinenum
0002:00028116  _linedefOffset
Module: r_data.obj(C:\PCDOOM2\r_data.c)
0002:00028118+ _lastflat
0002:0002811c+ _lastpatch
0002:00028120+ _numpatches
0002:00028124+ _firstpatch
0002:00028128+ _numtextures
0002:0002812c+ _numflats
0002:00028130+ _colormapbytes
0002:00030d2c  _firstflat
0002:00030d30  _firstspritelump
0002:00030d34  _lastspritelump
0002:00030d38  _colormaps
0002:00030d3c+ _numspritelumps
0002:00030d40+ _texturecompositesizeRef
0002:00030d42+ _texturesRef
0002:00030d44+ _texturewidthmaskRef
0002:00030d46+ _texturecompositeRef
0002:00030d48+ _texturecolumnlumpRef
0002:00030d4a+ _texturecolumnofsRef
0002:00030d4c  _spritetopoffsetRef
0001:0001a7a0+ R_DrawColumnInCache_
0001:0001a840+ R_GenerateComposite_
0001:0001aa60+ R_GenerateLookup_
0001:0001ad30  R_GetColumn_
0001:0001adf0+ R_InitTextures_
0001:0001b2f0+ R_InitFlats_
0001:0001b370+ R_InitSpriteLumps_
0001:0001b4e0+ R_InitColormaps_
0001:0001b520  R_InitData_
0001:0001b560  R_FlatNumForName_
0001:0001b5c0  R_CheckTextureNumForName_
0001:0001b620  R_TextureNumForName_
0001:0001b660  R_PrecacheLevel_
0001:0001b970  R_EraseCompositeCache_
0002:00030d4e  _flattranslationRef
0002:00030d50  _spriteoffsetRef
0002:00030d52  _texturetranslationRef
0002:00030d54  _textureheightRef
0002:00030d56  _spritewidthRef
Module: r_draw.obj(C:\PCDOOM2\r_draw.c)
0002:00030d58+ _columnofs
0002:00031258+ _translations
0002:00031558+ _dscount
0002:0003155c+ _viewimage
0002:00031560  _ds_xstep
0002:00031564  _ds_ystep
0002:00031568  _ds_x1
0002:0003156c  _ds_x2
0002:00031570  _ds_yfrac
0002:00031574  _ds_source
0002:00031578  _ds_y
0002:0003157c  _ds_colormap
0002:00031580  _ds_xfrac
0002:00031584  _dc_translation
0002:00031588  _dc_texturemid
0002:0003158c  _dc_iscale
0002:00031590  _dc_source
0002:00031594  _dc_x
0002:00031598  _dc_yh
0002:0003159c  _dc_yl
0002:000315a0  _dc_colormap
0002:000315a4  _viewwindowx
0002:000315a8  _viewwindowy
0002:000315ac  _scaledviewwidth
0002:000315b0  _viewheight
0001:0001b9b0  R_DrawColumn_
0001:0001baa0  R_DrawColumnLow_
0001:0001bb90  R_DrawFuzzColumn_
0001:0001bd20  R_DrawTranslatedColumn_
0001:0001be60  R_InitTranslationTables_
0001:0001bef0  R_DrawSpan_
0001:0001c060  R_DrawSpanLow_
0001:0001c1c0  R_InitBuffer_
0001:0001c210  R_FillBackScreen_
0001:0001c4e0  R_VideoErase_
0001:0001c560  R_DrawViewBorder_
0002:00016994+ _fuzzoffset
0002:00016a5c+ _fuzzpos
0002:000315b4  _viewwidth
0002:000315b8  _ds_sourceRef
0002:000315ba  _translationtablesRef
Module: r_main.obj(C:\PCDOOM2\r_main.c)
0002:000315bc  _scalelight
0002:000321bc  _zlight
0002:000341bc+ _scalelightfixed
0002:0003427c  _viewangletox
0002:0003827c  _setsizeneeded
0002:00038280+ _setdetail
0002:00038284+ _setblocks
0002:00038288+ _transcolfunc
0002:0003828c+ _framecount
0002:00038290  _viewangleoffset
0002:00038294  _detailshift
0002:00038298+ _linecount
0002:0003829c  _extralight
0002:000382a0  _fixedcolormap
0002:000382a4  _projection
0002:000382a8  _centeryfrac
0002:000382ac  _basecolfunc
0002:000382b0  _spanfunc
0002:000382b4  _fuzzcolfunc
0002:000382b8+ _loopcount
0002:000382bc  _colfunc
0002:000382c0  _centerxfrac
0002:000382c4+ _centerx
0001:0001c600  R_PointOnSide_
0001:0001c6c0  R_PointOnSegSide_
0001:0001c7a0+ SlopeDiv_
0001:0001c7d0  R_PointToAngle_
0001:0001c8f0  R_PointToAngle2_
0001:0001c920  R_PointToDist_
0001:0001c980  R_ScaleFromGlobalAngle_
0001:0001ca10+ R_InitTextureMapping_
0001:0001cb30+ R_InitLightTables_
0001:0001cbc0  R_SetViewSize_
0001:0001cbe0  R_ExecuteSetViewSize_
0001:0001ce60  R_Init_
0001:0001cef0  R_PointInSubsector_
0001:0001cf80+ R_SetupFrame_
0001:0001d080  R_RenderPlayerView_
0002:00016a60  _validcount
0002:00016a64  _finecosine
0002:000382c8  _centery
0002:000382cc  _viewsin
0002:000382d0  _viewcos
0002:000382d4  _xtoviewangle
0002:000387d8  _viewplayer
0002:000387dc  _clipangle
0002:000387e0  _viewangle
0002:000387e4  _viewz
0002:000387e8  _viewy
0002:000387ec  _viewx
Module: r_sky.obj(C:\PCDOOM2\r_sky.c)
0001:0001d0e0  R_InitSkyMap_
0002:000387f0  _skytexture
0002:000387f4  _skytexturemid
0002:000387f8  _skyflatnum
Module: r_plane.obj(C:\PCDOOM2\r_plane.c)
0002:000387fc+ _cachedxstep
0002:00038b1c+ _cachedystep
0002:00038e3c+ _cachedheight
0002:0003915c+ _spanstop
0002:0003947c+ _cacheddistance
0002:0003979c+ _spanstart
0002:00039abc+ _openings
0002:00043abc+ _visplanes
0002:000586bc  _floorclip
0002:0005893c  _ceilingclip
0002:00058bbc  _yslope
0002:00058edc  _distscale
0001:0001d100  R_InitPlanes_
0001:0001d110+ R_MapPlane_
0001:0001d290  R_ClearPlanes_
0001:0001d330  R_FindPlane_
0001:0001d3e0  R_CheckPlane_
0001:0001d470+ R_MakeSpans_
0001:0001d500  R_DrawPlanes_
0002:000593dc+ _planeheight
0002:000593e0+ _planezlight
0002:000593e4+ _baseyscale
0002:000593e8+ _basexscale
0002:000593ec+ _ceilingfunc
0002:000593f0+ _lastvisplane
0002:000593f4+ _floorfunc
0002:000593f8  _lastopening
0002:000593fc  _floorplane
0002:00059400  _ceilingplane
Module: r_segs.obj(C:\PCDOOM2\r_segs.c)
0002:00059404+ _bottomstep
0002:00059408+ _bottomfrac
0002:0005940c  _walllights
0002:00059410+ _maskedtexturecol
0002:00059414+ _rw_centerangle
0002:00059418+ _topfrac
0002:0005941c+ _rw_scalestep
0002:00059420+ _rw_toptexturemid
0002:00059424+ _worldtop
0002:00059428+ _rw_bottomtexturemid
0002:0005942c+ _rw_midtexturemid
0002:00059430+ _pixhigh
0002:00059434+ _pixlow
0002:00059438+ _worldbottom
0002:0005943c+ _pixhighstep
0002:00059440+ _midtexture
0002:00059444+ _rw_scale
0002:00059448+ _topstep
0002:0005944c+ _pixlowstep
0002:00059450+ _worldlow
0002:00059454+ _worldhigh
0002:00059458+ _bottomtexture
0001:0001d730  R_RenderMaskedSegRange_
0001:0001da10+ R_RenderSegLoop_
0001:0001ddb0  R_StoreWallRange_
0002:0005945c+ _rw_offset
0002:00059460+ _maskedtexture
0002:00059464+ _toptexture
0002:00059468+ _rw_stopx
0002:0005946c+ _segtextured
0002:00059470+ _markfloor
0002:00059474+ _rw_x
0002:00059478+ _markceiling
0002:0005947c  _rw_normalangle
0002:00059480  _rw_distance
0002:00059484  _rw_angle1
Module: r_things.obj(C:\PCDOOM2\r_things.c)
0002:00059488  _negonearray
0002:00059708  _screenheightarray
0002:00059988+ _vissprites
0002:0005b788+ _newvissprite
0002:0005b78c+ _overflowsprite
0002:0005b7c8+ _maxframe
0002:0005b7cc+ _spritelights
0002:0005b7d0+ _spritename
0002:0005b7d4+ _sprtemp
0002:0005bb00  _mfloorclip
0002:0005bb04  _mceilingclip
0001:0001e790+ R_InstallSpriteLump_
0001:0001e8e0+ R_InitSpriteDefs_
0001:0001eb00  R_InitSprites_
0001:0001eb40  R_ClearSprites_
0001:0001eb50+ R_NewVisSprite_
0001:0001eb80  R_DrawMaskedColumn_
0001:0001ec50+ R_DrawVisSprite_
0001:0001ed70+ R_ProjectSprite_
0001:0001f080  R_AddSprites_
0001:0001f170+ R_DrawPSprite_
0001:0001f3a0+ R_DrawPlayerSprites_
0001:0001f460+ R_SortVisSprites_
0001:0001f540+ R_DrawSprite_
0001:0001f760  R_DrawMasked_
0002:0005bb08  _pspritescale
0002:0005bb0c  _sprtopscreen
0002:0005bb10+ _vissprite_p
0002:0005bb14+ _vsprsortedhead
0002:0005bb50  _pspriteiscale
0002:0005bb54  _spryscale
0002:0005bb58  _numsprites
0002:0005bb5c  _spritesRef
Module: w_wad.obj(C:\PCDOOM2\w_wad.c)
0001:0001f7d0+ ExtractFileBase_
0001:0001f850+ W_AddFile_
0001:0001fa30  W_Reload_
0001:0001fb30  W_InitMultipleFiles_
0001:0001fbb0  W_CheckNumForName_
0001:0001fc20  W_GetNumForName_
0001:0001fc50  W_LumpLength_
0001:0001fc80+ W_ReadLumpEMS_
0001:0001fd50  W_ReadLump_
0001:0001fe10  W_CacheLumpNumCheck_
0001:0001fe50  W_CacheLumpNumEMS_
0001:0001fef0  W_CacheLumpNameEMS_
0001:0001ff10  W_CacheLumpNameEMSAsPatch_
0001:0001ff30  W_EraseLumpCache_
0002:0005bb60+ _reloadname
0002:0005bb64+ _reloadlump
0002:0005bb68+ _lumpcacheEMS
0002:0005bb6c  _lumpinfo
0002:0005bb70+ _numlumps
Module: v_video.obj(C:\PCDOOM2\v_video.c)
0001:0001ff50  V_MarkRect_
0001:0001ff90  V_CopyRect_
0001:00020080  V_DrawPatch_
0001:000201b0  V_DrawPatchFlipped_
0001:000202e0  V_DrawPatchDirect_
0001:00020400  V_DrawBlock_
0001:000204b0  V_Init_
0002:00016a68  _gammatable
0002:0005bb74  _dirtybox
0002:0005bb84  _usegamma
0002:0005bb88  _screens
0002:0005bb9c  _screen4Ref
Module: z_zone.obj(C:\PCDOOM2\z_zone.c)
0002:0005bba0+ _allocations
0002:0006bba0+ _activepages
0002:0006bba8+ _pageevictorder
0002:00016f68+ _currentListHead
0001:000204e0  Z_ChangeTagEMSNew_
0001:00020540  Z_InitEMS_
0001:00020650  Z_FreeEMSNew_
0001:00020810  Z_FreeTagsEMS_
0001:00020890+ Z_MarkPageLRU_
0001:00020920  Z_RefIsActive2_
0001:00020a10+ Z_MarkPageMRU_
0001:00020aa0+ Z_DoPageOut_
0001:00020b70+ Z_DoPageIn_
0001:00020c10+ Z_PageOutIfInMemory_
0001:00020c80+ Z_GetEMSPageFrame_
0001:00020e00  Z_LoadBytesFromEMS2_
0001:00020e90+ Z_GetNextFreeArrayIndex_
0001:00020f00  Z_MallocEMSNew_
0001:00020f20  Z_MallocEMSNewWithBackRef_
0001:000212d0* GetBlockAddress_
0002:00016f78  _numreads
0002:00016f7c  _pageins
0002:00016f80  _pageouts
0002:00016f84+ _actualpageins
0002:00016f88+ _actualpageouts
0002:0006bbb0+ _mainzoneEMS
0002:0006bbb4+ _pagesize
0002:0006bbb8+ _copyPageArea
Module: st_stuff.obj(C:\PCDOOM2\st_stuff.c)
0002:00016fa0+ _cheat_mus_seq
0002:00016fa9+ _cheat_choppers_seq
0002:00016fb4+ _cheat_god_seq
0002:00016fba+ _cheat_ammo_seq
0002:00016fc0+ _cheat_ammonokey_seq
0002:00016fc5+ _cheat_noclip_seq
0002:00016fd0+ _cheat_commercial_noclip_seq
0002:00016fd7+ _cheat_powerup_seq
0002:0001701d+ _cheat_clev_seq
0002:00017027+ _cheat_mypos_seq
0002:0001702f+ _cheat_mus
0002:00017037+ _cheat_god
0002:0001703f+ _cheat_ammo
0002:00017047+ _cheat_ammonokey
0002:0001704f+ _cheat_noclip
0002:00017057+ _cheat_commercial_noclip
0002:0001705f+ _cheat_powerup
0002:00017097+ _cheat_choppers
0002:0001709f+ _cheat_clev
0002:000170a7+ _cheat_mypos
0001:00021300+ ST_refreshBackground_
0001:00021380  ST_Responder_
0001:00021860+ ST_calcPainOffset_
0001:000218c0+ ST_updateFaceWidget_
0001:00021bc0+ ST_updateWidgets_
0001:00021d10  ST_Ticker_
0001:00021d40+ ST_doPaletteStuff_
0001:00021e10+ ST_drawWidgets_
0001:00021f10* ST_doRefresh_
0001:00021f30* ST_diffDraw_
0001:00021f40  ST_Drawer_
0001:00021fd0+ ST_loadGraphics_
0001:00022260+ ST_loadData_
0001:00022280+ ST_unloadGraphics_
0001:00022370* ST_unloadData_
0001:00022380+ ST_initData_
0001:00022440+ ST_createWidgets_
0001:00022790  ST_Start_
0001:000227c0+ ST_Stop_
0001:00022800  ST_Init_
Module: st_lib.obj(C:\PCDOOM2\st_lib.c)
0001:00022840  STlib_init_
0001:00022860  STlib_initNum_
0001:00022890+ STlib_drawNum_
0001:00022a10  STlib_updateNum_
0001:00022a30  STlib_initPercent_
0001:00022a60  STlib_updatePercent_
0001:00022ab0  STlib_initMultIcon_
0001:00022ae0  STlib_updateMultIcon_
0001:00022bc0  STlib_initBinIcon_
0001:00022bf0  STlib_updateBinIcon_
0002:0006bfc0+ _sttminusRef
Module: hu_stuff.obj(C:\PCDOOM2\hu_stuff.c)
0002:0006c200+ _shiftxform
0002:0006c20c  _message_dontfuckwithme
0002:0006c3e8  _chat_on
0002:0006c3ec  _hu_fontRef
0002:000170c8  _chat_macros
0002:000170f0  _player_names
0002:00017104+ _mapnames
0002:000171b8+ _mapnames2
0002:00017238+ _frenchKeyMap
0001:00022cb0* ForeignTranslation_
0001:00022cd0  HU_Init_
0001:00022d40  HU_Start_
0001:00022e60  HU_Drawer_
0001:00022e90  HU_Erase_
0001:00022ec0  HU_Ticker_
0001:000230b0+ HU_queueChatChar_
0001:000230f0  HU_dequeueChatChar_
0001:00023120  HU_Responder_
0002:00004d88+ _french_shiftxform
0002:00004e08+ _english_shiftxform
0002:0006c548+ _chat_char
Module: hu_lib.obj(C:\PCDOOM2\hu_lib.c)
0001:00023460+ HUlib_clearTextLine_
0001:00023480  HUlib_initTextLine_
0001:000234a0  HUlib_addCharToTextLine_
0001:000234e0+ HUlib_delCharFromTextLine_
0001:00023510  HUlib_drawTextLine_
0001:000235e0  HUlib_eraseTextLine_
0001:000236a0  HUlib_initSText_
0001:00023720+ HUlib_addLineToSText_
0001:00023770  HUlib_addMessageToSText_
0001:000237c0  HUlib_drawSText_
0001:00023810  HUlib_eraseSText_
0001:00023860  HUlib_initIText_
0001:00023890+ HUlib_delCharFromIText_
0001:000238b0* HUlib_eraseLineFromIText_
0001:000238d0  HUlib_resetIText_
0001:000238f0* HUlib_addPrefixToIText_
0001:00023920  HUlib_keyInIText_
0001:00023960  HUlib_drawIText_
0001:00023980  HUlib_eraseIText_
Module: wi_stuff.obj(C:\PCDOOM2\wi_stuff.c)
0002:0006c6a4+ _lnamesRef
0001:000239b0+ WI_slamBackground_
0001:00023a00+ WI_drawLF_
0001:00023a30+ WI_drawEL_
0001:00023ac0+ WI_drawOnLnode_
0001:00023bd0+ WI_initAnimatedBack_
0001:00023c60+ WI_updateAnimatedBack_
0001:00023d70+ WI_drawAnimatedBack_
0001:00023de0+ WI_drawNum_
0001:00023ec0+ WI_drawPercent_
0001:00023f10+ WI_drawTime_
0001:00023fe0* WI_End_
0001:00023ff0* WI_initNoState_
0001:00024020+ WI_updateNoState_
0001:00024050* WI_initShowNextLoc_
0001:00024080+ WI_updateShowNextLoc_
0001:000240e0+ WI_drawShowNextLoc_
0001:00024180* WI_drawNoState_
0001:000241a0+ WI_fragSum_
0001:00024210+ WI_initDeathmatchStats_
0001:00024290+ WI_updateDeathmatchStats_
0001:00024520+ WI_drawDeathmatchStats_
0001:00024730+ WI_initNetgameStats_
0001:000247c0+ WI_updateNetgameStats_
0001:00024b70+ WI_drawNetgameStats_
0001:00024d90+ WI_initStats_
0001:00024de0+ WI_updateStats_
0001:00025150+ WI_drawStats_
0001:00025290+ WI_checkForAccelerate_
0001:00025320  WI_Ticker_
0001:000253b0+ WI_loadData_
0001:00025800+ WI_unloadData_
0001:00025a60  WI_Drawer_
0001:00025ab0+ WI_initVariables_
0001:00025c50  WI_Start_
Module: s_sound.obj(C:\PCDOOM2\s_sound.c)
0002:0006c6c4  _numChannels
0001:00025cc0  S_SetMusicVolume_
0001:00025d00+ S_StopMusic_
0001:00025d50  S_ChangeMusic_
0001:00025df0  S_StartMusic_
0001:00025e10+ S_StopChannel_
0001:00025e70+ S_AdjustSoundParams_
0001:00025fa0  S_SetSfxVolume_
0001:00025fd0  S_PauseSound_
0001:00025ff0  S_ResumeSound_
0001:00026010  S_StopSound_
0001:00026050+ S_getChannel_
0001:000260f0+ S_StartSoundAtVolume_
0001:000262f0  S_StartSoundFromRef_
0001:00026340  S_StartSound_
0001:00026380  S_StartSoundWithParams_
0001:000263a0  S_UpdateSounds_
0001:000264e0  S_Init_
0001:00026580  S_Start_
Module: sounds.obj(C:\PCDOOM2\sounds.c)
0002:000178b0  _S_music
0002:00017cf0  _S_sfx
Module: dutils.obj(C:\PCDOOM2\dutils.c)
0001:00026630  cht_CheckCheat_
0001:00026720  cht_GetParam_
Module: f_wipe.obj(C:\PCDOOM2\f_wipe.c)
0001:00026750+ wipe_shittyColMajorXform_
0001:00026800+ wipe_initColorXForm_
0001:00026830+ wipe_doColorXForm_
0001:000268b0+ wipe_exitColorXForm_
0001:000268c0+ wipe_initMelt_
0001:000269a0+ wipe_doMelt_
0001:00026b30+ wipe_exitMelt_
0001:00026b50  wipe_StartScreen_
0001:00026b70  wipe_EndScreen_
0001:00026ba0  wipe_ScreenWipe_
Module: info.obj(C:\PCDOOM2\info.c)
0002:00018c64  _sprnames
0002:00018e8c  _states
0002:0001a536  _mobjinfo
Module: dmx.obj(C:\PCDOOM2\dmx.c)
0001:00026c30+ tsm_funch_
0001:00026c40  TSM_NewService_
0001:00026c70  TSM_DelService_
0001:00026c90  TSM_Remove_
0002:0001bee8+ _tsm_task
0002:0001beec+ _dmx_mus_port
0002:0006c7e8+ _tsm_func
Module: usrhooks.obj(C:\PCDOOM2\usrhooks.c)
0001:00026ca0  USRHOOKS_GetMem_
0001:00026cd0  USRHOOKS_FreeMem_
Module: C:\WATCOM\lib386\dos\clib3r.lib(cstart)
0001:00000003  ___begtext
0002:00000000* __nullarea
0002:0001bef0* __D16Infoseg
0002:0001bef2  __x386_zero_base_selector
0001:00026ce8  _cstart_
0001:00026f36  __exit_
0001:00026f38  __do_exit_with_msg__
0001:00026f80  __GETDS
0001:00026f80  ___GETDSStart_
0001:00026f8b  ___GETDSEnd_
Module: C:\WATCOM\lib386\dos\clib3r.lib(argcv.c)
0002:0006c7ec  __argc
0002:0006c7f0  __argv
0002:0006c7f4  ___argc
0002:0006c7f8  ___argv
Module: C:\WATCOM\lib386\dos\clib3r.lib(int386.c)
0001:00026f90  int386_
Module: C:\WATCOM\lib386\dos\clib3r.lib(memset.c)
0001:00026fb0  memset_
Module: C:\WATCOM\lib386\dos\clib3r.lib(d_getvec.c)
0001:00026fd0  _dos_getvect_
Module: C:\WATCOM\lib386\dos\clib3r.lib(d_setvec.c)
0001:00027010  _dos_setvect_
Module: C:\WATCOM\lib386\dos\clib3r.lib(printf.c)
0001:00027040  printf_
Module: C:\WATCOM\lib386\dos\clib3r.lib(___argc.c)
0002:0006c7fc  ____Argc
0002:0006c800  ____Argv
Module: audio_wf.lib(D:\PRG\AUDIO\source\dpmi.c)
0001:00027070* DPMI_GetRealModeVector_
0001:000270b4* DPMI_SetRealModeVector_
0001:000270f0* DPMI_CallRealModeFunction_
0001:00027154  DPMI_LockMemoryRegion_
0001:00027158  DPMI_LockMemory_
0001:000271b0  DPMI_UnlockMemoryRegion_
0001:000271b4  DPMI_UnlockMemory_
Module: C:\WATCOM\lib386\dos\clib3r.lib(atoi.c)
0001:00027210  atoi_
Module: C:\WATCOM\lib386\dos\clib3r.lib(vprintf.c)
0001:00027260  vprintf_
Module: C:\WATCOM\lib386\dos\clib3r.lib(exit.c)
0001:00027271+ __null_int23_exit_
0001:00027272  exit_
0001:0002729e* _exit_
0002:0001bef4+ ___int23_exit
0002:0001bef8+ ___FPE_handler_exit
Module: C:\WATCOM\lib386\dos\clib3r.lib(segread.c)
0001:000272c0  segread_
Module: C:\WATCOM\lib386\dos\clib3r.lib(intx386.c)
0001:000272f0  int386x_
Module: C:\WATCOM\lib386\dos\clib3r.lib(nmalloc.c)
0001:00027310  _nmalloc_
0001:00027310  malloc_
0002:0001befc  ___nheapbeg
0002:0001bf00  ___MiniHeapRover
0002:0001bf04  ___LargestSizeB4MiniHeapRover
Module: C:\WATCOM\lib386\dos\clib3r.lib(sprintf.c)
0001:00027410  sprintf_
Module: C:\WATCOM\lib386\dos\clib3r.lib(toupper.c)
0001:00027440  toupper_
Module: C:\WATCOM\lib386\dos\clib3r.lib(fopen.c)
0001:00027450+ __open_flags_
0001:00027650+ _fsopen_
0001:000276a0  fopen_
0001:00027720* freopen_
Module: C:\WATCOM\lib386\dos\clib3r.lib(accss.c)
0001:00027780  access_
Module: C:\WATCOM\lib386\dos\clib3r.lib(fseek.c)
0001:00027810  fseek_
Module: C:\WATCOM\lib386\dos\clib3r.lib(ftell.c)
0001:00027910  ftell_
Module: C:\WATCOM\lib386\dos\clib3r.lib(fread.c)
0001:00027960  fread_
Module: C:\WATCOM\lib386\dos\clib3r.lib(fclose.c)
0001:00027b30  __doclose_
0001:00027bb0  __shutdown_stream_
0001:00027bd0  fclose_
0002:0006c82c+ ___RmTmpFileFn
Module: C:\WATCOM\lib386\dos\clib3r.lib(iob.c)
0002:0001bf08  ___iob
0002:0001c110  __fmode
0002:0006c830  ___OpenStreams
0002:0006c834  ___ClosedStreams
Module: C:\WATCOM\lib386\dos\clib3r.lib(setbuf.c)
0001:00027c00  setbuf_
Module: C:\WATCOM\lib386\dos\clib3r.lib(mkdir.c)
0001:00027c20  mkdir_
Module: C:\WATCOM\lib386\dos\clib3r.lib(fgetc.c)
0001:00027c40  __fill_buffer_
0001:00027d40  fgetc_
Module: C:\WATCOM\lib386\dos\clib3r.lib(fprintf.c)
0001:00027de0  fprintf_
Module: C:\WATCOM\lib386\dos\clib3r.lib(_strcmp)
0001:00027e10  strcmp_
Module: C:\WATCOM\lib386\dos\clib3r.lib(open.c)
0001:00028190  open_
0001:000281b0  sopen_
Module: C:\WATCOM\lib386\dos\clib3r.lib(read.c)
0001:000281e0  read_
Module: C:\WATCOM\lib386\dos\clib3r.lib(close.c)
0001:00028310  close_
Module: C:\WATCOM\lib386\dos\clib3r.lib(strncpy.c)
0001:00028320  strncpy_
Module: C:\WATCOM\lib386\dos\clib3r.lib(_istrcc_.asm)
0001:00028358  strcasecmp_
Module: C:\WATCOM\lib386\dos\clib3r.lib(write.c)
0001:00028470  write_
Module: C:\WATCOM\lib386\dos\clib3r.lib(fstat.c)
0001:000286b0  fstat_
Module: C:\WATCOM\lib386\dos\clib3r.lib(fscanf.c)
0001:00028840+ vfscanf_
0001:00028890  fscanf_
Module: C:\WATCOM\lib386\dos\clib3r.lib(sscanf.c)
0001:00028900+ vsscanf_
0001:00028930  sscanf_
Module: C:\WATCOM\lib386\dos\clib3r.lib(stack386.c)
0001:00028960  stackavail_
Module: C:\WATCOM\lib386\dos\clib3r.lib(stk)
0001:00028987* __STK
0001:00028974* __CHK
0001:00028984  __GRO
0001:000289a5  __STKOVERFLOW_
Module: C:\WATCOM\lib386\dos\clib3r.lib(_istrncc.asm)
0001:000289b4  strncasecmp_
Module: C:\WATCOM\lib386\dos\clib3r.lib(_istrcmp.asm)
0001:000289bc  strcmpi_
Module: C:\WATCOM\lib386\dos\clib3r.lib(filelen.c)
0001:000289d0  filelength_
Module: C:\WATCOM\lib386\dos\clib3r.lib(strncmp.c)
0001:00028a20  strncmp_
Module: C:\WATCOM\lib386\dos\clib3r.lib(lseek.c)
0001:00028a50  lseek_
Module: C:\WATCOM\lib386\dos\clib3r.lib(nrealloc.c)
0001:00028a80* _nrealloc_
0001:00028a80  realloc_
Module: C:\WATCOM\lib386\dos\clib3r.lib(strupr.c)
0001:00028b20  strupr_
Module: audio_wf.lib(D:\PRG\AUDIO\source\task_man.c)
0001:00028d54  TS_Shutdown_
0001:00028dc4  TS_ScheduleTask_
0001:00028ecc  TS_Terminate_
0001:00028f3c  TS_Dispatch_
0001:00028f78* TS_SetTaskRate_
0001:00028fb4+ TS_UnlockMemory_
0001:00029014+ TS_LockMemory_
0002:0001c138+ _TS_InInterrupt
Module: C:\WATCOM\lib386\dos\clib3r.lib(nfree.c)
0001:00029090  _nfree_
0001:00029090  free_
0002:0006c86c  ___MiniHeapFreeRover
Module: C:\WATCOM\lib386\dos\clib3r.lib(cmain386.c)
0001:00029190  __CMain
Module: C:\WATCOM\lib386\dos\clib3r.lib(initrtns.c)
0001:000291e0  __InitRtns
0001:00029230  __FiniRtns
Module: C:\WATCOM\lib386\dos\clib3r.lib(dosseg)
0000:00001234  __DOSseg__
Module: C:\WATCOM\lib386\dos\clib3r.lib(crwdata)
0002:0001c177  __osmajor
0002:0001c178  __osminor
0002:0001c14c  __psp
0002:0001c16e  __Extender
0002:0001c16f  __ExtenderSubtype
0002:0001c170  __X32VM
0002:0001c150* __x386_stacklow
0002:0001c144  __LpCmdLine
0002:0001c148  __LpPgmName
0002:0001c13c  __dynend
0002:0001c140  __curbrk
0002:0001c150  __STACKLOW
0002:0001c154  __STACKTOP
0002:0001c158  __ASTACKSIZ
0002:0001c15c  __ASTACKPTR
0002:0001c160  __cbyte
0002:0001c164* __cbyte2
0002:0001c168  __child
0002:0001c171  __Envptr
0002:0001c175  __Envseg
0002:0001c16c  __no87
0002:0001c179  ___FPE_handler
Module: C:\WATCOM\lib386\dos\clib3r.lib(uselfn.c)
0002:0001c180  ___uselfn
Module: C:\WATCOM\lib386\dos\clib3r.lib(initargv.c)
0001:00029290  __Init_Argv_
0001:000292e0+ _getargv_
0001:00029480  __Fini_Argv_
Module: C:\WATCOM\lib386\dos\clib3r.lib(__stos)
0001:00029490  __STOSB
0001:000294c7* __STOSD
Module: C:\WATCOM\lib386\dos\clib3r.lib(fprtf.c)
0001:00029560  __fprtf_
Module: C:\WATCOM\lib386\dos\clib3r.lib(istable.c)
0002:00004e88  __IsTable
Module: C:\WATCOM\lib386\dos\clib3r.lib(int386xa)
0001:00029600  __int386x_
0001:0002965c* _DoINTR_
Module: C:\WATCOM\lib386\dos\clib3r.lib(nmemneed.c)
0001:000299e0  __nmemneed_
Module: C:\WATCOM\lib386\dos\clib3r.lib(mem.c)
0001:000299f0  __MemAllocator
0001:00029aa0  __MemFree
Module: C:\WATCOM\lib386\dos\clib3r.lib(grownear.c)
0001:00029c60+ __FreeDPMIBlocks_
0001:00029cd0  __ReAllocDPMIBlock_
0001:00029e60+ __LastFree_
0001:0002a0d0  __ExpandDGROUP_
Module: C:\WATCOM\lib386\dos\clib3r.lib(vsprintf.c)
0001:0002a240  vsprintf_
Module: C:\WATCOM\lib386\dos\clib3r.lib(comtflag.c)
0001:0002a260* __set_commode_
0002:0001c184  __commode
Module: C:\WATCOM\lib386\dos\clib3r.lib(seterrno.c)
0001:0002a26b  __set_errno_
0001:0002a277* __set_EDOM_
0001:0002a283* __set_ERANGE_
0001:0002a28f* __set_EINVAL_
0001:0002a2a0  __set_doserrno_
Module: C:\WATCOM\lib386\dos\clib3r.lib(tolower.c)
0001:0002a2b0  tolower_
Module: C:\WATCOM\lib386\dos\clib3r.lib(chktty.c)
0001:0002a2c0  __chktty_
Module: C:\WATCOM\lib386\dos\clib3r.lib(freefp.c)
0001:0002a300  __freefp_
0001:0002a340  __purgefp_
Module: C:\WATCOM\lib386\dos\clib3r.lib(allocfp.c)
0001:0002a370  __allocfp_
Module: C:\WATCOM\lib386\dos\clib3r.lib(gfattdos.c)
0001:0002a430  _dos_getfileattr_
Module: C:\WATCOM\lib386\dos\clib3r.lib(dosret.c)
0001:0002a450  _dosretax_
0001:0002a460* _dosret0_
0001:0002a470  __set_errno_dos_
0001:0002a4f0* __set_errno_dos_reterr_
Module: C:\WATCOM\lib386\dos\clib3r.lib(flush.c)
0001:0002a500  __flush_
Module: C:\WATCOM\lib386\dos\clib3r.lib(tell.c)
0001:0002a5f0  tell_
Module: C:\WATCOM\lib386\dos\clib3r.lib(fflush.c)
0001:0002a610  fflush_
Module: C:\WATCOM\lib386\dos\clib3r.lib(qread.c)
0001:0002a620  __qread_
Module: C:\WATCOM\lib386\dos\clib3r.lib(ioalloc.c)
0001:0002a650  __ioalloc_
Module: C:\WATCOM\lib386\dos\clib3r.lib(__lseek.c)
0001:0002a6f0  __lseek_
Module: C:\WATCOM\lib386\dos\clib3r.lib(_clse.c)
0001:0002a740  __close_
Module: C:\WATCOM\lib386\dos\clib3r.lib(initfile.c)
0001:0002a790  __InitFiles_
Module: C:\WATCOM\lib386\dos\clib3r.lib(ioexit.c)
0001:0002a890* fcloseall_
0001:0002a8a0  __full_io_exit_
Module: C:\WATCOM\lib386\dos\clib3r.lib(setvbuf.c)
0001:0002a8b0  setvbuf_
Module: C:\WATCOM\lib386\dos\clib3r.lib(doserror)
0001:0002a918  __doserror_
Module: C:\WATCOM\lib386\dos\clib3r.lib(flushall.c)
0001:0002a930  __flushall_
0001:0002a970  flushall_
Module: C:\WATCOM\lib386\dos\clib3r.lib(gtche.c)
0001:0002a980  getche_
Module: C:\WATCOM\lib386\dos\clib3r.lib(opendos.c)
0001:0002a9a0  _dos_open_
Module: C:\WATCOM\lib386\dos\clib3r.lib(iomode.c)
0001:0002a9c0  __GetIOMode_
0001:0002a9e0  __SetIOMode_nogrow_
0002:0001c19c  ___NFiles
0002:0001c1a0  ___init_mode
0002:0001c1f0  ___io_mode
Module: C:\WATCOM\lib386\dos\clib3r.lib(isatt.c)
0001:0002aa00  isatty_
Module: C:\WATCOM\lib386\dos\clib3r.lib(errno.c)
0001:0002aa20  __get_errno_ptr_
0001:0002aa30  __get_doserrno_ptr_
0002:0006c874+ _errno
0002:0006c878+ __doserrno
Module: C:\WATCOM\lib386\dos\clib3r.lib(umaskval.c)
0002:0001c1f4  ___umaskval
Module: C:\WATCOM\lib386\dos\clib3r.lib(creatdos.c)
0001:0002aa40  _dos_creat_
0001:0002aa60* _dos_creatnew_
Module: C:\WATCOM\lib386\dos\clib3r.lib(stiomode.c)
0001:0002aa80+ __grow_iomode_
0001:0002ab40+ __shrink_iomode_
0001:0002ab70  __SetIOMode_
Module: C:\WATCOM\lib386\dos\clib3r.lib(iomodtty.c)
0001:0002abe0  __ChkTTYIOMode_
0001:0002ac20* __IOMode_
Module: C:\WATCOM\lib386\dos\clib3r.lib(stricmp.c)
0001:0002ac40  stricmp_
Module: C:\WATCOM\lib386\dos\clib3r.lib(d2ttime.c)
0001:0002ac80  _d2ttime_
Module: C:\WATCOM\lib386\dos\clib3r.lib(ungetc.c)
0001:0002ad00  ungetc_
Module: C:\WATCOM\lib386\dos\clib3r.lib(scnf.c)
0001:0002bae0  __scnf_
Module: C:\WATCOM\lib386\dos\clib3r.lib(xmsg.c)
0001:0002bd50* __exit_with_msg_
0001:0002bd60  __fatal_runtime_error_
Module: C:\WATCOM\lib386\dos\clib3r.lib(strnicmp.c)
0001:0002bd80  strnicmp_
Module: C:\WATCOM\lib386\dos\clib3r.lib(nmsize.c)
0001:0002bdd0  _nmsize_
0001:0002bdd0* _msize_
Module: C:\WATCOM\lib386\dos\clib3r.lib(nexpand.c)
0001:0002bde0  _nexpand_
0001:0002bde0* _expand_
0001:0002be50+ __HeapManager_expand_
Module: C:\WATCOM\lib386\dos\clib3r.lib(chainint)
0001:0002c020  _chain_intr_
Module: C:\WATCOM\lib386\dos\clib3r.lib(cinit.c)
0001:0002c050  __CommonInit_
Module: C:\WATCOM\lib386\dos\clib3r.lib(sgdef086)
0002:0001c3c0  __Start_XI
0002:0001c3e4  __End_XI
0002:0001c3e4  __Start_YI
0002:0001c402  __End_YI
Module: C:\WATCOM\lib386\dos\clib3r.lib(histsplt.c)
0002:0006c880  ___historical_splitparms
Module: C:\WATCOM\lib386\dos\clib3r.lib(fputc.c)
0001:0002c0b0  fputc_
Module: C:\WATCOM\lib386\dos\clib3r.lib(prtf.c)
0001:0002c170  __prtf_
Module: C:\WATCOM\lib386\dos\clib3r.lib(heapen.c)
0001:0002cfe0* _heapenable_
0002:0001c1f8  ___heap_enabled
Module: C:\WATCOM\lib386\dos\clib3r.lib(minreal.c)
0002:0006c884  ___minreal
Module: C:\WATCOM\lib386\dos\clib3r.lib(amblksiz.c)
0002:0001c1fc  __amblksiz
Module: C:\WATCOM\lib386\dos\clib3r.lib(sbrk386.c)
0001:0002cff0* sbrk_
0001:0002d0d0  __brk_
Module: C:\WATCOM\lib386\dos\clib3r.lib(qwrit.c)
0001:0002d1f0  __qwrite_
Module: C:\WATCOM\lib386\dos\clib3r.lib(fsync.c)
0001:0002d270  fsync_
Module: C:\WATCOM\lib386\dos\clib3r.lib(mktime.c)
0001:0002d280  mktime_
Module: C:\WATCOM\lib386\dos\clib3r.lib(mbisdbcs.c)
0002:0006c888  ___IsDBCS
Module: C:\WATCOM\lib386\dos\clib3r.lib(mbislead.c)
0001:0002d310* _ismbblead_
0002:0006c88c  ___MBCSIsTable
Module: C:\WATCOM\lib386\dos\clib3r.lib(mbtowc.c)
0001:0002d330  mbtowc_
Module: C:\WATCOM\lib386\dos\clib3r.lib(bits.c)
0002:00004f8c  __Bits
Module: C:\WATCOM\lib386\dos\clib3r.lib(noefgfmt.c)
0002:0001c200  ___EFG_printf
0002:0001c204  ___EFG_scanf
Module: C:\WATCOM\lib386\dos\clib3r.lib(fdfs386)
0001:0002d404  __FDFS
Module: C:\WATCOM\lib386\dos\clib3r.lib(i8m)
0001:0002d450* __I8M
0001:0002d450  __U8M
Module: C:\WATCOM\lib386\dos\clib3r.lib(enterdb.c)
0001:0002d470  __EnterWVIDEO_
0002:0001c208+ ___WD_Present
Module: C:\WATCOM\lib386\dos\clib3r.lib(dpmihost.c)
0001:0002d4a0  __DPMI_hosted_
Module: C:\WATCOM\lib386\dos\clib3r.lib(wctomb.c)
0001:0002d540  wctomb_
Module: C:\WATCOM\lib386\dos\clib3r.lib(itoa.c)
0001:0002d570+ utoa_
0001:0002d5c0  itoa_
Module: C:\WATCOM\lib386\dos\clib3r.lib(lltoa.c)
0001:0002d5f0  ulltoa_
0001:0002d660* lltoa_
Module: C:\WATCOM\lib386\dos\clib3r.lib(ltoa.c)
0001:0002d690  ultoa_
0001:0002d6e0* ltoa_
Module: C:\WATCOM\lib386\dos\clib3r.lib(filedos.c)
0001:0002d710* _dos_close_
0001:0002d720  _dos_commit_
Module: C:\WATCOM\lib386\dos\clib3r.lib(locmktim.c)
0001:0002d730  __local_mktime_
Module: C:\WATCOM\lib386\dos\clib3r.lib(gmtime.c)
0001:0002d8b0  __brktime_
0001:0002d9b0+ _gmtime_
0001:0002d9d0* gmtime_
Module: C:\WATCOM\lib386\dos\clib3r.lib(tzset.c)
0002:0001c210  ___start_dst
0002:0001c234  ___end_dst
0002:0001c35c* _tzname
0002:0001c364  _timezone
0002:0001c368  _daylight
0002:0001c36c  ___dst_adjust
0001:0002d9e0* __DontCacheOSTZ_
0001:0002d9f0* __CacheOSTZ_
0001:0002df00+ __parse_tz_
0001:0002e130  tzset_
Module: C:\WATCOM\lib386\dos\clib3r.lib(timeutil.c)
0001:0002e2a0  __isindst_
Module: C:\WATCOM\lib386\dos\clib3r.lib(mbinit.c)
0001:0002e60a  __mbinit_
0001:0002e6db+ dos_get_dbcs_lead_table_
0001:0002e7cf+ dos_get_code_page_
0002:0001c3bc  ___MBCodePage
Module: C:\WATCOM\lib386\dos\clib3r.lib(alphabet.c)
0002:00004cd0  ___Alphabet
Module: C:\WATCOM\lib386\dos\clib3r.lib(leapyear.c)
0001:0002e970  __leapyear_
0002:00004cf8  ___diyr
0002:00004d12  ___dilyr
Module: C:\WATCOM\lib386\dos\clib3r.lib(getenv.c)
0001:0002e9b0  getenv_
Module: C:\WATCOM\lib386\dos\clib3r.lib(intdx386.c)
0001:0002ea40  intdosx_
Module: C:\WATCOM\lib386\dos\clib3r.lib(inirmsel.c)
0002:0006c9b4  __ExtenderRealModeSelector
Module: C:\WATCOM\lib386\dos\clib3r.lib(environ.c)
0002:0006c9b8  ___env_mask
0002:0006c9bc  _environ
0002:0006c9c0* __wenviron
Module: C:\WATCOM\lib386\dos\clib3r.lib(mbterm.c)
0001:0002ebc0  _mbterm_
Module: C:\WATCOM\lib386\dos\clib3r.lib(mbsnextc.c)
0001:0002ec00  _mbsnextc_
Module: C:\WATCOM\lib386\dos\clib3r.lib(mbcupper.c)
0001:0002ec40  _mbctoupper_
Module: C:\WATCOM\lib386\dos\clib3r.lib(mbsinc.c)
0001:0002ec60  _mbsinc_
Module: C:\WATCOM\lib386\dos\clib3r.lib(setenvp.c)
0001:0002ec90  __setenvp_
0001:0002ed70  __freeenvp_
Module: C:\WATCOM\lib386\dos\clib3r.lib(mbdtoupp.c)
0001:0002edc0  _mbdtoupper_
Module: C:\WATCOM\lib386\dos\clib3r.lib(clearenv.c)
0001:0002ede0  clearenv_


                        +----------------------+
                        |   Imported Symbols   |
                        +----------------------+

Symbol                              Module
======                              ======



                        +--------------------+
                        |   Libraries Used   |
                        +--------------------+

audio_wf.lib
C:\WATCOM\lib386\dos\clib3r.lib


                        +-----------------------+
                        |   Linker Statistics   |
                        +-----------------------+

Stack size:  00010000 (65536.)
Memory size:  000ab840 (702528.)
Entry point address: 0001:00026ce8
Link time: 00:04.49
