Open Watcom Linker Version 1.9
Portions Copyright (c) 1985-2002 Sybase, Inc. All Rights Reserved.
Created on:       23/08/10 14:13:58
Executable Image: newdoom.exe
creating an OS/2 linear executable


                        +------------+
                        |   Groups   |
                        +------------+

Group                           Address              Size
=====                           =======              ====

DGROUP                          0002:00000000        000da370



                        +--------------+
                        |   Segments   |
                        +--------------+

Segment                Class          Group          Address         Size
=======                =====          =====          =======         ====

BEGTEXT                CODE           AUTO           0001:00000000   00000010
_TEXT                  CODE           AUTO           0001:00000010   000513c0
gf1init11_DATA         FAR_DATA       AUTO           0002:00000000   00000000
gf1mem11_DATA          FAR_DATA       AUTO           0002:00000000   00000000
gf1patch11_DATA        FAR_DATA       AUTO           0002:00000000   00000000
gf1note11_DATA         FAR_DATA       AUTO           0002:00000000   00000000
digital11_DATA         FAR_DATA       AUTO           0002:00000000   00000000
os11_DATA              FAR_DATA       AUTO           0002:00000000   00000000
gf1wisr11_DATA         FAR_DATA       AUTO           0002:00000000   00000000
gf1isr11_DATA          FAR_DATA       AUTO           0002:00000000   00000000
gf1detct11_DATA        FAR_DATA       AUTO           0002:00000000   00000000
gf1dram11_DATA         FAR_DATA       AUTO           0002:00000000   00000000
gf1dma11_DATA          FAR_DATA       AUTO           0002:00000000   00000000
gf1wave11_DATA         FAR_DATA       AUTO           0002:00000000   00000000
timer11_DATA           FAR_DATA       AUTO           0002:00000000   00000000
gf1voice11_DATA        FAR_DATA       AUTO           0002:00000000   00000000
gf1addr11_DATA         FAR_DATA       AUTO           0002:00000000   00000000
divisor11_DATA         FAR_DATA       AUTO           0002:00000000   00000000
_NULL                  BEGDATA        DGROUP         0002:00000000   00000004
_AFTERNULL             BEGDATA        DGROUP         0002:00000004   00000000
CONST                  DATA           DGROUP         0002:00000004   00007860
CONST2                 DATA           DGROUP         0002:00007864   00000240
_DATA                  DATA           DGROUP         0002:00007ab0   00026c38
XIB                    DATA           DGROUP         0002:0002e6e8   00000000
XI                     DATA           DGROUP         0002:0002e6e8   0000002a
XIE                    DATA           DGROUP         0002:0002e712   00000000
YIB                    DATA           DGROUP         0002:0002e712   00000000
YI                     DATA           DGROUP         0002:0002e712   0000001e
YIE                    DATA           DGROUP         0002:0002e730   00000000
TIB                    DATA           DGROUP         0002:0002e730   00000000
TI                     DATA           DGROUP         0002:0002e730   00000000
TIE                    DATA           DGROUP         0002:0002e730   00000000
DATA                   DATA           DGROUP         0002:0002e730   00000000
_GF1INITS              DATA           DGROUP         0002:0002e730   00000000
_GF1INIT               DATA           DGROUP         0002:0002e730   00000024
_GF1INITE              DATA           DGROUP         0002:0002e754   00000000
_BSS                   BSS            DGROUP         0002:0002e760   0009bc08
STACK                  STACK          DGROUP         0002:000ca370   00010000


                        +----------------+
                        |   Memory Map   |
                        +----------------+

* = unreferenced symbol
+ = symbol only referenced locally

Address        Symbol
=======        ======

Module: i_main.obj(C:\PCDOOM2\i_main.c)
0001:00000010  main_
Module: i_ibm.obj(C:\PCDOOM2\i_ibm.c)
0002:0002e760+ _olddb
0002:0002e780+ _keyboardque
0002:0002e7a0+ _emptycmd
0002:0002e7a8+ _joyyl
0002:0002e7ac+ _joyyh
0002:0002e7b0+ _joyxh
0002:0002e7b4+ _realstackseg
0002:0002e7b8+ _basejoyx
0002:0002e7bc+ _basejoyy
0002:0002e7c0+ _lastpress
0002:0002e7c4+ _joyxl
0002:0002e7c8+ _currentscreen
0002:0002e7cc+ _pcscreen
0002:0002e7d0+ _extcontrol
0002:0002e7d4+ _kbdhead
0002:0002e7d8+ _kbdtail
0002:0002e7dc+ _segregs
0002:0002e7e8+ _novideo
0002:0002e7ec+ _regs
0002:0002e808+ _joystickpresent
0002:0002e80c+ _grmode
0002:0002e810  _mousepresent
0002:0002e814  _ticcount
0002:0002e818  _destview
0002:0002e81c  _destscreen
0002:0002e820+ _oldtimerisr
0001:00000030  I_BaseTiccmd_
0001:00000060  I_GetTime_
0001:00000070* I_ColorBorder_
0001:000000b0* I_UnColorBorder_
0001:000000f0  I_WaitVBL_
0001:00000130  I_SetPalette_
0001:00000190+ I_UpdateBox_
0001:000002c0  I_UpdateNoBlit_
0001:000003d0  I_FinishUpdate_
0001:00000470  I_InitGraphics_
0001:00000580+ I_ShutdownGraphics_
0001:000005b0  I_ReadScreen_
0001:00000630  I_StartTic_
0001:00000750* I_ReadKeys_
0001:000007a0* I_ColorBlack_
0001:000007d0  I_TimerISR_
0001:000007e0+ I_KeyboardISR_
0001:00000830* I_StartupKeyboard_
0001:00000870+ I_ShutdownKeyboard_
0001:000008c0+ I_ResetMouse_
0001:000008f0+ I_StartupMouse_
0001:00000950+ I_ShutdownMouse_
0001:00000970+ I_ReadMouse_
0001:00000a00+ WaitJoyButton_
0001:00000aa0+ I_StartupJoystick_
0001:00000bb0  I_StartFrame_
0001:00000c40* DPMIFarCall_
0001:00000ca0+ I_StartupDPMI_
0001:00000cd0+ IO_TimerISR_
0001:00000d00+ IO_SetTimer0_
0001:00000d40* IO_StartupTimer_
0001:00000d80* IO_ShutdownTimer_
0001:00000dc0  I_Init_
0001:00000e90* I_Shutdown_
0001:00000eb0  I_Error_
0001:00000f20  I_Quit_
0001:00000ff0  I_ZoneBase_
0001:00001110* checkIfEMSExists_
0001:00001150* I_ZoneBaseEMS_
0001:00001270* I_InitEMS_
0001:00001390+ I_InitDiskFlash_
0001:000013f0  I_BeginRead_
0001:000014b0  I_EndRead_
0001:00001540  I_AllocLow_
0001:000015d0  I_InitNetwork_
0001:000016a0  I_NetCmd_
0001:000016d0+ DPMIInt_
0002:00007ab0  _scantokey
0002:00007b34+ _oldkeyboardisr
0002:0002e826+ _dpmiregs
Module: i_sound.obj(C:\PCDOOM2\i_sound.c)
0002:0002e85c+ _dmxCodes
0002:0002e88c+ _snd_SfxVolume
0002:0002e890  _snd_SBirq
0002:0002e894  _snd_SBport
0002:0002e898+ _snd_MusicVolume
0002:0002e89c  _snd_Mport
0002:0002e8a0  _snd_SBdma
0002:0002e8a4  _snd_DesiredSfxDevice
0002:0002e8a8  _snd_MusicDevice
0002:0002e8ac+ _snd_SfxDevice
0001:00001750+ I_StartupTimer_
0001:000017a0  I_ShutdownTimer_
0001:000017c0  I_PauseSong_
0001:000017d0  I_ResumeSong_
0001:000017e0  I_SetMusicVolume_
0001:00001800* I_SetSfxVolume_
0001:00001810  I_RegisterSong_
0001:00001820  I_UnRegisterSong_
0001:00001830* I_QrySongPlaying_
0001:00001840  I_StopSong_
0001:00001860  I_PlaySong_
0001:00001890  I_GetSfxLumpNum_
0001:000018d0  I_StartSound_
0001:00001930  I_StopSound_
0001:00001940  I_SoundIsPlaying_
0001:00001950  I_UpdateSoundParams_
0001:00001970+ I_sndArbitrateCards_
0001:00001d50  I_StartupSound_
0001:00001e60  I_ShutdownSound_
0001:00001e80  I_SetChannels_
0002:00007864+ _snd_prefixen
0002:00007b3c+ _tsm_ID
0002:0002e8b0  _snd_DesiredMusicDevice
Module: i_cyber.obj(C:\PCDOOM2\i_cyber.c)
0002:0002e8b4+ _oldpos
0002:0002e8d4+ _cyberstat
0002:0002e8e4  _isCyberPresent
0001:00001ea0  I_StartupCyberMan_
0001:00001ff0  I_ReadCyberCmd_
0002:0002e91a+ _selector
0002:0002e91c+ _segment
Module: i_ibm_a.obj(i_ibm_a.ASM)
0002:00007b40  _joystickx
0002:00007b44  _joysticky
0001:00002164* I_SetDivException_
0001:00002154* I_DivException_
0001:0000218f  I_ReadJoystick_
Module: tables.obj(C:\PCDOOM2\tables.c)
0002:00007b48  _finetangent
0002:0000bb48  _finesine
0002:00015b48  _tantoangle
Module: f_finale.obj(C:\PCDOOM2\f_finale.c)
0001:000021f0  F_StartFinale_
0001:00002320  F_Responder_
0001:00002340  F_Ticker_
0001:00002420+ F_TextWrite_
0001:00002590+ F_StartCast_
0001:00002610+ F_CastTicker_
0001:000029b0+ F_CastResponder_
0001:00002a30+ F_CastPrint_
0001:00002b00+ F_CastDrawer_
0001:00002c00+ F_DrawPatchCol_
0001:00002c60+ F_BunnyScroll_
0001:00002db0  F_Drawer_
0002:00017b4c+ _e1text
0002:00017b50+ _e2text
0002:00017b54+ _e3text
0002:00017b58+ _c1text
0002:00017b5c+ _c2text
0002:00017b60+ _c3text
0002:00017b64+ _c4text
0002:00017b68+ _c5text
0002:00017b6c+ _c6text
0002:00017b70+ _castorder
0002:0002e920+ _castonmelee
0002:0002e924+ _castframes
0002:0002e928+ _castattacking
0002:0002e92c+ _casttics
0002:0002e930+ _caststate
0002:0002e934+ _castdeath
0002:0002e938+ _castnum
0002:0002e93c+ _finaleflat
0002:0002e940+ _finaletext
0002:0002e944+ _finalecount
0002:0002e948+ _finalestage
Module: d_main.obj(C:\PCDOOM2\d_main.c)
0002:0002e950+ _title
0002:0002e9d0+ _wadfile
0002:0002edd0+ _mapdir
0002:0002f1d0+ _wadfiles
0002:0002f220  _events
0002:0002f620  _basedefault
0002:0002fa20+ _pagename
0002:0002fa24+ _copynode
0002:00032350+ _demosequence
0002:00032354+ _pagetic
0002:00032358  _advancedemo
0002:0003235c+ _drone
0002:00032360  _eventtail
0002:00032364  _eventhead
0002:00032368  _debugfile
0002:0003236c  _french
0002:00032370  _shareware
0002:00032374  _startmap
0002:00032378  _modifiedgame
0002:0003237c  _autostart
0002:00032380  _nomonsters
0002:00032384  _startskill
0002:00032388  _devparm
0002:0003238c  _registered
0002:00032390  _fastparm
0001:00002f00  D_PostEvent_
0001:00002f30  D_ProcessEvents_
0001:00002f90  FixedDiv_
0001:00002ff0+ D_Display_
0001:00003300+ D_DoomLoop_
0001:00003480  D_PageTicker_
0001:000034b0* D_PageDrawer_
0001:000034c0  D_AdvanceDemo_
0001:000034f0  D_DoAdvanceDemo_
0001:00003630  D_StartTitle_
0001:00003650+ D_GetCursorColumn_
0001:00003680+ D_GetCursorRow_
0001:000036b0+ D_SetCursorPosition_
0001:000036e0+ D_DrawTitle_
0001:00003770+ D_RedrawTitle_
0001:000037c0+ D_AddFile_
0001:00003820+ IdentifyVersion_
0001:00003a80+ FindResponseFile_
0001:00003c50  D_DoomMain_
0002:00017c00  _singletics
0002:00017c04  _wipegamestate
0002:00032394  _respawnparm
0002:00032398  _commercial
0002:0003239c  _startepisode
Module: d_net.obj(C:\PCDOOM2\d_net.c)
0002:000323a4+ _frametics
0002:000323b4+ _frameskip
0002:000323c4+ _exitmsg
0002:00032414+ _remoteresend
0002:00032434+ _nodeforplayer
0002:00032444+ _resendto
0002:00032464+ _resendcount
0002:00032484+ _reboundstore
0002:000324ec+ _nettics
0002:0003250c  _netcmds
0002:0003268c+ _nodeingame
0002:000326ac+ _localcmds
0001:00004520* NetbufferSize_
0001:00004540+ NetbufferChecksum_
0001:000045a0+ ExpandTics_
0001:00004620+ HSendPacket_
0001:00004750+ HGetPacket_
0001:00004920+ GetPackets_
0001:00004b60  NetUpdate_
0001:00004d00+ CheckAbort_
0001:00004d70+ D_ArbitrateNetStart_
0001:00004f50  D_CheckNetGame_
0001:00005090  D_QuitNetGame_
0001:00005130  TryRunTics_
0002:0003270c+ _oldnettics
0002:00032710+ _frameon
0002:00032714+ _gametime
0002:00032718+ _maxsend
0002:0003271c+ _lastnettic
0002:00032720+ _reboundpacket
0002:00032724  _ticdup
0002:00032728+ _skiptics
0002:0003272c  _doomcom
0002:00032730  _maketic
0002:00032734+ _netbuffer
Module: g_game.obj(C:\PCDOOM2\g_game.c)
0002:0003273c+ _savename
0002:0003283c+ _savedescription
0002:0003285c+ _bodyque
0002:0003289c+ _mousearray
0002:000328ac+ _gamekeydown
0002:00032cac+ _demoname
0002:00032ccc+ _consistancy
0002:00032d2c  _wminfo
0002:00032df4  _players
0002:00033244  _playeringame
0002:00033254+ _defdemoname
0002:00033258+ _d_episode
0002:0003325c+ _d_skill
0002:00033260+ _d_map
0002:00033264+ _secretexit
0002:00033268+ _joyymove
0002:0003326c+ _dclicks
0002:00033270  _statcopy
0002:00033274+ _dclickstate
0002:00033278+ _dclicktime2
0002:0003327c+ _joyarray
0002:00033290+ _savegameslot
0002:00033294+ _joyxmove
0002:00033298+ _dclickstate2
0002:0003329c+ _dclicks2
0002:000332a0  _mousebforward
0002:000332a4  _key_speed
0002:000332a8  _mousebfire
0002:000332ac  _key_strafe
0002:000332b0+ _turnheld
0002:000332b4+ _dclicktime
0002:000332b8  _mousebstrafe
0002:000332bc  _joybfire
0002:000332c0+ _mousey
0002:000332c4+ _mousex
0002:000332c8  _joybuse
0002:000332cc  _joybstrafe
0002:000332d0  _joybspeed
0002:000332d4  _key_left
0002:000332d8+ _starttime
0002:000332dc+ _timingdemo
0002:000332e0+ _sendsave
0002:000332e4  _key_fire
0002:000332e8+ _demo_p
0002:000332ec  _key_straferight
0002:000332f0  _key_up
0002:000332f4+ _netdemo
0002:000332f8  _key_down
0002:000332fc  _key_use
0002:00033300  _key_right
0002:00033304  _key_strafeleft
0002:00033308+ _sendpause
0002:0003330c  _gameaction
0002:00033310  _bodyqueslot
0002:00033314  _gametic
0002:00033318  _demoplayback
0002:0003331c  _gamestate
0002:00033320  _totalkills
0002:00033324  _demorecording
0002:00033328  _displayplayer
0002:0003332c  _singledemo
0002:00033330  _totalitems
0002:00033334  _totalsecret
0002:00033338  _consoleplayer
0002:0003333c+ _levelstarttic
0002:00033340  _usergame
0002:00033344  _paused
0002:00033348  _viewactive
0002:0003334c+ _noblit
0002:00033350  _respawnmonsters
0002:00033354  _deathmatch
0002:00033358  _nodrawers
0001:000053c0* G_CmdChecksum_
0001:000053f0  G_BuildTiccmd_
0001:000058b0+ G_DoLoadLevel_
0001:000059d0  G_Responder_
0001:00005c50  G_Ticker_
0001:00005f80+ G_PlayerFinishLevel_
0001:00006000  G_PlayerReborn_
0001:00006130+ G_CheckSpot_
0001:000062d0  G_DeathMatchSpawnPlayer_
0001:00006360+ G_DoReborn_
0001:00006430  G_ScreenShot_
0001:00006440  G_ExitLevel_
0001:00006460  G_SecretExitLevel_
0001:000064b0+ G_DoCompleted_
0001:00006770  G_WorldDone_
0001:000067e0+ G_DoWorldDone_
0001:00006810  G_LoadGame_
0001:00006850+ G_DoLoadGame_
0001:000069e0  G_SaveGame_
0001:00006a20+ G_DoSaveGame_
0001:00006c00  G_DeferedInitNew_
0001:00006c20+ G_DoNewGame_
0001:00006ca0  G_InitNew_
0001:00006ee0+ G_ReadDemoTiccmd_
0001:00006f70+ G_WriteDemoTiccmd_
0001:00007010  G_RecordDemo_
0001:000070d0  G_BeginRecording_
0001:00007170  G_DeferedPlayDemo_
0001:00007190+ G_DoPlayDemo_
0001:000072c0  G_TimeDemo_
0001:00007310  G_CheckDemoStatus_
0002:00017c1c  _precache
0002:00017c20  _forwardmove
0002:00017c28  _sidemove
0002:00017c30+ _angleturn
0002:00017c3c+ _mousebuttons
0002:00017c40+ _joybuttons
0002:00017c44+ _pars
0002:00017ce4+ _cpars
0002:0003335c  _netgame
0002:00033360  _gameskill
0002:00033364  _gamemap
0002:00033368  _gameepisode
0002:0003336c+ _demobufferRef
0002:0003336e+ _savebufferRef
Module: m_menu.obj(C:\PCDOOM2\m_menu.c)
0002:000333c0+ _tempstring
0002:00033410+ _savegamestrings
0002:00033500+ _endstring
0002:000335a0+ _saveOldString
0002:000335b8+ _epi
0002:000335bc+ _options_e
0002:000335c0+ _sound_e
0002:000335c4+ _read_e2
0002:000335c8+ _read_e
0002:000335cc+ _load_e
0002:000335d0+ _newgame_e
0002:000335d4+ _episodes_e
0002:000335d8+ _main_e
0002:000335dc+ _currentMenu
0002:000335e0+ _messx
0002:000335e4+ _messy
0002:000335e8+ _messageNeedsInput
0002:000335ec+ _messageLastMenuActive
0002:000335f0  _inhelpscreens
0002:000335f4+ _saveStringEnter
0002:000335f8+ _saveCharIndex
0002:000335fc+ _messageRoutine
0002:00033600+ _saveSlot
0002:00033604  _sfxVolume
0002:00033608  _showMessages
0002:0003360c  _screenblocks
0002:00033610+ _messageString
0002:00033614+ _screenSize
0002:00033618+ _messageToPrint
0002:0003361c+ _quickSaveSlot
0002:00033620  _detailLevel
0002:00033624  _musicVolume
0002:00033628  _mouseSensitivity
0002:00017d64+ _gammamsg
0002:00017de6+ _endmsg
0002:00018066+ _endmsg2
0002:000182e6+ _skullName
0002:000182f8+ _MainMenu
0002:0001835e+ _MainDef
0002:00018372+ _EpisodeMenu
0002:000183a5+ _EpiDef
0002:000183b9+ _NewGameMenu
0002:0001840e+ _NewDef
0002:00018422+ _OptionsMenu
0002:000184aa+ _OptionsDef
0002:000184be+ _ReadMenu1
0001:00007450+ M_ReadSaveStrings_
0001:00007530+ M_DrawLoad_
0001:000075b0+ M_DrawSaveLoadBorder_
0001:00007640+ M_LoadSelect_
0001:00007690+ M_LoadGame_
0001:000076d0+ M_DrawSave_
0001:00007790+ M_DoSave_
0001:000077c0+ M_SaveSelect_
0001:00007850+ M_SaveGame_
0001:000078a0+ M_QuickSaveResponse_
0001:000078d0+ M_QuickSave_
0001:00007970+ M_QuickLoadResponse_
0001:000079a0+ M_QuickLoad_
0001:00007a10+ M_DrawReadThis1_
0001:00007a50+ M_DrawReadThis2_
0001:00007a90+ M_DrawReadThisRetail_
0001:00007ad0+ M_DrawSound_
0001:00007b40+ M_Sound_
0001:00007b60+ M_SfxVol_
0001:00007ba0+ M_MusicVol_
0001:00007be0+ M_DrawMainMenu_
0001:00007c10+ M_DrawNewGame_
0001:00007c60+ M_NewGame_
0001:00007cc0+ M_DrawEpisode_
0001:00007cf0+ M_VerifyNightmare_
0001:00007d20+ M_ChooseSkill_
0001:00007d60+ M_Episode_
0001:00007dc0+ M_DrawOptions_
0001:00007eb0+ M_Options_
0001:00007ed0+ M_ChangeMessages_
0001:00007f20+ M_EndGameResponse_
0001:00007f50+ M_EndGame_
0001:00007fa0+ M_ReadThis_
0001:00007fc0+ M_ReadThis2_
0001:00007fe0+ M_FinishReadThis_
0001:00008000+ M_QuitResponse_
0001:00008050+ M_QuitDOOM_
0001:000080e0+ M_ChangeSensitivity_
0001:00008110+ M_ChangeDetail_
0001:00008160+ M_SizeDisplay_
0001:000081b0+ M_DrawThermo_
0001:00008270* M_DrawEmptyCell_
0001:000082b0* M_DrawSelCell_
0001:000082f0+ M_StartMessage_
0001:00008330* M_StopMessage_
0001:00008350+ M_StringWidth_
0001:000083d0+ M_StringHeight_
0001:00008430+ M_WriteText_
0001:000084c0  M_Responder_
0001:00008ef0  M_StartControlPanel_
0001:00008f20  M_Drawer_
0001:00009160* M_ClearMenus_
0001:00009170* M_SetupNextMenu_
0001:00009190  M_Ticker_
0001:000091c0  M_Init_
0002:000184cf+ _ReadDef1
0002:000184e3+ _ReadMenu2
0002:000184f4+ _ReadDef2
0002:00018508+ _SoundMenu
0002:0001854c+ _SoundDef
0002:00018560+ _LoadMenu
0002:000185c6+ _LoadDef
0002:000185da+ _SaveMenu
0002:00018640+ _SaveDef
0002:00018654+ _detailNames
0002:00018666+ _msgNames
0002:00018678+ _quitsounds
0002:00018698+ _quitsounds2
0002:0003362c  _menuactive
0002:00033630+ _whichSkull
0002:00033632+ _skullAnimCounter
0002:00033634+ _itemOn
Module: m_misc.obj(C:\PCDOOM2\m_misc.c)
0001:00009280* M_DrawText_
0001:00009320  M_CheckParm_
0001:00009360  P_Random_
0001:000093c0  M_Random_
0001:000093f0  M_ClearRandom_
0001:00009410  M_ClearBox_
0001:00009430  M_AddToBox_
0001:00009460  M_WriteFile_
0001:000094b0  M_ReadFile_
0001:00009580  M_SaveDefaults_
0001:00009630  M_LoadDefaults_
0001:00009810+ WritePCXfile_
0001:00009940  M_ScreenShot_
0002:000186d0+ _rndtable
0002:000187d0  _rndindex
0002:000187d4  _prndindex
0002:000187d8+ _counter
0002:000187dc+ _defaults
0002:0003363c+ _numdefaults
0002:00033640+ _defaultfile
0002:00033644  _usejoystick
0002:00033648  _usemouse
0002:0003364c  _myargc
0002:00033650  _myargv
Module: am_map.obj(C:\PCDOOM2\am_map.c)
0002:00018b38+ _player_arrow
0002:00018ba8+ _cheat_player_arrow
0002:00018ca8+ _triangle_guy
0002:00018cd8+ _thintriangle_guy
0002:00018d14  _automapactive
0001:00009a20* AM_getIslope_
0001:00009a80+ AM_activateNewScale_
0001:00009b30* AM_saveScaleAndLoc_
0001:00009b60+ AM_restoreScaleAndLoc_
0001:00009c30+ AM_addMark_
0001:00009c90+ AM_findMinMaxBoundaries_
0001:00009db0+ AM_changeWindowLoc_
0001:00009e90+ AM_initVariables_
0001:00009fd0+ AM_loadPics_
0001:0000a020+ AM_unloadPics_
0001:0000a050+ AM_clearMarks_
0001:0000a080+ AM_LevelInit_
0001:0000a100  AM_Stop_
0001:0000a130+ AM_Start_
0001:0000a190* AM_minOutWindowScale_
0001:0000a1c0* AM_maxOutWindowScale_
0001:0000a1f0  AM_Responder_
0001:0000a610+ AM_changeWindowScale_
0001:0000a690+ AM_doFollowPlayer_
0001:0000a780* AM_updateLightLev_
0001:0000a7e0  AM_Ticker_
0001:0000a830* AM_clearFB_
0001:0000a860+ AM_clipMline_
0001:0000aba0+ AM_drawFline_
0001:0000ad10+ AM_drawMline_
0001:0000ad40+ AM_drawGrid_
0001:0000ae10+ AM_drawWalls_
0001:0000afd0+ AM_rotate_
0001:0000b050+ AM_drawLineCharacter_
0001:0000b130+ AM_drawPlayers_
0001:0000b240+ AM_drawThings_
0001:0000b2c0+ AM_drawMarks_
0001:0000b3a0* AM_drawCrosshair_
0001:0000b3d0  AM_Drawer_
Module: p_ceilng.obj(C:\PCDOOM2\p_ceilng.c)
0001:0000b4a0  T_MoveCeiling_
0001:0000b6b0  EV_DoCeiling_
0001:0000b860+ P_AddActiveCeiling_
0001:0000b890+ P_RemoveActiveCeiling_
0001:0000b900+ P_ActivateInStasisCeiling_
0001:0000b970  EV_CeilingCrushStop_
0002:00033778  _activeceilings
Module: p_doors.obj(C:\PCDOOM2\p_doors.c)
0001:0000ba40  T_VerticalDoor_
0001:0000bd10  EV_DoLockedDoor_
0001:0000be60  EV_DoDoor_
0001:0000c110  EV_VerticalDoor_
0001:0000c550  P_SpawnDoorCloseIn30_
0001:0000c5f0  P_SpawnDoorRaiseIn5Mins_
Module: p_enemy.obj(C:\PCDOOM2\p_enemy.c)
0001:0000c6b0+ P_RecursiveSound_
0001:0000c8d0  P_NoiseAlert_
0001:0000c910+ P_CheckMeleeRange_
0001:0000c9e0+ P_CheckMissileRange_
0001:0000cb60+ P_Move_
0001:0000cdf0+ P_TryWalk_
0001:0000ce30+ P_NewChaseDir_
0001:0000d4b0+ P_LookForPlayers_
0001:0000d640  A_KeenDie_
0001:0000d710  A_Look_
0001:0000d8a0  A_Chase_
0001:0000dff0  A_FaceTarget_
0001:0000e090  A_PosAttack_
0001:0000e130  A_SPosAttack_
0001:0000e1f0  A_CPosAttack_
0001:0000e290  A_CPosRefire_
0001:0000e350  A_SpidRefire_
0001:0000e400  A_BspiAttack_
0001:0000e460  A_TroopAttack_
0001:0000e510  A_SargAttack_
0001:0000e590  A_HeadAttack_
0001:0000e630  A_CyberAttack_
0001:0000e690  A_BruisAttack_
0001:0000e740  A_SkelMissile_
0001:0000e7f0  A_Tracer_
0001:0000ea30  A_SkelWhoosh_
0001:0000ea70  A_SkelFist_
0001:0000eaf0+ PIT_VileCheck_
0001:0000ebe0  A_VileChase_
0001:0000eda0  A_VileStart_
0001:0000edc0  A_StartFire_
0001:0000edf0  A_FireCrackle_
0001:0000ee20  A_Fire_
0001:0000ef10  A_VileTarget_
0001:0000efe0  A_VileAttack_
0001:0000f150  A_FatRaise_
0001:0000f180  A_FatAttack1_
0001:0000f240  A_FatAttack2_
0001:0000f2f0  A_FatAttack3_
0001:0000f400  A_SkullAttack_
0001:0000f510+ A_PainShootSkull_
0001:0000f680  A_PainAttack_
0001:0000f6d0  A_PainDie_
0001:0000f730  A_Scream_
0001:0000f7c0  A_XScream_
0001:0000f7e0  A_Pain_
0001:0000f820  A_Fall_
0001:0000f850  A_Explode_
0001:0000f890  A_BossDeath_
0001:0000fa30  A_Hoof_
0001:0000fa60  A_Metal_
0001:0000fa90  A_BabyMetal_
0001:0000fac0  A_OpenShotgun2_
0001:0000fae0  A_LoadShotgun2_
0001:0000fb00  A_CloseShotgun2_
0001:0000fb30  A_BrainAwake_
0001:0000fbd0  A_BrainPain_
0001:0000fbf0  A_BrainScream_
0001:0000fd00  A_BrainExplode_
0001:0000fdc0  A_BrainDie_
0001:0000fdd0  A_BrainSpit_
0001:0000feb0  A_SpawnSound_
0001:0000fee0  A_SpawnFly_
0001:00010090  A_PlayerScream_
0002:00018dac+ _opposite
0002:00018dd0+ _diags
0002:00018de0+ _xspeed
0002:00018e00+ _yspeed
0002:00018e20+ _TRACEANGLE
0002:000337b4+ _braintargets
0002:000337f4+ _numbraintargets
0002:000337f8+ _braintargeton
0002:000337fc+ _viletryy
0002:00033800+ _viletryx
0002:00033804+ _vileobj
0002:00033808+ _corpsehitRef
0002:0003380a+ _soundtargetRef
Module: p_floor.obj(C:\PCDOOM2\p_floor.c)
0001:000100e0  T_MovePlane_
0001:000103a0  T_MoveFloor_
0001:00010510  EV_DoFloor_
0001:00010a80  EV_BuildStairs_
Module: p_inter.obj(C:\PCDOOM2\p_inter.c)
0001:00010cd0+ P_GiveAmmo_
0001:00010e20+ P_GiveWeapon_
0001:00010f10+ P_GiveBody_
0001:00010f60+ P_GiveArmor_
0001:00010f80+ P_GiveCard_
0001:00010fb0  P_GivePower_
0001:00011110  P_TouchSpecialThing_
0001:000118b0+ P_KillMobj_
0001:00011a80  P_DamageMobj_
0002:00018e28  _maxammo
0002:00018e38+ _clipammo
Module: p_lights.obj(C:\PCDOOM2\p_lights.c)
0001:00011e20  T_FireFlicker_
0001:00011e90  P_SpawnFireFlicker_
0001:00011f40  T_LightFlash_
0001:00011fb0  P_SpawnLightFlash_
0001:00012070  T_StrobeFlash_
0001:000120d0  P_SpawnStrobeFlash_
0001:000121c0  EV_StartLightStrobing_
0001:00012210  EV_TurnTagLightsOff_
0001:000122d0  EV_LightTurnOn_
0001:000123a0  T_Glow_
0001:00012440  P_SpawnGlowingLight_
Module: p_map.obj(C:\PCDOOM2\p_map.c)
0002:0003380c+ _tmbbox
0002:0003381c  _spechit
0002:0003382c+ _crushchange
0002:00033830+ _nofit
0002:00033834+ _bombdamage
0002:00033838  _attackrange
0002:0003383c+ _la_damage
0002:00033840+ _aimslope
0002:00033844+ _shootz
0002:00033848+ _bestslidefrac
0002:0003384c+ _tmymove
0002:00033850+ _tmxmove
0002:00033854+ _secondslidefrac
0002:00033858+ _tmy
0002:0003385c+ _tmx
0002:00033860+ _tmflags
0002:00033864+ _tmdropoffz
0002:00033868  _numspechit
0002:0003386c  _tmfloorz
0002:00033870  _floatok
0002:00033874+ _tmceilingz
0002:00033878+ _bombspotRef
0002:0003387a+ _bombsourceRef
0002:0003387c+ _usethingRef
0002:0003387e+ _shootthingRef
0001:00012500+ PIT_StompThing_
0001:000125c0  P_TeleportMove_
0001:00012760+ PIT_CheckLine_
0001:000128e0+ PIT_CheckThing_
0001:00012cd0  P_CheckPosition_
0001:00012f30  P_TryMove_
0001:00013150+ P_ThingHeightClip_
0001:000131f0+ P_HitSlideLine_
0001:00013310+ PTR_SlideTraverse_
0001:00013440  P_SlideMove_
0001:000136f0+ PTR_AimTraverse_
0001:000138f0+ PTR_ShootTraverse_
0001:00013c10  P_AimLineAttack_
0001:00013cd0  P_LineAttack_
0001:00013d70+ PTR_UseTraverse_
0001:00013e40  P_UseLines_
0001:00013eb0+ PIT_RadiusAttack_
0001:00013fb0  P_RadiusAttack_
0001:00014060+ PIT_ChangeSector_
0001:000141a0  P_ChangeSector_
0002:00033880+ _slidemoRef
0002:00033882+ _bestslidelinenum
0002:00033884+ _secondslidelinenum
0002:00033886+ _tmthingRef
0002:00033888  _linetargetRef
0002:0003388a  _ceilinglinenum
Module: p_maputl.obj(C:\PCDOOM2\p_maputl.c)
0001:00014210  P_AproxDistance_
0001:00014240  P_PointOnLineSide_
0001:00014330  P_BoxOnLineSide_
0001:000144a0+ P_PointOnDivlineSide_
0001:00014570+ P_MakeDivline_
0001:000145c0+ P_InterceptVector_
0001:00014630  P_LineOpening_
0001:000146b0  P_UnsetThingPosition_
0001:00014800  P_SetThingPosition_
0001:000149b0  P_BlockLinesIterator_
0001:00014ab0  P_BlockThingsIterator_
0001:00014b40+ PIT_AddLineIntercepts_
0001:00014cd0+ PIT_AddThingIntercepts_
0001:00014dd0+ P_TraverseIntercepts_
0001:00014e40  P_PathTraverse_
0002:0003388c+ _intercepts
0002:00033d8c  _trace
0002:00033d9c+ _ptflags
0002:00033da0+ _earlyout
0002:00033da4+ _intercept_p
0002:00033da8  _opentop
0002:00033dac  _lowfloor
0002:00033db0  _openbottom
0002:00033db4  _openrange
Module: p_plats.obj(C:\PCDOOM2\p_plats.c)
0001:000150a0  T_PlatRaise_
0001:00015290  EV_DoPlat_
0001:000155d0+ P_ActivateInStasis_
0001:00015640  EV_StopPlat_
0001:000156b0+ P_AddActivePlat_
0001:00015700+ P_RemoveActivePlat_
0002:00033db8  _activeplats
Module: p_pspr.obj(C:\PCDOOM2\p_pspr.c)
0001:000157a0+ P_SetPsprite_
0001:00015810* P_CalcSwing_
0001:00015870+ P_BringUpWeapon_
0001:000158d0+ P_CheckAmmo_
0001:00015a30+ P_FireWeapon_
0001:00015aa0  P_DropWeapon_
0001:00015ac0  A_WeaponReady_
0001:00015be0  A_ReFire_
0001:00015c20  A_CheckReload_
0001:00015c30  A_Lower_
0001:00015c80  A_Raise_
0001:00015cc0  A_GunFlash_
0001:00015d00  A_Punch_
0001:00015de0  A_Saw_
0001:00015f20  A_FireMissile_
0001:00015f50  A_FireBFG_
0001:00015f80  A_FirePlasma_
0001:00015fd0+ P_BulletSlope_
0001:00016050+ P_GunShot_
0001:000160d0  A_FirePistol_
0001:00016150  A_FireShotgun_
0001:000161e0  A_FireShotgun2_
0001:000162d0  A_FireCGun_
0001:00016380  A_Light0_
0001:00016390  A_Light1_
0001:000163a0  A_Light2_
0001:000163b0  A_BFGSpray_
0001:00016480  A_BFGsound_
0001:000164a0  P_SetupPsprites_
0001:000164d0  P_MovePsprites_
0002:00018e54  _weaponinfo
0002:00033df4+ _bulletslope
0002:00033df8+ _swingx
0002:00033dfc+ _swingy
Module: p_setup.obj(C:\PCDOOM2\p_setup.c)
0002:00033e00  _playerstarts
0002:00033e28  _blocklinks
0002:00034dc8  _deathmatchstarts
0002:00034e2c  _deathmatch_p
0002:00034e30  _bmapwidth
0002:00034e34  _bmaporgx
0002:00034e38  _bmaporgy
0002:00034e3c  _bmapheight
0002:00034e40  _blockmapOffset
0002:00034e44  _sectors
0002:00034e48  _numlines
0002:00034e4c  _numnodes
0002:00034e50  _numsectors
0002:00034e54  _numsubsectors
0002:00034e58  _numsides
0002:00034e5c  _numsegs
0002:00034e60  _numvertexes
0002:00034e64  _blockmaplumpRef
0002:00034e66  _rejectmatrixRef
0002:00034e68  _linebufferRef
0002:00034e6a  _linesRef
0002:00034e6c  _sidesRef
0001:00016540+ P_LoadVertexes_
0001:00016630+ P_LoadSegs_
0001:00016800+ P_LoadSubsectors_
0001:00016900+ P_LoadSectors_
0001:00016a00+ P_LoadNodes_
0001:00016b80+ P_LoadThings_
0001:00016c70+ P_LoadLineDefs_
0001:00016ed0+ P_LoadSideDefs_
0001:000170f0+ P_LoadBlockMap_
0001:000171a0+ P_GroupLines_
0001:000174f0  P_SetupLevel_
0001:000177a0  P_Init_
0002:00034e6e  _segsRef
0002:00034e70  _nodesRef
0002:00034e72  _subsectorsRef
0002:00034e74  _vertexesRef
Module: p_sight.obj(C:\PCDOOM2\p_sight.c)
0001:000177c0+ P_DivlineSide_
0001:00017890+ P_InterceptVector2_
0001:00017900+ P_CrossSubsector_
0001:00017c50+ P_CrossBSPNode_
0001:00017dc0  P_CheckSight2_
0002:00034e78+ _strace
0002:00034e88+ _sightcounts
0002:00034e90  _bottomslope
0002:00034e94+ _sightzstart
0002:00034e98+ _cachedt2x
0002:00034e9c+ _cachedt2y
0002:00034ea0  _topslope
Module: p_spec.obj(C:\PCDOOM2\p_spec.c)
0001:00017f30  P_InitPicAnims_
0001:00018040  getSideNum_
0001:000180b0  getSector_
0001:00018140  twoSided_
0001:000181b0  getNextSector_
0001:00018210  P_FindLowestFloorSurrounding_
0001:000182b0  P_FindHighestFloorSurrounding_
0001:00018350  P_FindNextHighestFloor_
0001:00018420  P_FindLowestCeilingSurrounding_
0001:000184c0  P_FindHighestCeilingSurrounding_
0001:00018560  P_FindSectorFromLineTag_
0001:00018590  P_FindMinSurroundingLight_
0001:00018850  P_CrossSpecialLine_
0001:00018eb0  P_ShootSpecialLine_
0001:00018fd0  P_PlayerInSpecialSector_
0001:00019160  P_UpdateSpecials_
0001:00019380  EV_DoDonut_
0001:000195e0  P_SpawnSpecials_
0002:00018f30+ _animdefs
0002:00034ea4+ _linespeciallist
0002:00034f24+ _anims
0002:000351a4+ _lastanim
0002:000351a8+ _levelTimer
0002:000351ac+ _levelTimeCount
0002:000351b0+ _numlinespecials
Module: p_switch.obj(C:\PCDOOM2\p_switch.c)
0001:00019820  P_InitSwitchList_
0001:000198e0+ P_StartButton_
0001:00019980  P_ChangeSwitchTexture_
0001:00019df0  P_UseSpecialLine_
0002:00019188+ _alphSwitchList
0002:000351b4+ _switchlist
0002:00035344  _buttonlist
0002:000354a4+ _numswitches
Module: p_mobj.obj(C:\PCDOOM2\p_mobj.c)
0001:0001a9c0  P_SetMobjState2_
0001:0001aa50+ P_ExplodeMissile_
0001:0001aaf0+ P_XYMovement_
0001:0001aef0+ P_ZMovement_
0001:0001b0e0+ P_NightmareRespawn_
0001:0001b280  P_MobjThinker_
0001:0001b440  P_SpawnMobj_
0001:0001b5e0  P_RemoveMobj_
0001:0001b6a0  P_RespawnSpecials_
0001:0001b7f0  P_SpawnPlayer_
0001:0001b930  P_SpawnMapThing_
0001:0001bb40  P_SpawnPuff_
0001:0001bbd0  P_SpawnBlood_
0001:0001bc80+ P_CheckMissileSpawn_
0001:0001bd10  P_SpawnMissile_
0001:0001bec0  P_SpawnPlayerMissile_
0002:000354a8+ _itemrespawnque
0002:000359a8+ _itemrespawntime
0002:00035ba8  _iquehead
0002:00035bac  _iquetail
0002:00035bb0+ _SAVEDUNIT
Module: p_telept.obj(C:\PCDOOM2\p_telept.c)
0001:0001c020  EV_Teleport_
Module: p_saveg.obj(C:\PCDOOM2\p_saveg.c)
0001:0001c1e0  P_ArchivePlayers_
0001:0001c2a0  P_UnArchivePlayers_
0001:0001c380  P_ArchiveWorld_
0001:0001c4d0  P_UnArchiveWorld_
0001:0001c630  P_ArchiveThinkers_
0001:0001c740  P_UnArchiveThinkers_
0001:0001c8d0  P_ArchiveSpecials_
0001:0001cc90  P_UnArchiveSpecials_
0002:00035bb4+ _specials_e
0002:00035bb8  _save_p
Module: p_tick.obj(C:\PCDOOM2\p_tick.c)
0001:0001cca0  P_InitThinkers_
0001:0001ccf0+ P_GetNextThinkerRef_
0001:0001cd50  P_AddThinker_
0001:0001cdc0  P_UpdateThinkerFunc_
0001:0001cde0  P_RemoveThinker_
0001:0001ce20+ P_RunThinkers_
0001:0001d020  P_Ticker_
0002:000194c0+ _addCount
0002:00035bbc  _thinkerlist
0002:00037714  _leveltime
0002:00037718+ _currentThinkerListHead
Module: p_user.obj(C:\PCDOOM2\p_user.c)
0001:0001d0a0+ P_Thrust_
0001:0001d0f0+ P_CalcHeight_
0001:0001d230+ P_MovePlayer_
0001:0001d2f0+ P_DeathThink_
0001:0001d410  P_PlayerThink_
0002:0003771c+ _onground
Module: r_bsp.obj(C:\PCDOOM2\r_bsp.c)
0001:0001d650  R_ClearDrawSegs_
0001:0001d660+ R_ClipSolidWallSegment_
0001:0001d760+ R_ClipPassWallSegment_
0001:0001d800  R_ClearClipSegs_
0001:0001d840+ R_AddLine_
0001:0001da70+ R_CheckBBox_
0001:0001dbc0+ R_Subsector_
0001:0001dd20  R_RenderBSPNode_
0002:000194c4  _setval
0002:000194c8+ _checkcoord
0002:00019588+ _upcount
0002:00037720+ _solidsegs
0002:00037820  _drawsegs
0002:0003a620  _ds_p
0002:0003a624+ _newend
0002:0003a628  _backsecnum
0002:0003a62a  _curlinenum
0002:0003a62c  _linedefOffset
0002:0003a62e  _frontsecnum
Module: r_data.obj(C:\PCDOOM2\r_data.c)
0002:0003a630+ _lastflat
0002:0003a634+ _lastpatch
0002:0003a638+ _numpatches
0002:0003a63c+ _firstpatch
0002:0003a640+ _numtextures
0002:0003a644+ _numflats
0002:0003a648+ _colormapbytes
0002:00043244  _firstflat
0002:00043248  _firstspritelump
0002:0004324c  _lastspritelump
0002:00043250+ _numspritelumps
0002:00043254  _colormaps
0002:00043258+ _texturecompositesizeRef
0002:0004325a+ _texturesRef
0002:0004325c+ _texturewidthmaskRef
0002:0004325e+ _texturecompositeRef
0002:00043260+ _texturecolumnlumpRef
0002:00043262+ _texturecolumnofsRef
0002:00043264  _flattranslationRef
0001:0001de00+ R_DrawColumnInCache_
0001:0001dea0+ R_GenerateComposite_
0001:0001e160+ R_GenerateLookup_
0001:0001e500  R_GetColumn_
0001:0001e620+ R_InitTextures_
0001:0001ebb0+ R_InitFlats_
0001:0001ec30+ R_InitSpriteLumps_
0001:0001edf0+ R_InitColormaps_
0001:0001ee30  R_InitData_
0001:0001ee70  R_FlatNumForName_
0001:0001eed0  R_CheckTextureNumForName_
0001:0001ef50  R_TextureNumForName2_
0001:0001ef90  R_PrecacheLevel_
0001:0001f2d0  R_EraseCompositeCache_
0002:00043266  _texturetranslationRef
0002:00043268  _spritetopoffsetRef
0002:0004326a  _spriteoffsetRef
0002:0004326c  _textureheightRef
0002:0004326e  _spritewidthRef
Module: r_draw.obj(C:\PCDOOM2\r_draw.c)
0002:00043270+ _ylookup
0002:00043f70+ _columnofs
0002:000450f0+ _translations
0002:000453f0+ _dscount
0002:000453f4+ _viewimage
0002:000453f8  _ds_xstep
0002:000453fc  _ds_ystep
0002:00045400  _ds_x1
0002:00045404  _ds_x2
0002:00045408  _ds_yfrac
0002:0004540c  _ds_source
0002:00045410  _ds_colormap
0002:00045414  _ds_xfrac
0002:00045418  _dc_translation
0002:0004541c  _dc_texturemid
0002:00045420  _dc_iscale
0002:00045424  _dc_source
0002:00045428  _ds_y
0002:0004542c  _dc_x
0002:00045430  _dc_yh
0002:00045434  _dc_yl
0002:00045438  _dc_colormap
0002:0004543c  _viewwindowx
0002:00045440  _viewwindowy
0002:00045444  _scaledviewwidth
0001:0001f320  R_DrawColumn_
0001:0001f410  R_DrawColumnLow_
0001:0001f500  R_DrawFuzzColumn_
0001:0001f690  R_DrawTranslatedColumn_
0001:0001f7d0  R_InitTranslationTables_
0001:0001f870  R_DrawSpan_
0001:0001f9f0  R_DrawSpanLow_
0001:0001fb60  R_InitBuffer_
0001:0001fbe0  R_FillBackScreen_
0001:0001fec0  R_VideoErase_
0001:0001ff40  R_DrawViewBorder_
0002:0001958c+ _fuzzoffset
0002:00019654+ _fuzzpos
0002:00045448  _viewheight
0002:0004544c  _viewwidth
0002:00045450  _ds_sourceRef
0002:00045452  _translationtablesRef
Module: r_main.obj(C:\PCDOOM2\r_main.c)
0002:00045454  _scalelight
0002:00046054  _zlight
0002:00048054+ _scalelightfixed
0002:00048114  _viewangletox
0002:0004c114  _setsizeneeded
0002:0004c118+ _setdetail
0002:0004c11c+ _setblocks
0002:0004c120+ _transcolfunc
0002:0004c124+ _framecount
0002:0004c128  _viewangleoffset
0002:0004c12c  _detailshift
0002:0004c130  _extralight
0002:0004c134  _fixedcolormap
0002:0004c138  _basecolfunc
0002:0004c13c  _spanfunc
0002:0004c140  _fuzzcolfunc
0002:0004c144  _colfunc
0002:0004c148+ _linecount
0002:0004c14c  _projection
0002:0004c150  _centeryfrac
0002:0004c154  _centerxfrac
0002:0004c158+ _centerx
0002:0004c15c  _centery
0001:0001ffe0* R_AddPointToBox_
0001:00020010  R_PointOnSide_
0001:000200d0  R_PointOnSegSide_
0001:000201c0+ SlopeDiv_
0001:000201f0  R_PointToAngle_
0001:00020310  R_PointToAngle2_
0001:00020340  R_PointToDist_
0001:000203a0* R_InitPointToAngle_
0001:000203b0  R_ScaleFromGlobalAngle_
0001:00020440* R_InitTables_
0001:00020450+ R_InitTextureMapping_
0001:00020570+ R_InitLightTables_
0001:00020600  R_SetViewSize_
0001:00020620  R_ExecuteSetViewSize_
0001:000208a0  R_Init_
0001:00020940  R_PointInSubsector_
0001:000209b0+ R_SetupFrame_
0001:00020ac0  R_RenderPlayerView_
0002:00019658  _validcount
0002:0001965c  _finecosine
0002:0004c160+ _loopcount
0002:0004c164  _viewsin
0002:0004c168  _viewcos
0002:0004c16c  _xtoviewangle
0002:0004c670  _viewplayer
0002:0004c674  _clipangle
0002:0004c678  _viewangle
0002:0004c67c  _viewz
0002:0004c680  _viewy
0002:0004c684  _viewx
0002:0004c688  _sscount
Module: r_sky.obj(C:\PCDOOM2\r_sky.c)
0001:00020b30  R_InitSkyMap_
0002:0004c68c  _skyflatnum
0002:0004c690  _skytexture
0002:0004c694  _skytexturemid
Module: r_plane.obj(C:\PCDOOM2\r_plane.c)
0002:0004c698+ _cachedxstep
0002:0004c9b8+ _cachedystep
0002:0004ccd8+ _cachedheight
0002:0004cff8+ _cacheddistance
0002:0004d318+ _spanstart
0002:0004d638+ _spanstop
0002:0004d958+ _openings
0002:00057958+ _visplanes
0002:0006c558  _floorclip
0002:0006c7d8  _ceilingclip
0002:0006ca58  _yslope
0002:0006cd78  _distscale
0001:00020b50  R_InitPlanes_
0001:00020b60+ R_MapPlane_
0001:00020ce0  R_ClearPlanes_
0001:00020d80  R_FindPlane_
0001:00020e30  R_CheckPlane_
0001:00020ec0+ R_MakeSpans_
0001:00020f50  R_DrawPlanes_
0002:0006d278+ _planeheight
0002:0006d27c+ _planezlight
0002:0006d280+ _baseyscale
0002:0006d284+ _basexscale
0002:0006d288+ _ceilingfunc
0002:0006d28c+ _lastvisplane
0002:0006d290+ _floorfunc
0002:0006d294  _lastopening
0002:0006d298  _floorplane
0002:0006d29c  _ceilingplane
Module: r_segs.obj(C:\PCDOOM2\r_segs.c)
0002:0006d2a0+ _maskedtexturecol
0002:0006d2a4+ _topfrac
0002:0006d2a8+ _rw_scalestep
0002:0006d2ac+ _rw_toptexturemid
0002:0006d2b0+ _worldtop
0002:0006d2b4+ _bottomstep
0002:0006d2b8+ _rw_bottomtexturemid
0002:0006d2bc+ _rw_midtexturemid
0002:0006d2c0+ _pixhigh
0002:0006d2c4+ _bottomfrac
0002:0006d2c8+ _pixlow
0002:0006d2cc+ _worldbottom
0002:0006d2d0+ _pixhighstep
0002:0006d2d4+ _rw_scale
0002:0006d2d8  _walllights
0002:0006d2dc+ _topstep
0002:0006d2e0+ _pixlowstep
0002:0006d2e4+ _worldlow
0002:0006d2e8+ _worldhigh
0002:0006d2ec+ _rw_offset
0002:0006d2f0+ _rw_centerangle
0002:0006d2f4+ _maskedtexture
0001:000211a0  R_RenderMaskedSegRange_
0001:000214c0+ R_RenderSegLoop_
0001:00021860  R_StoreWallRange_
0002:0006d2f8+ _toptexture
0002:0006d2fc+ _midtexture
0002:0006d300+ _bottomtexture
0002:0006d304+ _rw_stopx
0002:0006d308+ _segtextured
0002:0006d30c+ _markfloor
0002:0006d310+ _rw_x
0002:0006d314+ _markceiling
0002:0006d318  _rw_normalangle
0002:0006d31c  _rw_distance
0002:0006d320  _rw_angle1
Module: r_things.obj(C:\PCDOOM2\r_things.c)
0002:0006d324  _negonearray
0002:0006d5a4  _screenheightarray
0002:0006d824+ _vissprites
0002:0006f624+ _newvissprite
0002:0006f628+ _overflowsprite
0002:0006f664+ _maxframe
0002:0006f668+ _spritelights
0002:0006f66c+ _spritename
0002:0006f670+ _sprtemp
0002:0006f99c  _mfloorclip
0002:0006f9a0  _mceilingclip
0001:000223b0+ R_InstallSpriteLump_
0001:00022500+ R_InitSpriteDefs_
0001:00022740  R_InitSprites_
0001:00022780  R_ClearSprites_
0001:00022790+ R_NewVisSprite_
0001:000227c0  R_DrawMaskedColumn_
0001:00022890+ R_DrawVisSprite_
0001:000229c0+ R_ProjectSprite_
0001:00022d00  R_AddSprites_
0001:00022df0+ R_DrawPSprite_
0001:00023050+ R_DrawPlayerSprites_
0001:00023110+ R_SortVisSprites_
0001:000231f0+ R_DrawSprite_
0001:00023420  R_DrawMasked_
0002:0006f9a4  _pspritescale
0002:0006f9a8  _sprtopscreen
0002:0006f9ac  _pspriteiscale
0002:0006f9b0  _spryscale
0002:0006f9b4+ _vissprite_p
0002:0006f9b8+ _vsprsortedhead
0002:0006f9f4  _numsprites
0002:0006f9f8  _spritesRef
Module: w_wad.obj(C:\PCDOOM2\w_wad.c)
0001:00023490+ ExtractFileBase_
0001:00023510+ W_AddFile_
0001:000236f0  W_Reload_
0001:00023810  W_InitMultipleFiles_
0001:000238c0* W_InitFile_
0001:000238e0* W_NumLumps_
0001:000238f0  W_CheckNumForName_
0001:00023960  W_GetNumForName_
0001:00023990  W_LumpLength_
0001:000239c0+ W_ReadLumpEMS_
0001:00023a90  W_ReadLump_
0001:00023b50  W_CacheLumpNumCheck_
0001:00023b90  W_CacheLumpNum_
0001:00023c20  W_CacheLumpNumEMS_
0001:00023cc0  W_CacheLumpNameEMS_
0001:00023ce0  W_CacheLumpNameEMSAsPatch_
0001:00023d10* W_Profile_
0001:00023e30  W_EraseLumpCache_
0002:0006f9fc+ _info
0002:0008809c+ _profilecount
0002:000880a0+ _lumpcache
0002:000880a4+ _reloadname
0002:000880a8+ _reloadlump
0002:000880ac+ _lumpcacheEMS
0002:000880b0  _lumpinfo
0002:000880b4+ _numlumps
Module: v_video.obj(C:\PCDOOM2\v_video.c)
0001:00023e50  V_MarkRect_
0001:00023e90  V_CopyRect_
0001:00023f80  V_DrawPatch_
0001:000240b0  V_DrawPatchFlipped_
0001:000241e0  V_DrawPatchDirect_
0001:00024300  V_DrawBlock_
0001:000243b0* V_GetBlock_
0001:00024440  V_Init_
0002:00019660  _gammatable
0002:000880b8  _dirtybox
0002:000880c8  _usegamma
0002:000880cc  _screens
0002:000880e0  _screen4Ref
Module: z_zone.obj(C:\PCDOOM2\z_zone.c)
0002:000880e4+ _allocations
0002:000980e4+ _activepages
0002:000980ec+ _result2
0002:000988bc+ _result
0002:0009908c+ _mainzone
0002:00099090+ _pageevictorder
0002:00019b60+ _currentListHead
0001:00024470* Z_ClearZone_
0001:000244b0  Z_Init_
0001:00024580  Z_Free_
0001:00024620  Z_Malloc_
0001:00024750  Z_FreeTags_
0001:000247a0* Z_DumpHeap_
0001:00024860* Z_FileDumpHeap_
0001:00024910* Z_CheckHeap_
0001:000249d0  Z_ChangeTag2_
0001:00024a10  Z_ChangeTagEMSNew_
0001:00024a70* Z_FreeMemory_
0001:00024ab0* initInnerBlock_
0001:00024ad0  Z_InitEMS_
0001:00024c00  Z_FreeEMSNew_
0001:00024db0  Z_FreeTagsEMS_
0001:00024e30+ Z_MarkPageLRU_
0001:00024eb0  Z_RefIsActive2_
0001:00024f50+ Z_MarkPageMRU_
0001:00024fe0+ Z_DoPageOut_
0001:000250b0+ Z_DoPageIn_
0001:00025160+ Z_GetEMSPageFrame_
0001:000252c0  Z_LoadBytesFromEMS2_
0001:00025350+ getNumFreePages_
0001:00025380+ getFreeMemoryByteTotal_
0001:000253b0+ getBiggestFreeBlock_
0001:000253f0* getBiggestFreeBlockIndex_
0001:00025430* getNumPurgeableBlocks_
0001:00025480+ Z_GetNextFreeArrayIndex_
0001:00025500  Z_MallocEMSNew_
0001:00025520  Z_MallocEMSNewWithBackRef_
0001:000258d0* GetBlockAddress_
0002:00019b70  _numreads
0002:00019b74  _pageins
0002:00019b78  _pageouts
0002:00019b7c+ _actualpageins
0002:00019b80+ _actualpageouts
0002:00099098+ _mainzoneEMS
0002:0009909c+ _pagesize
0002:000990a0+ _copyPageArea
Module: st_stuff.obj(C:\PCDOOM2\st_stuff.c)
0002:00019b98+ _cheat_mus_seq
0002:00019ba1+ _cheat_choppers_seq
0002:00019bac+ _cheat_god_seq
0002:00019bb2+ _cheat_ammo_seq
0002:00019bb8+ _cheat_ammonokey_seq
0002:00019bbd+ _cheat_noclip_seq
0002:00019bc8+ _cheat_commercial_noclip_seq
0002:00019bcf+ _cheat_powerup_seq
0002:00019c15+ _cheat_clev_seq
0002:00019c1f+ _cheat_mypos_seq
0002:00019c27+ _cheat_mus
0002:00019c2f+ _cheat_god
0002:00019c37+ _cheat_ammo
0002:00019c3f+ _cheat_ammonokey
0002:00019c47+ _cheat_noclip
0002:00019c4f+ _cheat_commercial_noclip
0002:00019c57+ _cheat_powerup
0002:00019c8f+ _cheat_choppers
0002:00019c97+ _cheat_clev
0002:00019c9f+ _cheat_mypos
0001:00025900+ ST_refreshBackground_
0001:00025990  ST_Responder_
0001:00025e80+ ST_calcPainOffset_
0001:00025ee0+ ST_updateFaceWidget_
0001:000261f0+ ST_updateWidgets_
0001:00026330  ST_Ticker_
0001:00026360+ ST_doPaletteStuff_
0001:00026430+ ST_drawWidgets_
0001:00026530* ST_doRefresh_
0001:00026550* ST_diffDraw_
0001:00026560  ST_Drawer_
0001:000265f0+ ST_loadGraphics_
0001:00026880+ ST_loadData_
0001:000268a0+ ST_unloadGraphics_
0001:00026990* ST_unloadData_
0001:000269a0+ ST_initData_
0001:00026a60+ ST_createWidgets_
0001:00026da0  ST_Start_
0001:00026dd0+ ST_Stop_
0001:00026e20  ST_Init_
Module: st_lib.obj(C:\PCDOOM2\st_lib.c)
0001:00026e60  STlib_init_
0001:00026e80  STlib_initNum_
0001:00026eb0+ STlib_drawNum_
0001:00027050  STlib_updateNum_
0001:00027070  STlib_initPercent_
0001:000270a0  STlib_updatePercent_
0001:00027100  STlib_initMultIcon_
0001:00027130  STlib_updateMultIcon_
0001:00027220  STlib_initBinIcon_
0001:00027250  STlib_updateBinIcon_
0002:000994a8+ _sttminusRef
Module: hu_stuff.obj(C:\PCDOOM2\hu_stuff.c)
0002:00099534  _message_dontfuckwithme
0002:000998c8+ _shiftxform
0002:000998d0  _chat_on
0002:000998d4  _hu_fontRef
0002:00019cc0  _chat_macros
0002:00019ce8  _player_names
0002:00019d00+ _mapnames
0002:00019db4+ _mapnames2
0002:00019e34+ _frenchKeyMap
0001:00027320* ForeignTranslation_
0001:00027340  HU_Init_
0001:000273b0* HU_Stop_
0001:000273c0  HU_Start_
0001:00027500  HU_Drawer_
0001:00027530  HU_Erase_
0001:00027560  HU_Ticker_
0001:00027750+ HU_queueChatChar_
0001:00027790  HU_dequeueChatChar_
0001:000277c0  HU_Responder_
0002:00007870+ _french_shiftxform
0002:000078f0+ _english_shiftxform
0002:00099a30+ _chat_char
Module: hu_lib.obj(C:\PCDOOM2\hu_lib.c)
0001:00027b00* HUlib_init_
0001:00027b10+ HUlib_clearTextLine_
0001:00027b30  HUlib_initTextLine_
0001:00027b50  HUlib_addCharToTextLine_
0001:00027b90+ HUlib_delCharFromTextLine_
0001:00027bc0  HUlib_drawTextLine_
0001:00027ca0  HUlib_eraseTextLine_
0001:00027d70  HUlib_initSText_
0001:00027e00+ HUlib_addLineToSText_
0001:00027e50  HUlib_addMessageToSText_
0001:00027ea0  HUlib_drawSText_
0001:00027ef0  HUlib_eraseSText_
0001:00027f40  HUlib_initIText_
0001:00027f70+ HUlib_delCharFromIText_
0001:00027f90* HUlib_eraseLineFromIText_
0001:00027fb0  HUlib_resetIText_
0001:00027fd0* HUlib_addPrefixToIText_
0001:00028000  HUlib_keyInIText_
0001:00028040  HUlib_drawIText_
0001:00028060  HUlib_eraseIText_
Module: wi_stuff.obj(C:\PCDOOM2\wi_stuff.c)
0002:00099b92+ _lnamesRef
0001:00028090+ WI_slamBackground_
0001:000280e0* WI_Responder_
0001:000280f0+ WI_drawLF_
0001:00028140+ WI_drawEL_
0001:000281f0+ WI_drawOnLnode_
0001:00028310+ WI_initAnimatedBack_
0001:000283a0+ WI_updateAnimatedBack_
0001:000284b0+ WI_drawAnimatedBack_
0001:00028520+ WI_drawNum_
0001:00028620+ WI_drawPercent_
0001:00028670+ WI_drawTime_
0001:00028750* WI_End_
0001:00028760* WI_initNoState_
0001:00028790+ WI_updateNoState_
0001:000287c0* WI_initShowNextLoc_
0001:000287f0+ WI_updateShowNextLoc_
0001:00028850+ WI_drawShowNextLoc_
0001:000288f0* WI_drawNoState_
0001:00028910+ WI_fragSum_
0001:00028980+ WI_initDeathmatchStats_
0001:00028a00+ WI_updateDeathmatchStats_
0001:00028c90+ WI_drawDeathmatchStats_
0001:00028ef0+ WI_initNetgameStats_
0001:00028f80+ WI_updateNetgameStats_
0001:00029330+ WI_drawNetgameStats_
0001:000295a0+ WI_initStats_
0001:000295f0+ WI_updateStats_
0001:00029960+ WI_drawStats_
0001:00029ae0+ WI_checkForAccelerate_
0001:00029b70  WI_Ticker_
0001:00029c00+ WI_loadData_
0001:0002a060+ WI_unloadData_
0001:0002a2d0  WI_Drawer_
0001:0002a320+ WI_initVariables_
0001:0002a4c0  WI_Start_
Module: s_sound.obj(C:\PCDOOM2\s_sound.c)
0002:00099bac  _numChannels
0001:0002a530  S_SetMusicVolume_
0001:0002a570+ S_StopMusic_
0001:0002a620  S_ChangeMusic_
0001:0002a6e0  S_StartMusic_
0001:0002a6f0+ S_StopChannel_
0001:0002a760+ S_AdjustSoundParams_
0001:0002a8c0  S_SetSfxVolume_
0001:0002a8f0  S_PauseSound_
0001:0002a920  S_ResumeSound_
0001:0002a950  S_StopSound_
0001:0002a9a0+ S_getChannel_
0001:0002aa40+ S_StartSoundAtVolume_
0001:0002ac90  S_StartSoundFromRef_
0001:0002ace0  S_StartSound_
0001:0002ad20  S_StartSoundWithParams_
0001:0002ad40  S_UpdateSounds_
0001:0002aef0  S_Init_
0001:0002afa0  S_Start_
Module: sounds.obj(C:\PCDOOM2\sounds.c)
0002:0001a4ac  _S_music
0002:0001a8ec  _S_sfx
Module: dutils.obj(C:\PCDOOM2\dutils.c)
0001:0002b050  cht_CheckCheat_
0001:0002b140  cht_GetParam_
Module: f_wipe.obj(C:\PCDOOM2\f_wipe.c)
0001:0002b170+ wipe_shittyColMajorXform_
0001:0002b220+ wipe_initColorXForm_
0001:0002b250+ wipe_doColorXForm_
0001:0002b2d0+ wipe_exitColorXForm_
0001:0002b2e0+ wipe_initMelt_
0001:0002b3d0+ wipe_doMelt_
0001:0002b560+ wipe_exitMelt_
0001:0002b580  wipe_StartScreen_
0001:0002b5a0  wipe_EndScreen_
0001:0002b5d0  wipe_ScreenWipe_
Module: info.obj(C:\PCDOOM2\info.c)
0002:0001b860  _sprnames
0002:0001ba88  _states
0002:0002244c  _mobjinfo
Module: dmx.obj(C:\PCDOOM2\dmx.c)
0001:0002b660  TSM_Install_
0001:0002b670+ tsm_funch_
0001:0002b680  TSM_NewService_
0001:0002b6b0  TSM_DelService_
0001:0002b6d0  TSM_Remove_
0001:0002b6e0  MUS_PauseSong_
0001:0002b6f0  MUS_ResumeSong_
0001:0002b700  MUS_SetMasterVolume_
0001:0002b710  MUS_RegisterSong_
0001:0002b8c0  MUS_UnregisterSong_
0001:0002b8d0  MUS_QrySongPlaying_
0001:0002b8e0  MUS_StopSong_
0001:0002b900  MUS_ChainSong_
0001:0002b920  MUS_PlaySong_
0001:0002b960  SFX_PlayPatch_
0001:0002bab0  SFX_StopPatch_
0001:0002bad0  SFX_Playing_
0001:0002baf0  SFX_SetOrigin_
0001:0002bb60  GF1_Detect_
0001:0002bb70  GF1_SetMap_
0001:0002bbb0  SB_Detect_
0001:0002bc00  SB_SetCard_
0001:0002bc10  AL_Detect_
0001:0002bc30  AL_SetCard_
0001:0002bd70  MPU_Detect_
0001:0002bd90  MPU_SetCard_
0001:0002bda0  DMX_Init_
0001:0002be30  DMX_DeInit_
0001:0002be60  WAV_PlayMode_
0001:0002bef0  CODEC_Detect_
0001:0002bf00  ENS_Detect_
0002:00025588+ _divisors
0002:00025688+ _pcshandle
0002:0002568c+ _tsm_task
0002:00025690+ _mus_data
0002:00025694+ _mid_data
0002:00025698+ _mus_loop
0002:0002569c+ _dmx_mus_port
0002:000256a0+ _dmx_sdev
0002:00099cd0+ _dmx_blaster
0002:00099cec+ _tsm_func
0002:00099cf0+ _pcspkmuse
Module: usrhooks.obj(C:\PCDOOM2\usrhooks.c)
0001:0002bf10  USRHOOKS_GetMem_
0001:0002bf40  USRHOOKS_FreeMem_
Module: mus2mid.obj(C:\PCDOOM2\mus2mid.c)
0001:0002c510  mus2mid_
Module: pcfx.obj(C:\PRG\AUDIO\source\pcfx.c)
0001:0002c998* PCFX_ErrorString_
0001:0002c9ec  PCFX_Stop_
0001:0002cb08* PCFX_VoiceAvailable_
0001:0002cb18  PCFX_Play_
0001:0002cb9c  PCFX_SoundPlaying_
0001:0002cbc0  PCFX_SetTotalVolume_
0001:0002cc00* PCFX_GetTotalVolume_
0001:0002cc0c  PCFX_UseLookup_
0001:0002cc40* PCFX_SetCallBack_
0001:0002cc48  PCFX_Init_
0001:0002ccf4  PCFX_Shutdown_
0001:0002cd34+ PCFX_UnlockMemory_
0001:0002ce0c+ PCFX_LockMemory_
0002:000256d0+ _PCFX_Installed
0002:000256d4+ _PCFX_ErrorCode
Module: C:\WATCOM\lib386\dos\clib3r.lib(cstart)
0001:00000003  ___begtext
0002:00000000* __nullarea
0002:000256d8* __D16Infoseg
0002:000256da  __x386_zero_base_selector
0001:0002cf1c  _cstart_
0001:0002d16a  __exit_
0001:0002d16c  __do_exit_with_msg__
0001:0002d1b4  __GETDS
0001:0002d1b4  ___GETDSStart_
0001:0002d1bf  ___GETDSEnd_
Module: C:\WATCOM\lib386\dos\clib3r.lib(argcv.c)
0002:000b9f4c  __argc
0002:000b9f50  __argv
0002:000b9f54  ___argc
0002:000b9f58  ___argv
Module: C:\WATCOM\lib386\dos\clib3r.lib(int386.c)
0001:0002d1c0  int386_
Module: C:\WATCOM\lib386\dos\clib3r.lib(memset.c)
0001:0002d1e0  memset_
Module: C:\WATCOM\lib386\dos\clib3r.lib(printf.c)
0001:0002d200  printf_
Module: C:\WATCOM\lib386\dos\clib3r.lib(d_getvec.c)
0001:0002d230  _dos_getvect_
Module: C:\WATCOM\lib386\dos\clib3r.lib(d_setvec.c)
0001:0002d270  _dos_setvect_
Module: C:\WATCOM\lib386\dos\clib3r.lib(segread.c)
0001:0002d2a0  segread_
Module: C:\WATCOM\lib386\dos\clib3r.lib(intx386.c)
0001:0002d2d0  int386x_
Module: C:\WATCOM\lib386\dos\clib3r.lib(___argc.c)
0002:000b9f5c  ____Argc
0002:000b9f60  ____Argv
Module: audio_wf.lib(D:\PRG\AUDIO\source\dpmi.c)
0001:0002d2f0* DPMI_GetRealModeVector_
0001:0002d334* DPMI_SetRealModeVector_
0001:0002d370  DPMI_CallRealModeFunction_
0001:0002d3d4  DPMI_LockMemoryRegion_
0001:0002d3d8  DPMI_LockMemory_
0001:0002d430  DPMI_UnlockMemoryRegion_
0001:0002d434  DPMI_UnlockMemory_
Module: C:\WATCOM\lib386\dos\clib3r.lib(atoi.c)
0001:0002d490  atoi_
Module: C:\WATCOM\lib386\dos\clib3r.lib(vprintf.c)
0001:0002d4e0  vprintf_
Module: C:\WATCOM\lib386\dos\clib3r.lib(exit.c)
0001:0002d4f1+ __null_int23_exit_
0001:0002d4f2  exit_
0001:0002d51e* _exit_
0002:000256dc+ ___int23_exit
0002:000256e0+ ___FPE_handler_exit
Module: C:\WATCOM\lib386\dos\clib3r.lib(nmalloc.c)
0001:0002d540  _nmalloc_
0001:0002d540  malloc_
0002:000256e4  ___nheapbeg
0002:000256e8  ___MiniHeapRover
0002:000256ec  ___LargestSizeB4MiniHeapRover
Module: C:\WATCOM\lib386\dos\clib3r.lib(sprintf.c)
0001:0002d640  sprintf_
Module: C:\WATCOM\lib386\dos\clib3r.lib(iob.c)
0002:000256f0  ___iob
0002:000258f8  __fmode
0002:000b9f8c  ___OpenStreams
0002:000b9f90  ___ClosedStreams
Module: C:\WATCOM\lib386\dos\clib3r.lib(fprintf.c)
0001:0002d670  fprintf_
Module: C:\WATCOM\lib386\dos\clib3r.lib(toupper.c)
0001:0002d6a0  toupper_
Module: C:\WATCOM\lib386\dos\clib3r.lib(fopen.c)
0001:0002d6b0+ __open_flags_
0001:0002d8b0+ _fsopen_
0001:0002d900  fopen_
0001:0002d980* freopen_
Module: C:\WATCOM\lib386\dos\clib3r.lib(accss.c)
0001:0002d9e0  access_
Module: C:\WATCOM\lib386\dos\clib3r.lib(fseek.c)
0001:0002da70  fseek_
Module: C:\WATCOM\lib386\dos\clib3r.lib(ftell.c)
0001:0002db70  ftell_
Module: C:\WATCOM\lib386\dos\clib3r.lib(fread.c)
0001:0002dbc0  fread_
Module: C:\WATCOM\lib386\dos\clib3r.lib(fclose.c)
0001:0002dd90  __doclose_
0001:0002de10  __shutdown_stream_
0001:0002de30  fclose_
0002:000b9f94+ ___RmTmpFileFn
Module: C:\WATCOM\lib386\dos\clib3r.lib(setbuf.c)
0001:0002de60  setbuf_
Module: C:\WATCOM\lib386\dos\clib3r.lib(mkdir.c)
0001:0002de80  mkdir_
Module: C:\WATCOM\lib386\dos\clib3r.lib(fgetc.c)
0001:0002dea0  __fill_buffer_
0001:0002dfa0  fgetc_
Module: C:\WATCOM\lib386\dos\clib3r.lib(_strcmp)
0001:0002e040  strcmp_
Module: C:\WATCOM\lib386\dos\clib3r.lib(open.c)
0001:0002e3c0  open_
0001:0002e3e0  sopen_
Module: C:\WATCOM\lib386\dos\clib3r.lib(read.c)
0001:0002e410  read_
Module: C:\WATCOM\lib386\dos\clib3r.lib(close.c)
0001:0002e540  close_
Module: C:\WATCOM\lib386\dos\clib3r.lib(strncpy.c)
0001:0002e550  strncpy_
Module: C:\WATCOM\lib386\dos\clib3r.lib(_istrcc_.asm)
0001:0002e588  strcasecmp_
Module: C:\WATCOM\lib386\dos\clib3r.lib(write.c)
0001:0002e6a0  write_
Module: C:\WATCOM\lib386\dos\clib3r.lib(fstat.c)
0001:0002e8e0  fstat_
Module: C:\WATCOM\lib386\dos\clib3r.lib(fscanf.c)
0001:0002ea70+ vfscanf_
0001:0002eac0  fscanf_
Module: C:\WATCOM\lib386\dos\clib3r.lib(sscanf.c)
0001:0002eb30+ vsscanf_
0001:0002eb60  sscanf_
Module: C:\WATCOM\lib386\dos\clib3r.lib(stack386.c)
0001:0002eb90  stackavail_
Module: C:\WATCOM\lib386\dos\clib3r.lib(stk)
0001:0002ebb7* __STK
0001:0002eba4  __CHK
0001:0002ebb4  __GRO
0001:0002ebd5  __STKOVERFLOW_
Module: C:\WATCOM\lib386\dos\clib3r.lib(_istrncc.asm)
0001:0002ebe4  strncasecmp_
Module: C:\WATCOM\lib386\dos\clib3r.lib(_istrcmp.asm)
0001:0002ebec  strcmpi_
Module: C:\WATCOM\lib386\dos\clib3r.lib(filelen.c)
0001:0002ec00  filelength_
Module: C:\WATCOM\lib386\dos\clib3r.lib(strncmp.c)
0001:0002ec50  strncmp_
Module: C:\WATCOM\lib386\dos\clib3r.lib(lseek.c)
0001:0002ec80  lseek_
Module: C:\WATCOM\lib386\dos\clib3r.lib(nrealloc.c)
0001:0002ecb0* _nrealloc_
0001:0002ecb0  realloc_
Module: C:\WATCOM\lib386\dos\clib3r.lib(strupr.c)
0001:0002ed50  strupr_
Module: audio_wf.lib(D:\PRG\AUDIO\source\task_man.c)
0001:0002ef84  TS_Shutdown_
0001:0002eff4  TS_ScheduleTask_
0001:0002f0fc  TS_Terminate_
0001:0002f16c  TS_Dispatch_
0001:0002f1a8  TS_SetTaskRate_
0001:0002f1e4+ TS_UnlockMemory_
0001:0002f244+ TS_LockMemory_
0002:00025920+ _TS_InInterrupt
Module: audio_wf.lib(D:\PRG\AUDIO\source\music.c)
0002:00025924  _MUSIC_SoundDevice
0002:00025928+ _MUSIC_ErrorCode
0001:0002f314* MUSIC_ErrorString_
0001:0002f3b6  MUSIC_Init_
0001:0002f4ac  MUSIC_Shutdown_
0001:0002f528* MUSIC_SetMaxFMMidiChannel_
0001:0002f52d  MUSIC_SetVolume_
0001:0002f54d* MUSIC_SetMidiChannelVolume_
0001:0002f552* MUSIC_ResetMidiChannelVolumes_
0001:0002f557* MUSIC_GetVolume_
0001:0002f567* MUSIC_SetLoopFlag_
0001:0002f56c* MUSIC_SongPlaying_
0001:0002f571  MUSIC_Continue_
0001:0002f576  MUSIC_Pause_
0001:0002f57b  MUSIC_StopSong_
0001:0002f5aa  MUSIC_PlaySong_
0001:0002f5eb* MUSIC_SetContext_
0001:0002f5f0* MUSIC_GetContext_
0001:0002f5f5* MUSIC_SetSongTick_
0001:0002f5fa* MUSIC_SetSongTime_
0001:0002f5ff* MUSIC_SetSongPosition_
0001:0002f604* MUSIC_GetSongPosition_
0001:0002f609* MUSIC_GetSongLength_
0001:0002f60e+ MUSIC_InitAWE32_
0001:0002f68f+ MUSIC_InitFM_
0001:0002f748+ MUSIC_InitMidi_
0001:0002f80c+ MUSIC_InitGUS_
0001:0002f8d6* MUSIC_FadeVolume_
0001:0002f9c2* MUSIC_FadeActive_
0001:0002f9d2* MUSIC_StopFade_
0001:0002f9f0* MUSIC_RerouteMidiChannel_
0001:0002f9f5* MUSIC_RegisterTimbreBank_
Module: C:\WATCOM\lib386\dos\clib3r.lib(nfree.c)
0001:0002fa00  _nfree_
0001:0002fa00  free_
0002:000ba00c  ___MiniHeapFreeRover
Module: C:\WATCOM\lib386\dos\clib3r.lib(fwrite.c)
0001:0002fb00  fwrite_
Module: C:\WATCOM\lib386\dos\clib3r.lib(rewind.c)
0001:0002fce0  rewind_
Module: C:\WATCOM\lib386\dos\clib3r.lib(remove.c)
0001:0002fd00  remove_
Module: audio_wf.lib(D:\PRG\AUDIO\source\fx_man.c)
0001:0002fd64* FX_ErrorString_
0001:0002fe64* FX_SetupCard_
0001:00030008  FX_GetBlasterSettings_
0001:00030070  FX_SetupSoundBlaster_
0001:00030140  FX_Init_
0001:00030238  FX_Shutdown_
0001:000302d0* FX_SetCallBack_
0001:00030338  FX_SetVolume_
0001:000303b8* FX_GetVolume_
0001:000303f4* FX_SetReverseStereo_
0001:000303fc* FX_GetReverseStereo_
0001:00030404* FX_SetReverb_
0001:0003040c* FX_SetFastReverb_
0001:00030414* FX_GetMaxReverbDelay_
0001:0003041c* FX_GetReverbDelay_
0001:00030424* FX_SetReverbDelay_
0001:0003042c* FX_VoiceAvailable_
0001:00030434  FX_SetPan_
0001:00030454  FX_SetPitch_
0001:00030474* FX_SetFrequency_
0001:00030494* FX_PlayVOC_
0001:000304c8* FX_PlayLoopedVOC_
0001:00030508* FX_PlayWAV_
0001:0003053c* FX_PlayLoopedWAV_
0001:0003057c* FX_PlayVOC3D_
0001:000305ac* FX_PlayWAV3D_
0001:000305dc  FX_PlayRaw_
0001:0003061c* FX_PlayLoopedRaw_
0001:00030668* FX_Pan3D_
0001:00030688  FX_SoundActive_
0001:00030690* FX_SoundsPlaying_
0001:00030698  FX_StopSound_
0001:000306b4* FX_StopAllSounds_
0001:000306d0* FX_StartDemandFeedPlayback_
0001:0003070c* FX_StartRecording_
0001:00030750* FX_StopRecord_
0002:00025930+ _FX_SoundDevice
0002:00025934+ _FX_ErrorCode
0002:00025938+ _FX_Installed
Module: audio_wf.lib(D:\PRG\AUDIO\source\al_midi.c)
0001:00030770+ AL_SendOutputToPort_
0001:000307ac+ AL_SendOutput_
0001:00031224+ AL_FlushCard_
0001:00031344+ AL_StereoOn_
0001:000313a0+ AL_StereoOff_
0001:000313ec+ AL_Reset_
0001:0003145c* AL_ReserveVoice_
0001:00031504* AL_ReleaseVoice_
0001:00031578  AL_NoteOff_
0001:000316bc  AL_NoteOn_
0001:0003179c* AL_AllNotesOff_
0001:000317dc  AL_ControlChange_
0001:00031984  AL_ProgramChange_
0001:000319a4  AL_SetPitchBend_
0001:00031a28  AL_DetectFM_
0001:00031b0c  AL_Shutdown_
0001:00031c44  AL_SetMaxMidiChannel_
0001:00031c4c  AL_Init_
0001:00031e6c  AL_RegisterTimbreBank_
Module: audio_wf.lib(D:\PRG\AUDIO\source\mpu401.c)
0001:00031f00+ MPU_SendMidi_
0001:00031f38  MPU_NoteOff_
0001:00031f4c  MPU_NoteOn_
0001:00031f60  MPU_PolyAftertouch_
0001:00031f74  MPU_ControlChange_
0001:00031f8c  MPU_ProgramChange_
0001:00031f9c  MPU_ChannelAftertouch_
0001:00031fac  MPU_PitchBend_
0001:00031fc4+ MPU_SendCommand_
0001:00031ff4  MPU_Reset_
0001:00032038+ MPU_EnterUART_
0001:0003207c  MPU_Init_
0001:000320bc* MPU_UnlockMemory_
0001:000320ec* MPU_LockMemory_
0002:00026018+ _MPU_BaseAddr
0002:0002601c+ _MPU_Delay
Module: C:\WATCOM\lib386\dos\clib3r.lib(cmain386.c)
0001:00032160  __CMain
Module: C:\WATCOM\lib386\dos\clib3r.lib(initrtns.c)
0001:000321b0  __InitRtns
0001:00032200  __FiniRtns
Module: C:\WATCOM\lib386\dos\clib3r.lib(dosseg)
0000:00001234  __DOSseg__
Module: C:\WATCOM\lib386\dos\clib3r.lib(crwdata)
0002:0002605b  __osmajor
0002:0002605c  __osminor
0002:00026030  __psp
0002:00026052  __Extender
0002:00026053  __ExtenderSubtype
0002:00026054  __X32VM
0002:00026034* __x386_stacklow
0002:00026028  __LpCmdLine
0002:0002602c  __LpPgmName
0002:00026020  __dynend
0002:00026024  __curbrk
0002:00026034  __STACKLOW
0002:00026038  __STACKTOP
0002:0002603c  __ASTACKSIZ
0002:00026040  __ASTACKPTR
0002:00026044  __cbyte
0002:00026048* __cbyte2
0002:0002604c  __child
0002:00026055  __Envptr
0002:00026059  __Envseg
0002:00026050  __no87
0002:0002605d  ___FPE_handler
Module: C:\WATCOM\lib386\dos\clib3r.lib(uselfn.c)
0002:00026064  ___uselfn
Module: C:\WATCOM\lib386\dos\clib3r.lib(initargv.c)
0001:00032260  __Init_Argv_
0001:000322b0+ _getargv_
0001:00032450  __Fini_Argv_
Module: C:\WATCOM\lib386\dos\clib3r.lib(__stos)
0001:00032460  __STOSB
0001:00032497  __STOSD
Module: C:\WATCOM\lib386\dos\clib3r.lib(fprtf.c)
0001:00032530  __fprtf_
Module: C:\WATCOM\lib386\dos\clib3r.lib(int386xa)
0001:000325c8  __int386x_
0001:00032624* _DoINTR_
Module: C:\WATCOM\lib386\dos\clib3r.lib(istable.c)
0002:00007998  __IsTable
Module: C:\WATCOM\lib386\dos\clib3r.lib(nmemneed.c)
0001:000329b0  __nmemneed_
Module: C:\WATCOM\lib386\dos\clib3r.lib(mem.c)
0001:000329c0  __MemAllocator
0001:00032a70  __MemFree
Module: C:\WATCOM\lib386\dos\clib3r.lib(grownear.c)
0001:00032c30+ __FreeDPMIBlocks_
0001:00032ca0  __ReAllocDPMIBlock_
0001:00032e30+ __LastFree_
0001:000330a0  __ExpandDGROUP_
Module: C:\WATCOM\lib386\dos\clib3r.lib(vsprintf.c)
0001:00033210  vsprintf_
Module: C:\WATCOM\lib386\dos\clib3r.lib(initfile.c)
0001:00033230  __InitFiles_
Module: C:\WATCOM\lib386\dos\clib3r.lib(ioexit.c)
0001:00033330* fcloseall_
0001:00033340  __full_io_exit_
Module: C:\WATCOM\lib386\dos\clib3r.lib(comtflag.c)
0001:00033350* __set_commode_
0002:00026068  __commode
Module: C:\WATCOM\lib386\dos\clib3r.lib(seterrno.c)
0001:0003335b  __set_errno_
0001:00033367* __set_EDOM_
0001:00033373* __set_ERANGE_
0001:0003337f* __set_EINVAL_
0001:00033390  __set_doserrno_
Module: C:\WATCOM\lib386\dos\clib3r.lib(tolower.c)
0001:000333a0  tolower_
Module: C:\WATCOM\lib386\dos\clib3r.lib(chktty.c)
0001:000333b0  __chktty_
Module: C:\WATCOM\lib386\dos\clib3r.lib(freefp.c)
0001:000333f0  __freefp_
0001:00033430  __purgefp_
Module: C:\WATCOM\lib386\dos\clib3r.lib(allocfp.c)
0001:00033460  __allocfp_
Module: C:\WATCOM\lib386\dos\clib3r.lib(gfattdos.c)
0001:00033520  _dos_getfileattr_
Module: C:\WATCOM\lib386\dos\clib3r.lib(dosret.c)
0001:00033540  _dosretax_
0001:00033550* _dosret0_
0001:00033560  __set_errno_dos_
0001:000335e0* __set_errno_dos_reterr_
Module: C:\WATCOM\lib386\dos\clib3r.lib(flush.c)
0001:000335f0  __flush_
Module: C:\WATCOM\lib386\dos\clib3r.lib(tell.c)
0001:000336e0  tell_
Module: C:\WATCOM\lib386\dos\clib3r.lib(fflush.c)
0001:00033700  fflush_
Module: C:\WATCOM\lib386\dos\clib3r.lib(qread.c)
0001:00033710  __qread_
Module: C:\WATCOM\lib386\dos\clib3r.lib(ioalloc.c)
0001:00033740  __ioalloc_
Module: C:\WATCOM\lib386\dos\clib3r.lib(__lseek.c)
0001:000337e0  __lseek_
Module: C:\WATCOM\lib386\dos\clib3r.lib(_clse.c)
0001:00033830  __close_
Module: C:\WATCOM\lib386\dos\clib3r.lib(setvbuf.c)
0001:00033880  setvbuf_
Module: C:\WATCOM\lib386\dos\clib3r.lib(doserror)
0001:000338e8  __doserror_
Module: C:\WATCOM\lib386\dos\clib3r.lib(flushall.c)
0001:00033900  __flushall_
0001:00033940  flushall_
Module: C:\WATCOM\lib386\dos\clib3r.lib(gtche.c)
0001:00033950  getche_
Module: C:\WATCOM\lib386\dos\clib3r.lib(opendos.c)
0001:00033970  _dos_open_
Module: C:\WATCOM\lib386\dos\clib3r.lib(iomode.c)
0001:00033990  __GetIOMode_
0001:000339b0  __SetIOMode_nogrow_
0002:00026080  ___NFiles
0002:00026084  ___init_mode
0002:000260d4  ___io_mode
Module: C:\WATCOM\lib386\dos\clib3r.lib(isatt.c)
0001:000339d0  isatty_
Module: C:\WATCOM\lib386\dos\clib3r.lib(errno.c)
0001:000339f0  __get_errno_ptr_
0001:00033a00  __get_doserrno_ptr_
0002:000baa98+ _errno
0002:000baa9c+ __doserrno
Module: C:\WATCOM\lib386\dos\clib3r.lib(umaskval.c)
0002:000260d8  ___umaskval
Module: C:\WATCOM\lib386\dos\clib3r.lib(creatdos.c)
0001:00033a10  _dos_creat_
0001:00033a30* _dos_creatnew_
Module: C:\WATCOM\lib386\dos\clib3r.lib(stiomode.c)
0001:00033a50+ __grow_iomode_
0001:00033b10+ __shrink_iomode_
0001:00033b40  __SetIOMode_
Module: C:\WATCOM\lib386\dos\clib3r.lib(iomodtty.c)
0001:00033bb0  __ChkTTYIOMode_
0001:00033bf0* __IOMode_
Module: C:\WATCOM\lib386\dos\clib3r.lib(stricmp.c)
0001:00033c10  stricmp_
Module: C:\WATCOM\lib386\dos\clib3r.lib(d2ttime.c)
0001:00033c50  _d2ttime_
Module: C:\WATCOM\lib386\dos\clib3r.lib(ungetc.c)
0001:00033cd0  ungetc_
Module: C:\WATCOM\lib386\dos\clib3r.lib(scnf.c)
0001:00034ab0  __scnf_
Module: C:\WATCOM\lib386\dos\clib3r.lib(xmsg.c)
0001:00034d20* __exit_with_msg_
0001:00034d30  __fatal_runtime_error_
Module: C:\WATCOM\lib386\dos\clib3r.lib(strnicmp.c)
0001:00034d50  strnicmp_
Module: C:\WATCOM\lib386\dos\clib3r.lib(nmsize.c)
0001:00034da0  _nmsize_
0001:00034da0* _msize_
Module: C:\WATCOM\lib386\dos\clib3r.lib(nexpand.c)
0001:00034db0  _nexpand_
0001:00034db0* _expand_
0001:00034e20+ __HeapManager_expand_
Module: C:\WATCOM\lib386\dos\clib3r.lib(chainint)
0001:00034ff0  _chain_intr_
Module: audio_wf.lib(D:\PRG\AUDIO\source\blaster.c)
0002:000baab8+ _BLASTER_Version
0002:000baac0+ _BLASTER_SoundPlaying
0002:000baac4+ _BLASTER_CallBack
0002:000baacc+ _BLASTER_SoundRecording
0002:000baae4+ _BLASTER_Card
0002:000baaf8  _BLASTER_DMAChannel
0002:000260dc  _BLASTER_Config
0001:00035020+ _BLASTER_Interrupts
0001:00035060+ _BLASTER_SampleSize
0001:00035070* _BLASTER_CardConfig
0001:0003513c  BLASTER_ErrorString_
0001:000351c0+ BLASTER_EnableInterrupt_
0001:00035210+ BLASTER_DisableInterrupt_
0001:00035288+ BLASTER_ServiceInterrupt_
0001:000353e0+ BLASTER_ReadDSP_
0001:0003542c+ BLASTER_ResetDSP_
0001:0003548c+ BLASTER_GetDSPVersion_
0001:000355a0* BLASTER_SpeakerOn_
0001:000355a8* BLASTER_SpeakerOff_
0001:000355b0+ BLASTER_WriteDSP_
0001:000355e8+ BLASTER_SetPlaybackRate_
0001:0003570c  BLASTER_GetPlaybackRate_
0001:00035714  BLASTER_SetMixMode_
0001:00035794  BLASTER_StopPlayback_
0001:000357f4+ BLASTER_SetupDMABuffer_
0001:00035878  BLASTER_GetCurrentPos_
0001:000358ec+ BLASTER_DSP1xx_BeginPlayback_
0001:0003592c+ BLASTER_DSP2xx_BeginPlayback_
0001:000359b0+ BLASTER_DSP4xx_BeginPlayback_
0001:00035a50  BLASTER_BeginBufferedPlayback_
0001:00035adc+ BLASTER_DSP4xx_BeginRecord_
0001:00035b24+ BLASTER_DSP2xx_BeginRecord_
0001:00035ba8+ BLASTER_DSP1xx_BeginRecord_
0001:00035be8  BLASTER_BeginBufferedRecord_
0001:00035c74+ BLASTER_WriteMixer_
0001:00035c90+ BLASTER_ReadMixer_
0001:00035cac  BLASTER_GetVoiceVolume_
0001:00035d50  BLASTER_SetVoiceVolume_
0001:00035dfc  BLASTER_GetMidiVolume_
0001:00035ea0  BLASTER_SetMidiVolume_
0001:00035f4c  BLASTER_CardHasMixer_
0001:00035f54* BLASTER_SaveVoiceVolume_
0001:00035fc8* BLASTER_RestoreVoiceVolume_
0001:00036038  BLASTER_SaveMidiVolume_
0001:000360ac  BLASTER_RestoreMidiVolume_
0001:0003611c  BLASTER_GetEnv_
0001:000362a0  BLASTER_SetCardSettings_
0001:00036320  BLASTER_GetCardSettings_
0001:00036370  BLASTER_GetCardInfo_
0001:000363a8* BLASTER_SetCallBack_
0001:000363b4+ BLASTER_UnlockMemory_
0001:0003656c+ BLASTER_LockMemory_
0001:00036818  BLASTER_SetupWaveBlaster_
0001:0003685c  BLASTER_ShutdownWaveBlaster_
0001:00036888  BLASTER_Init_
0001:00036b08  BLASTER_Shutdown_
0002:00026130+ _BLASTER_ErrorCode
Module: audio_wf.lib(D:\PRG\AUDIO\source\pas16.c)
0002:000bab5c+ _PAS_CallBack
0002:000bab64+ _PAS_SoundPlaying
0002:000bab68  _PAS_DMAChannel
0001:00036c60  PAS_ErrorString_
0001:00036ccc+ PAS_CheckForDriver_
0001:00036d50+ PAS_GetStateTable_
0001:00036da4+ PAS_GetFunctionTable_
0001:00036df8+ PAS_GetCardSettings_
0001:00036ed4+ PAS_EnableInterrupt_
0001:00036f78+ PAS_DisableInterrupt_
0001:0003704c+ PAS_ServiceInterrupt_
0001:0003713c* PAS_Write_
0001:0003714c+ PAS_Read_
0001:0003715c+ PAS_SetSampleRateTimer_
0001:000371e4+ PAS_SetSampleBufferCount_
0001:00037270+ PAS_SetPlaybackRate_
0001:000372d8  PAS_GetPlaybackRate_
0001:000372e0  PAS_SetMixMode_
0001:00037310  PAS_StopPlayback_
0001:00037378+ PAS_SetupDMABuffer_
0001:000373ec  PAS_GetCurrentPos_
0001:00037458+ PAS_GetFilterSetting_
0001:000374a0+ PAS_BeginTransfer_
0001:00037578  PAS_BeginBufferedPlayback_
0001:000375f4  PAS_BeginBufferedRecord_
0001:0003766c+ PAS_CallMVFunction_
0001:000376cc  PAS_SetPCMVolume_
0001:0003773c  PAS_GetPCMVolume_
0001:000377c4  PAS_SetFMVolume_
0001:00037830  PAS_GetFMVolume_
0001:000378a4  PAS_GetCardInfo_
0001:000378fc* PAS_SetCallBack_
0001:00037904+ PAS_FindCard_
0001:000379e4  PAS_SaveMusicVolume_
0001:00037adc  PAS_RestoreMusicVolume_
0001:00037b20* PAS_SaveState_
0001:00037b74* PAS_RestoreState_
0001:00037d2c  PAS_Init_
0001:00037fd4  PAS_Shutdown_
0001:000380bc+ PAS_UnlockMemory_
0001:00038274+ PAS_LockMemory_
0002:00026168+ _PAS_ErrorCode
Module: audio_wf.lib(D:\PRG\AUDIO\source\sndscape.c)
0002:000babc0+ _SOUNDSCAPE_CallBack
0002:000babc8+ _SOUNDSCAPE_SoundPlaying
0001:00038490+ _SOUNDSCAPE_Interrupts
0001:000384d0+ _SOUNDSCAPE_SampleSize
0001:0003852c  SOUNDSCAPE_ErrorString_
0001:000388a8* SOUNDSCAPE_SetPlaybackRate_
0001:000388f4  SOUNDSCAPE_GetPlaybackRate_
0001:000388fc  SOUNDSCAPE_SetMixMode_
0001:0003891c  SOUNDSCAPE_StopPlayback_
0001:000389c4  SOUNDSCAPE_GetCurrentPos_
0001:00038a94  SOUNDSCAPE_BeginBufferedPlayback_
0001:00038b5c  SOUNDSCAPE_GetCardInfo_
0001:00038b78* SOUNDSCAPE_SetCallBack_
0001:00039650  SOUNDSCAPE_GetMIDIPort_
0001:00039660  SOUNDSCAPE_Init_
0001:00039758  SOUNDSCAPE_Shutdown_
0002:00026188  _SOUNDSCAPE_DMAChannel
0002:0002618c+ _SOUNDSCAPE_ErrorCode
Module: audio_wf.lib(D:\PRG\AUDIO\source\awe32.c)
0001:00039940  AWE32_ErrorString_
0001:00039990  AWE32_NoteOff_
0001:000399e8  AWE32_NoteOn_
0001:00039a40  AWE32_PolyAftertouch_
0001:00039a78  AWE32_ChannelAftertouch_
0001:00039aa4  AWE32_ControlChange_
0001:00039b38  AWE32_ProgramChange_
0001:00039b64  AWE32_PitchBend_
0001:00039f78  AWE32_Init_
0001:0003a1e4  AWE32_Shutdown_
0002:000262bc+ _AWE32_ErrorCode
Module: audio_wf.lib(D:\PRG\AUDIO\source\gus.c)
0001:0003a2cb  GUS_ErrorString_
0001:0003a3b3+ D32DosMemAlloc_
0001:0003a41a  GUS_Init_
0001:0003a538  GUS_Shutdown_
0001:0003a577  GUSWAVE_Shutdown_
0002:000262c8  _GUS_AuxError
0002:000262cc  _GUS_ErrorCode
0002:000bace4  _GUS_HoldBuffer
0002:000bacec  _GUS_MemConfig
0002:000bacf0+ _GUS_TotalMemory
Module: audio_wf.lib(D:\PRG\AUDIO\source\user.c)
0001:0003a600  USER_CheckParameter_
0001:0003a660  USER_GetText_
Module: audio_wf.lib(D:\PRG\AUDIO\source\ll_man.c)
0001:0003a6d0  LL_AddNode_
0001:0003a6f8  LL_RemoveNode_
0001:0003a758  LL_UnlockMemory_
0001:0003a76c  LL_LockMemory_
Module: audio_wf.lib(D:\PRG\AUDIO\source\midi.c)
0002:000bad34  _MIDI_PatchMap
0001:0003b244  MIDI_RerouteMidiChannel_
0001:0003b258+ MIDI_AllNotesOff_
0001:0003b33c  MIDI_SetUserChannelVolume_
0001:0003b374  MIDI_ResetUserChannelVolume_
0001:0003b3d0+ MIDI_Reset_
0001:0003b488  MIDI_SetVolume_
0001:0003b508  MIDI_GetVolume_
0001:0003b534  MIDI_SetContext_
0001:0003b544  MIDI_GetContext_
0001:0003b54c  MIDI_SetLoopFlag_
0001:0003b554  MIDI_ContinueSong_
0001:0003b568  MIDI_PauseSong_
0001:0003b584  MIDI_SongPlaying_
0001:0003b58c  MIDI_SetMidiFuncs_
0001:0003b594  MIDI_StopSong_
0001:0003b618  MIDI_PlaySong_
0001:0003b8e0* MIDI_SetTempo_
0001:0003b928* MIDI_GetTempo_
0001:0003bc10  MIDI_SetSongTick_
0001:0003bc90  MIDI_SetSongTime_
0001:0003bd3c  MIDI_SetSongPosition_
0001:0003bdf4  MIDI_GetSongPosition_
0001:0003be58  MIDI_GetSongLength_
0001:0003c54c+ MIDI_LoadTimbres_
0001:0003c6c0+ MIDI_UnlockMemory_
0001:0003c878* MIDI_LockMemory_
0002:0002637c+ _MIDI_Tempo
Module: audio_wf.lib(D:\PRG\AUDIO\source\gusmidi.c)
0001:0003ca7b+ GUS_GetPatchMap_
0001:0003cc8b+ GUSMIDI_UnloadPatch_
0001:0003cd41+ GUSMIDI_LoadPatch_
0001:0003cec5  GUSMIDI_ProgramChange_
0001:0003cf2f  GUSMIDI_NoteOn_
0001:0003cfbd  GUSMIDI_NoteOff_
0001:0003cfee  GUSMIDI_ControlChange_
0001:0003d022  GUSMIDI_PitchBend_
0001:0003d056+ GUSMIDI_ReleasePatches_
0001:0003d09b  GUSMIDI_SetVolume_
0001:0003d10c  GUSMIDI_GetVolume_
0001:0003d138  GUSMIDI_Init_
0001:0003d264  GUSMIDI_Shutdown_
0002:000263e1  _GUSMIDI_Installed
Module: C:\WATCOM\lib386\dos\clib3r.lib(qwrit.c)
0001:0003d2a0  __qwrite_
Module: C:\WATCOM\lib386\dos\clib3r.lib(fputc.c)
0001:0003d320  fputc_
Module: C:\WATCOM\lib386\dos\clib3r.lib(unlnk.c)
0001:0003d3e0  unlink_
Module: audio_wf.lib(D:\PRG\AUDIO\source\guswave.c)
0002:000be948  _GUSWAVE_Voices
0002:000263f0  _GUSWAVE_Installed
0001:0003d4ac  GUSWAVE_ErrorString_
0001:0003d7c0* GUSWAVE_VoicePlaying_
0001:0003d7d0+ GUSWAVE_VoicesPlaying_
0001:0003d82c+ GUSWAVE_Kill_
0001:0003d8d4  GUSWAVE_KillAllVoices_
0001:0003d9bc* GUSWAVE_SetPitch_
0001:0003da28* GUSWAVE_SetPan3D_
0001:0003dadc  GUSWAVE_SetVolume_
0001:0003db64  GUSWAVE_GetVolume_
0001:0003dc60* GUSWAVE_VoiceAvailable_
0001:0003dce0+ GUSWAVE_GetNextVOCBlock_
0001:0003df3c+ GUSWAVE_GetNextWAVBlock_
0001:0003df94+ GUSWAVE_GetNextDemandFeedBlock_
0001:0003e00c+ GUSWAVE_Play_
0001:0003e170* GUSWAVE_PlayVOC_
0001:0003e2d0* GUSWAVE_PlayWAV_
0001:0003e4e4  GUSWAVE_StartDemandFeedPlayback_
0001:0003e5c0* GUSWAVE_SetReverseStereo_
0001:0003e5c8* GUSWAVE_GetReverseStereo_
0001:0003e6c0* GUSWAVE_SetCallBack_
0001:0003e6c8  GUSWAVE_Init_
0002:00026404+ _GUSWAVE_ErrorCode
0002:00026408+ _GUS_Silence8
0002:00026808+ _GUS_Silence16
Module: audio_wf.lib(D:\PRG\AUDIO\source\sndsrc.c)
0002:000bea30+ _SS_CallBack
0002:000bea38+ _SS_SoundPlaying
0001:0003e774  SS_ErrorString_
0001:0003e888  SS_StopPlayback_
0001:0003e8d4* SS_GetCurrentPos_
0001:0003e900  SS_BeginBufferedPlayback_
0001:0003e984* SS_GetPlaybackRate_
0001:0003e98c  SS_SetMixMode_
0001:0003e990* SS_SetPort_
0001:0003e9e0* SS_SetCallBack_
0001:0003e9e8+ SS_TestTimer_
0001:0003e9f0+ SS_TestSoundSource_
0001:0003ea80+ SS_DetectSoundSource_
0001:0003eb54  SS_Init_
0001:0003ec30  SS_Shutdown_
0001:0003ec68+ SS_UnlockMemory_
0001:0003ed6c+ SS_LockMemory_
0002:00026c28+ _SS_ErrorCode
Module: audio_wf.lib(D:\PRG\AUDIO\source\multivoc.c)
0002:000c7a84  _MV_MixDestination
0002:000c7a88  _MV_RightChannelOffset
0002:000c7a94  _MV_HarshClipTable
0002:000c7a98  _MV_LeftVolume
0002:000c7aa4+ _MV_MixBuffer
0002:000c7af0  _MV_MixPosition
0002:000c7af4  _MV_RightVolume
0001:0003ef02  MV_ErrorString_
0001:0003f448+ MV_ServiceGus_
0001:0003f479+ MV_ServiceRightGus_
0001:0003fa0e  MV_VoicePlaying_
0001:0003fa37  MV_KillAllVoices_
0001:0003fa6f  MV_Kill_
0001:0003fae0  MV_VoicesPlaying_
0001:0003fbf2  MV_VoiceAvailable_
0001:0003fc6a  MV_SetPitch_
0001:0003fcd7  MV_SetFrequency_
0001:0003fec4+ MV_SetVoiceVolume_
0001:0003ff08  MV_SetPan_
0001:0003ff47  MV_Pan3D_
0001:0003ffb2  MV_SetReverb_
0001:0003fff1  MV_SetFastReverb_
0001:0004001b  MV_GetMaxReverbDelay_
0001:00040024  MV_GetReverbDelay_
0001:0004003c  MV_SetReverbDelay_
0001:00040075+ MV_SetMixMode_
0001:0004020b+ MV_StartPlayback_
0001:00040483+ MV_StopPlayback_
0001:00040508  MV_StartRecording_
0001:0004060b  MV_StopRecord_
0001:00040641  MV_StartDemandFeedPlayback_
0001:00040758  MV_PlayRaw_
0001:00040781  MV_PlayLoopedRaw_
0001:00040887  MV_PlayWAV_
0001:000408ae  MV_PlayWAV3D_
0001:00040957  MV_PlayLoopedWAV_
0001:00040bd8  MV_PlayVOC3D_
0001:00040c7e  MV_PlayVOC_
0001:00040ca4  MV_PlayLoopedVOC_
0001:00040ef6  MV_SetVolume_
0001:00040fca  MV_GetVolume_
0001:00040fd0  MV_SetCallBack_
0001:00040fd6  MV_SetReverseStereo_
0001:00040fdc  MV_GetReverseStereo_
0001:00040fe2+ MV_TestPlayback_
0001:000410d8  MV_Init_
0001:00041465  MV_Shutdown_
0001:000415b7+ MV_UnlockMemory_
0001:00041826+ MV_LockMemory_
0002:00026c84  _MV_SampleSize
0002:00026c88  _MV_ErrorCode
0002:00026c8c+ _leftpage
0002:00026c90+ _rightpage
Module: audio_wf.lib(D:\PRG\AUDIO\source\gmtimbre.c)
0002:00026c94  _ADLIB_TimbreBank
Module: C:\WATCOM\lib386\dos\clib3r.lib(atol.c)
0001:00041b10  atol_
Module: C:\WATCOM\lib386\dos\clib3r.lib(cinit.c)
0001:00041b60  __CommonInit_
Module: C:\WATCOM\lib386\dos\clib3r.lib(sgdef086)
0002:0002e6e8  __Start_XI
0002:0002e712  __End_XI
0002:0002e712  __Start_YI
0002:0002e730  __End_YI
Module: C:\WATCOM\lib386\dos\clib3r.lib(histsplt.c)
0002:000c7b08  ___historical_splitparms
Module: C:\WATCOM\lib386\dos\clib3r.lib(prtf.c)
0001:00041bc0  __prtf_
Module: C:\WATCOM\lib386\dos\clib3r.lib(heapen.c)
0001:00042a30* _heapenable_
0002:00027994  ___heap_enabled
Module: C:\WATCOM\lib386\dos\clib3r.lib(minreal.c)
0002:000c7b0c  ___minreal
Module: C:\WATCOM\lib386\dos\clib3r.lib(amblksiz.c)
0002:00027998  __amblksiz
Module: C:\WATCOM\lib386\dos\clib3r.lib(sbrk386.c)
0001:00042a40* sbrk_
0001:00042b20  __brk_
Module: C:\WATCOM\lib386\dos\clib3r.lib(fsync.c)
0001:00042c40  fsync_
Module: C:\WATCOM\lib386\dos\clib3r.lib(mktime.c)
0001:00042c50  mktime_
Module: C:\WATCOM\lib386\dos\clib3r.lib(mbisdbcs.c)
0002:000c7b10  ___IsDBCS
Module: C:\WATCOM\lib386\dos\clib3r.lib(mbislead.c)
0001:00042ce0* _ismbblead_
0002:000c7b14  ___MBCSIsTable
Module: C:\WATCOM\lib386\dos\clib3r.lib(mbtowc.c)
0001:00042d00  mbtowc_
Module: C:\WATCOM\lib386\dos\clib3r.lib(bits.c)
0002:00007a9c  __Bits
Module: C:\WATCOM\lib386\dos\clib3r.lib(noefgfmt.c)
0002:0002799c  ___EFG_printf
0002:000279a0  ___EFG_scanf
Module: C:\WATCOM\lib386\dos\clib3r.lib(fdfs386)
0001:00042dd4  __FDFS
Module: C:\WATCOM\lib386\dos\clib3r.lib(i8m)
0001:00042e20* __I8M
0001:00042e20  __U8M
Module: C:\WATCOM\lib386\dos\clib3r.lib(enterdb.c)
0001:00042e40  __EnterWVIDEO_
0002:000279a4+ ___WD_Present
Module: audio_wf.lib(D:\PRG\AUDIO\source\dma.c)
0001:00042f80  DMA_ErrorString_
0001:00042fc8  DMA_VerifyChannel_
0001:00043010  DMA_SetupTransfer_
0001:00043118  DMA_EndTransfer_
0001:0004314c  DMA_GetCurrentPos_
0001:000431a8* DMA_GetTransferCount_
0002:000279a8+ _DMA_ErrorCode
Module: C:\WATCOM\lib386\dos\clib3r.lib(getenv.c)
0001:00043220  getenv_
Module: audio_wf.lib(D:\PRG\AUDIO\source\irq.c)
0001:000432f8* rmcallback_
0001:00043388  IRQ_SetVector_
0001:000435a0  IRQ_RestoreVector_
Module: C:\WATCOM\lib386\dos\clib3r.lib(clockdos.c)
0001:00043670+ __ibm_bios_get_ticks_
0001:000436f0  clock_
Module: C:\WATCOM\lib386\dos\clib3r.lib(fgets.c)
0001:00043710  fgets_
Module: C:\WATCOM\lib386\dos\clib3r.lib(strstr.c)
0001:00043780  strstr_
Module: C:\WATCOM\lib386\dos\clib3r.lib(strtol.c)
0001:00043a70* strtoul_
0001:00043a80  strtol_
Module: audio_wf.lib(midieng.c)
0001:00043a90  ___midieng_code
0001:00043a98  AWE32INITMIDI
0001:00045288  AWE32PROGRAMCHANGE
0001:00043b40  AWE32REGW
0001:00043ba8  AWE32REGRW
0001:00043c10  AWE32REGDW
0001:00043c88  AWE32REGRDW
0001:00043cfc  ___awe32AllocGChannel
0001:00044970  AWE32NOTEOFF
0001:00044a90  AWE32NOTEON
0001:00044f68  AWE32CONTROLLER
0001:00045440  AWE32POLYKEYPRESSURE
0001:00045448  AWE32CHANNELPRESSURE
0001:00045490  AWE32PITCHBEND
0001:0004567c* AWE32SYSEX
0001:000456fc  ___midieng_ecode
Module: audio_wf.lib(embed.c)
0002:00028014  ___embed_data
0002:00028018  _awe32SPad1Obj
0002:00028220  _awe32SPad2Obj
0002:0002838c  _awe32SPad3Obj
0002:00028900  _awe32SPad4Obj
0002:00028a68  _awe32SPad5Obj
0002:00029034  _awe32SPad6Obj
0002:0002bab4  _awe32SPad7Obj
0002:0002c434  ___embed_edata
Module: audio_wf.lib(sbkload.c)
0001:00045704* ___sbkload_code
0001:0004570c  AWE32TOTALPATCHRAM
0001:00045720  AWE32DEFINEBANKSIZES
0001:000457e0* AWE32RELEASEBANK
0001:00045878* AWE32RELEASEALLBANKS
0001:00045d5c* AWE32SETPRESETS
0001:000463a0* AWE32STREAMSAMPLE
0001:00046408* AWE32SFONTLOADREQUEST
0001:00046580* AWE32WPLOADREQUEST
0001:0004662c* AWE32WPLOADWAVE
0001:000466a0* AWE32WPSTREAMWAVE
0001:00046748* AWE32WPBUILDSFONT
0001:000468d0* __AWE32NOTEOFF
0001:00046968* __AWE32ISPLAYING
0001:00046a10* ___sbkload_ecode
Module: audio_wf.lib(midivar.c)
0002:0002c640  ___midivar_data
0002:0002c644  _awe32NumG
0002:0002c646  _awe32BaseAddx
0002:0002c648  _awe32DramSize
0002:0002c64c  _awe32Scratch
0002:0002c90c  _awe32SFont
0002:0002cafc  _awe32GChannel
0002:0002cd7c  _awe32MIDIChannel
0002:0002cf7c  _awe32SoundPad
0002:0002cf98  ___midivar_edata
Module: audio_wf.lib(hardware.c)
0001:00046a18* ___hardware_code
0001:00046a20  AWE32DETECT
0001:000472c0  AWE32INITHARDWARE
0001:00047408  AWE32TERMINATE
0001:00047474* ___hardware_ecode
Module: audio_wf.lib(nrpn.c)
0001:0004747c  ___nrpn_code
0001:00047484  AWE32INITNRPN
0001:00047f6c  ___nrpn_ecode
Module: audio_wf.lib(nrpnvar.c)
0002:0002d3e8  ___nrpnvar_data
0002:0002d3ec  _awe32NRPNChannel
0002:0002d9ec  ___nrpnvar_edata
Module: audio_wf.lib(C:\PRG\NEWGF1\GF1NEW\gf1error.c)
0001:00047fcc  gf1_error_str_
Module: C:\WATCOM\lib386\dos\clib3r.lib(strerror.c)
0001:000480a0  strerror_
0001:000480c0* _strerror_
0002:0002d9f0+ __sys_errlist
0002:0002da94+ __sys_nerr
Module: audio_wf.lib(C:\PRG\NEWGF1\GF1NEW\gf1utils.c)
0001:00048190  GetUltraCfg_
Module: audio_wf.lib(C:\PRG\NEWGF1\GF1NEW\gf1init.c)
0001:000483c0+ gf1_initialize_
0001:0004846c+ gf1_ramp_down_
0001:00048618  gf1_load_os_
0001:00048704  gf1_unload_os_
0001:000488fc+ reset_ultra_
0002:000c7d60* _old_gf1_service
0002:000c7d66* _old_midi_service
Module: audio_wf.lib(C:\PRG\NEWGF1\GF1NEW\gf1mem.c)
0001:00048c30+ gf1_write_block_
0001:00048c68  gf1_read_block_
0001:00048c9c  gf1_mem_init_
0001:00048d50  gf1_malloc_
0001:00048e88  gf1_free_
0001:00048f6c  gf1_mem_avail_
0001:00048fe0* gf1_mem_largest_avail_
Module: C:\WATCOM\lib386\dos\clib3r.lib(strcpy.c)
0001:00049070  strcpy_
Module: C:\WATCOM\lib386\dos\clib3r.lib(strcat.c)
0001:000490a0  strcat_
Module: audio_wf.lib(C:\PRG\NEWGF1\GF1NEW\gf1patch.c)
0001:000490e0  gf1_get_patch_info_
0001:000491c8  gf1_load_patch_
0001:0004965c  gf1_unload_patch_
0001:000496e8* gf1_detune_patch_
Module: audio_wf.lib(C:\PRG\NEWGF1\GF1NEW\gf1note.c)
0001:00049700  gf1_note_init_
0001:00049be8  gf1_midi_change_volume_
0001:00049c70  gf1_channel_pitch_bend_
0001:00049d4c  gf1_midi_synth_volume_
0001:00049df8  gf1_midi_set_vibrato_
0001:0004a368+ gf1_calc_fc_
0001:0004a420+ gf1_midi_stop_voice_
0001:0004a564+ gf1_midi_status_voice_
0001:0004a604* gf1_midi_status_note_
0001:0004a654+ gf1_midi_wait_voice_
0001:0004a750+ gf1_midi_stop_note_
0001:0004a7c4  gf1_midi_note_on_
0001:0004ae4c  gf1_midi_note_off_
0001:0004b350  gf1_midi_channel_sustain_
0001:0004b86c  gf1_midi_silence_patch_notes_
0001:0004b97c  gf1_midi_patch_removed_
0001:0004b9a8  gf1_midi_change_program_
0001:0004b9c4  gf1_midi_set_balance_
0001:0004ba70* gf1_midi_all_sounds_off_
0001:0004bae8  gf1_midi_all_notes_off_
0002:0002dab0  _gf1_log_table
0002:0002dae0+ _gf1_linear_volumes
0002:000c7d80+ _voice_status
0002:000c81a0+ _other_voices
0002:000c82a0+ _note_status
0002:000c8320+ _channel_status
0002:000c8560+ _gf1_m_volume
0002:000c8564+ _vibrato_voice_count
Module: audio_wf.lib(C:\PRG\NEWGF1\GF1NEW\gf1midi.c)
0001:0004bb40  gf1_midi_pitch_bend_
0001:0004bc28  gf1_midi_parameter_
0002:0002dae4+ _pbs_msb
0002:0002db24+ _pbs_lsb
0002:0002db64+ _rpn_msb
0002:0002dba4+ _rpn_lsb
0002:0002dbe4+ _channel_volume
0002:0002dc24+ _channel_expression
0002:0002dc64* _channel_pan
Module: audio_wf.lib(D:\PRG\AUDIO\source\debugio.c)
0001:0004beb0* DB_SetXY_
0001:0004bec4+ DB_PutChar_
0001:0004bf9c+ DB_PrintString_
0001:0004c020  DB_PrintNum_
0001:0004c06c* DB_PrintUnsigned_
0001:0004c0a0  DB_printf_
Module: audio_wf.lib(C:\PRG\NEWGF1\GF1NEW\digital.c)
0002:000c8570+ _dig_voice_status
0001:0004c1b0  dig_init_
0001:0004c2ec+ dig_change_voice_
0001:0004c440+ gf1_restart_digital_
0001:0004c72c  gf1_dig_set_vol_
0001:0004c78c  gf1_dig_set_pan_
0001:0004c8ac  gf1_dig_set_freq_
0001:0004c8f0  gf1_stop_digital_
0001:0004cbb0+ gf1_start_digital_
0001:0004ccbc* gf1_dig_set_dma_rate_
0001:0004cccc+ dig_dma_next_buffer_
0001:0004d2f4+ gf1_play_next_buffer_
0001:0004d364  gf1_play_digital_
Module: audio_wf.lib(D:\PRG\AUDIO\source\pitch.c)
0001:0004d540  PITCH_GetScale_
0001:0004d5f0  PITCH_UnlockMemory_
0001:0004d614  PITCH_LockMemory_
Module: audio_wf.lib(.\source\mvreverb.ASM)
0001:0004d693  MV_8BitReverb_
0001:0004d6ab  MV_16BitReverbFast_
0001:0004d6cc  MV_8BitReverbFast_
0001:0004d660  MV_16BitReverb_
Module: audio_wf.lib(.\source\mv_mix.ASM)
0001:0004d99a  MV_Mix16BitStereo_
0001:0004d7d8  MV_Mix8BitStereo_
0001:0004d8a5  MV_Mix16BitMono_
0001:0004d6f8  MV_Mix8BitMono_
Module: audio_wf.lib(.\source\mv_mix16.ASM)
0001:0004da80  MV_Mix8BitMono16_
0001:0004dc53  MV_Mix16BitMono16_
0001:0004db7b  MV_Mix8BitStereo16_
0001:0004dd17  MV_Mix16BitStereo16_
Module: C:\WATCOM\lib386\dos\clib3r.lib(dpmihost.c)
0001:0004de50  __DPMI_hosted_
Module: C:\WATCOM\lib386\dos\clib3r.lib(wctomb.c)
0001:0004def0  wctomb_
Module: C:\WATCOM\lib386\dos\clib3r.lib(itoa.c)
0001:0004df20+ utoa_
0001:0004df70  itoa_
Module: C:\WATCOM\lib386\dos\clib3r.lib(lltoa.c)
0001:0004dfa0  ulltoa_
0001:0004e010* lltoa_
Module: C:\WATCOM\lib386\dos\clib3r.lib(ltoa.c)
0001:0004e040  ultoa_
0001:0004e090* ltoa_
Module: C:\WATCOM\lib386\dos\clib3r.lib(filedos.c)
0001:0004e0c0  _dos_close_
0001:0004e0d0  _dos_commit_
Module: C:\WATCOM\lib386\dos\clib3r.lib(locmktim.c)
0001:0004e0e0  __local_mktime_
Module: C:\WATCOM\lib386\dos\clib3r.lib(gmtime.c)
0001:0004e260  __brktime_
0001:0004e360+ _gmtime_
0001:0004e380* gmtime_
Module: C:\WATCOM\lib386\dos\clib3r.lib(tzset.c)
0002:0002e15c  ___start_dst
0002:0002e180  ___end_dst
0002:0002e2a8* _tzname
0002:0002e2b0  _timezone
0002:0002e2b4  _daylight
0002:0002e2b8  ___dst_adjust
0001:0004e390* __DontCacheOSTZ_
0001:0004e3a0* __CacheOSTZ_
0001:0004e8b0+ __parse_tz_
0001:0004eae0  tzset_
Module: C:\WATCOM\lib386\dos\clib3r.lib(timeutil.c)
0001:0004ec50  __isindst_
Module: C:\WATCOM\lib386\dos\clib3r.lib(mbinit.c)
0001:0004efba  __mbinit_
0001:0004f08b+ dos_get_dbcs_lead_table_
0001:0004f17f+ dos_get_code_page_
0002:0002e308  ___MBCodePage
Module: C:\WATCOM\lib386\dos\clib3r.lib(environ.c)
0002:000ca138  ___env_mask
0002:000ca13c  _environ
0002:000ca140* __wenviron
Module: C:\WATCOM\lib386\dos\clib3r.lib(mbterm.c)
0001:0004f320  _mbterm_
Module: C:\WATCOM\lib386\dos\clib3r.lib(mbsnextc.c)
0001:0004f360  _mbsnextc_
Module: C:\WATCOM\lib386\dos\clib3r.lib(mbcupper.c)
0001:0004f3a0  _mbctoupper_
Module: C:\WATCOM\lib386\dos\clib3r.lib(mbsinc.c)
0001:0004f3c0  _mbsinc_
Module: audio_wf.lib(C:\PRG\NEWGF1\GF1NEW\globals.c)
0002:0002e30c  _gf1_pstatus
0002:0002e310  _gf1_mix_control
0002:0002e312  _gf1_status_register
0002:0002e314  _gf1_timer_control
0002:0002e316  _gf1_timer_data
0002:0002e318  _gf1_irqdma_control
0002:0002e31a  _gf1_reg_control
0002:0002e31c  _gf1_midi_control
0002:0002e31e  _gf1_midi_data
0002:0002e320  _gf1_page_register
0002:0002e322  _gf1_register_select
0002:0002e324  _gf1_data_low
0002:0002e326  _gf1_data_high
0002:0002e328  _gf1_dram_io
0002:0002e32a  _gf1_dma_latch
0002:000ca144  _gf1_voices
0002:000ca146  _gf1_flags
0002:000ca148  _gf1_semaphore
0002:000ca14a  _gf1_status
0002:000ca14c  _mixer_mask
0002:000ca14d  _gf1_channel_out
0002:000ca14e  _gf1_channel_in
0002:000ca14f  _midi_irq
0002:000ca150  _gf1_irq
Module: C:\WATCOM\lib386\dos\clib3r.lib(outp.c)
0001:0004f3f0  outp_
Module: C:\WATCOM\lib386\dos\clib3r.lib(inp.c)
0001:0004f400  inp_
Module: audio_wf.lib(C:\PRG\NEWGF1\GF1NEW\os\dos32\watcom\os.c)
0001:0004f410  os_init_channel_
0001:0004f49c  os_pgm_dma_
0001:0004f5c0  os_stop_dma_
0001:0004f5e8* os_dma_count_
0001:0004f650  os_file_read_
0001:0004f680  os_file_close_
0001:0004f69c  os_file_seek_
0001:0004f6b8  os_file_open_
0001:0004f6e4+ os_setvect_
0001:0004f6f0+ os_getvect_
0001:0004f6fc  os_set_irq_
0001:0004f794  os_unset_irq_
0001:0004f818  os_eoi_
0002:0002e352+ _os_irq_table
Module: audio_wf.lib(C:\PRG\NEWGF1\GF1NEW\gf1wisr.c)
0001:0004f850  gf1_irq_service_
0001:0004f8cc  midi_irq_service_
Module: audio_wf.lib(gf1init2.asm)
0001:0004f951  gf1_delay_
0001:0004f965  gf1_init_ports_
Module: audio_wf.lib(gf1sem.asm)
0001:0004f9b0  gf1_init_semaphores_
0001:0004f9c3  gf1_enter1_
0001:0004f9ea  gf1_leave_
0001:0004f9cb* gf1_enter_
0002:0002e3dc* _num_sems
Module: audio_wf.lib(C:\PRG\NEWGF1\GF1NEW\gf1isr.c)
0002:0002e3f8  _visr
0001:0004fa20  gf1_isr_init_
0001:0004facc  gf1_add_dma_handler_
0001:0004fb04  gf1_add_voice_handler_
0001:0004fb3c  gf1_add_volume_handler_
0001:0004fb74  gf1_add_timer_handler_
0001:0004fbb8  gf1_add_midi_recv_handler_
0001:0004fbd8* gf1_add_midi_xmit_handler_
0001:0004fbf8  gf1_add_visr_
0001:0004fc18  process_midi_interrupt_
0001:0004fcd0  process_interrupt_
0002:000ca190  _gf1_adlib_control
Module: C:\WATCOM\lib386\dos\clib3r.lib(inpw.c)
0001:0004ff70  inpw_
Module: audio_wf.lib(C:\PRG\NEWGF1\GF1NEW\gf1detct.c)
0001:0004ff80  gf1_detect_card_
Module: audio_wf.lib(gf1ainit.asm)
0002:0002e754* Gf1InitEnd
0002:0002e730* Gf1InitStart
0001:0004ffe0  gf1_asm_init_
Module: C:\WATCOM\lib386\dos\clib3r.lib(outpw.c)
0001:00050050  outpw_
Module: audio_wf.lib(C:\PRG\NEWGF1\GF1NEW\gf1dram.c)
0001:00050060  gf1_peek_
0001:000500dc  gf1_poke_
0001:0005015c  gf1_poke_block_
0001:00050248  gf1_good_dram_
Module: audio_wf.lib(gf1wmem.asm)
0002:0002e424  _gf1_mem_init_data
Module: audio_wf.lib(C:\PRG\NEWGF1\GF1NEW\gf1dma.c)
0001:0005044c  gf1_dma_init_
0001:0005055c  gf1_dram_xfer_
0001:00050798  gf1_wait_dma_
0001:0005081c  gf1_dma_ready_
0001:00050834  gf1_stop_dma_
0002:000ca1a0+ _dma_parms
Module: audio_wf.lib(C:\PRG\NEWGF1\GF1NEW\gf1wave.c)
0001:000508d0  gf1_update_waveform_
Module: audio_wf.lib(gf1wnote.asm)
0002:0002e42c  _gf1_note_init_data
Module: audio_wf.lib(C:\PRG\NEWGF1\GF1NEW\voltab.c)
0002:0002e430  _vol_table
Module: audio_wf.lib(C:\PRG\NEWGF1\GF1NEW\timer.c)
0001:00050a20  gf1_timer_init_
0001:00050a44  gf1_enable_timer2_
0001:00050b08* gf1_enable_timer1_
0001:00050bcc* gf1_disable_timer1_
0001:00050c38  gf1_disable_timer2_
Module: audio_wf.lib(C:\PRG\NEWGF1\GF1NEW\gf1scale.c)
0002:0002e4b0  _gf1_scale_table
Module: audio_wf.lib(C:\PRG\NEWGF1\GF1NEW\gf1voice.c)
0001:00050cb0  gf1_voice_init_
0001:00050cfc  gf1_allocate_voice_
0001:00050e54  gf1_free_voice_
0001:00050e8c  gf1_adjust_priority_
Module: audio_wf.lib(wdigital.asm)
0002:0002e6b4  _dig_init_data
Module: audio_wf.lib(C:\PRG\NEWGF1\GF1NEW\gf1addr.c)
0001:00050ec0  convert_to_16bit_
0001:00050edc* make_physical_address_
0001:00050f38  gf1_set_addr_regs_
Module: audio_wf.lib(C:\PRG\NEWGF1\GF1NEW\divisor.c)
0002:0002e6b8  _gf1_freq_divisor
Module: C:\WATCOM\lib386\dos\clib3r.lib(memcpy.c)
0001:00050fd0  memcpy_
Module: C:\WATCOM\lib386\dos\clib3r.lib(alphabet.c)
0002:000077b8  ___Alphabet
Module: C:\WATCOM\lib386\dos\clib3r.lib(leapyear.c)
0001:00051000  __leapyear_
0002:000077e0  ___diyr
0002:000077fa  ___dilyr
Module: C:\WATCOM\lib386\dos\clib3r.lib(intdx386.c)
0001:00051040  intdosx_
Module: C:\WATCOM\lib386\dos\clib3r.lib(inirmsel.c)
0002:000ca360  __ExtenderRealModeSelector
Module: C:\WATCOM\lib386\dos\clib3r.lib(setenvp.c)
0001:000511c0  __setenvp_
0001:000512a0  __freeenvp_
Module: C:\WATCOM\lib386\dos\clib3r.lib(mbdtoupp.c)
0001:000512f0  _mbdtoupper_
Module: C:\WATCOM\lib386\dos\clib3r.lib(dosio)
0001:00051304  _dos_read_
0001:0005132f* _dos_write_
Module: audio_wf.lib(gf1wdma.asm)
0002:0002e6e0  _gf1_dma_init_data
Module: audio_wf.lib(wtimer.asm)
0002:0002e6e2  _gf1_timer_init_data
Module: audio_wf.lib(gf1wvoic.asm)
0002:0002e6e4  _gf1_voice_init_data
Module: C:\WATCOM\lib386\dos\clib3r.lib(clearenv.c)
0001:00051340  clearenv_


                        +----------------------+
                        |   Imported Symbols   |
                        +----------------------+

Symbol                              Module
======                              ======



                        +--------------------+
                        |   Libraries Used   |
                        +--------------------+

audio_wf.lib
C:\WATCOM\lib386\dos\clib3r.lib


                        +-----------------------+
                        |   Linker Statistics   |
                        +-----------------------+

Stack size:  00010000 (65536.)
Memory size:  0012b740 (1226560.)
Entry point address: 0001:0002cf1c
Link time: 00:00.24
