Open Watcom Linker Version 1.9
Portions Copyright (c) 1985-2002 Sybase, Inc. All Rights Reserved.
Created on:       23/08/26 17:32:31
Executable Image: newdoom.exe
creating an OS/2 linear executable


                        +------------+
                        |   Groups   |
                        +------------+

Group                           Address              Size
=====                           =======              ====

DGROUP                          0002:00000000        0005ab80



                        +--------------+
                        |   Segments   |
                        +--------------+

Segment                Class          Group          Address         Size
=======                =====          =====          =======         ====

BEGTEXT                CODE           AUTO           0001:00000000   00000010
_TEXT                  CODE           AUTO           0001:00000010   0002c810
_NULL                  BEGDATA        DGROUP         0002:00000000   00000004
_AFTERNULL             BEGDATA        DGROUP         0002:00000004   00000000
CONST                  DATA           DGROUP         0002:00000004   000043a4
CONST2                 DATA           DGROUP         0002:000043a8   00000218
_DATA                  DATA           DGROUP         0002:000045c0   0000c1d0
XIB                    DATA           DGROUP         0002:00010790   00000000
XI                     DATA           DGROUP         0002:00010790   0000003c
XIE                    DATA           DGROUP         0002:000107cc   00000000
YIB                    DATA           DGROUP         0002:000107cc   00000000
YI                     DATA           DGROUP         0002:000107cc   00000024
YIE                    DATA           DGROUP         0002:000107f0   00000000
TIB                    DATA           DGROUP         0002:000107f0   00000000
TI                     DATA           DGROUP         0002:000107f0   00000000
TIE                    DATA           DGROUP         0002:000107f0   00000000
DATA                   DATA           DGROUP         0002:000107f0   00000000
_BSS                   BSS            DGROUP         0002:000107f0   00044388
STACK                  STACK          DGROUP         0002:00054b80   00006000


                        +----------------+
                        |   Memory Map   |
                        +----------------+

* = unreferenced symbol
+ = symbol only referenced locally

Address        Symbol
=======        ======

Module: i_main.obj(C:\REALDOOM\i_main.c)
0001:00000010  main_
Module: i_ibm.obj(C:\REALDOOM\i_ibm.c)
0002:000107f0+ _olddb
0002:00010800+ _keyboardque
0002:00010820+ _realstackseg
0002:00010824+ _lastpress
0002:00010828+ _currentscreen
0002:0001082c+ _pcscreen
0002:00010830+ _regs
0002:0001084c+ _kbdhead
0002:00010850+ _kbdtail
0002:00010854+ _segregs
0002:00010860+ _grmode
0002:00010864+ _mousepresent
0002:00010868+ _novideo
0001:00000030* I_ColorBorder_
0001:00000070* I_UnColorBorder_
0001:000000b0  I_WaitVBL_
0001:000000f0  I_SetPalette_
0001:00000150+ I_UpdateBox_
0001:00000250  I_UpdateNoBlit_
0001:00000380  I_FinishUpdate_
0001:000003c0  I_InitGraphics_
0001:000004c0+ I_ShutdownGraphics_
0001:000004f0  I_ReadScreen_
0001:00000580  I_StartTic_
0001:00000690  I_TimerISR_
0001:000006a0+ I_KeyboardISR_
0001:000006f0* I_StartupKeyboard_
0001:00000730+ I_ShutdownKeyboard_
0001:00000780+ I_ResetMouse_
0001:000007b0+ I_StartupMouse_
0001:00000810+ I_ShutdownMouse_
0001:00000830  I_AllocLow_
0001:000008c0* I_StartupDPMI_
0001:000008e0+ DPMIInt_
0001:00000960+ I_ReadMouse_
0001:000009e0  I_Init_
0001:00000a80* I_Shutdown_
0001:00000aa0  I_Error_
0001:00000b10  I_Quit_
0001:00000bd0  I_ZoneBaseEMS_
0001:00000cf0+ I_InitDiskFlash_
0001:00000d50  I_BeginRead_
0001:00000e10  I_EndRead_
0001:00000ea0  I_InitNetwork_
0002:000045c0  _scantokey
0002:00004644+ _oldkeyboardisr
0002:0001086c  _ticcount
0002:00010870  _destview
0002:00010874  _destscreen
0002:00010878+ _dpmiregs
Module: i_sound.obj(C:\REALDOOM\i_sound.c)
0002:000108ac+ _dmxCodes
0002:000108dc+ _snd_SBport
0002:000108e0+ _snd_MusicVolume
0002:000108e4+ _snd_SfxVolume
0002:000108e8+ _snd_Mport
0002:000108ec  _snd_Mport8bit
0002:000108f0  _snd_MusicDevice
0002:000108f4+ _snd_SfxDevice
0002:000108f8  _snd_SBirq
0002:000108f9  _snd_SBport8bit
0002:000108fa  _snd_SBdma
0001:00000f00+ I_StartupTimer_
0001:00000f30  I_ShutdownTimer_
0001:00000f40  I_PauseSong_
0001:00000f50  I_ResumeSong_
0001:00000f60  I_SetMusicVolume_
0001:00000f70* I_SetSfxVolume_
0001:00000f80  I_RegisterSong_
0001:00000f90  I_UnRegisterSong_
0001:00000fa0* I_QrySongPlaying_
0001:00000fb0  I_StopSong_
0001:00000fc0  I_PlaySong_
0001:00000fd0  I_GetSfxLumpNum_
0001:00001020  I_StartSound_
0001:00001030  I_StopSound_
0001:00001040  I_SoundIsPlaying_
0001:00001050  I_UpdateSoundParams_
0001:00001060* I_sndArbitrateCards_
0001:00001070  I_StartupSound_
0001:000010f0  I_ShutdownSound_
0001:00001100  I_SetChannels_
0002:000043a8+ _snd_prefixen
0002:000108fb  _snd_DesiredSfxDevice
0002:000108fc  _snd_DesiredMusicDevice
Module: tables.obj(C:\REALDOOM\tables.c)
0001:00001110  fixedsine_
0002:0000464c  _finetangentinner
0002:0000664c+ _finesineinner
0002:0000764c  _tantoangle
Module: f_finale.obj(C:\REALDOOM\f_finale.c)
0001:000013b0  F_StartFinale_
0001:000014d0  F_Responder_
0001:000014f0  F_Ticker_
0001:000015c0+ F_TextWrite_
0001:00001710+ F_StartCast_
0001:00001790+ F_CastTicker_
0001:00001be0+ F_CastResponder_
0001:00001c80+ F_CastPrint_
0001:00001d50+ F_CastDrawer_
0001:00001e40+ F_DrawPatchCol_
0001:00001eb0+ F_BunnyScroll_
0001:00002020  F_Drawer_
0002:00009650+ _e1text
0002:00009654+ _e2text
0002:00009658+ _e3text
0002:0000965c+ _c1text
0002:00009660+ _c2text
0002:00009664+ _c3text
0002:00009668+ _c4text
0002:0000966c+ _c5text
0002:00009670+ _c6text
0002:00009674+ _castorder
0002:00010900+ _caststate
0002:00010904+ _castdeath
0002:00010908+ _castattacking
0002:0001090c+ _finaleflat
0002:00010910+ _finaletext
0002:00010914+ _finalecount
0002:00010916+ _finalestage
0002:00010918+ _castonmelee
0002:00010919+ _casttics
0002:0001091a+ _castframes
0002:0001091b+ _castnum
Module: d_main.obj(C:\REALDOOM\d_main.c)
0002:00010920+ _title
0002:000109a0+ _wadfile
0002:00010da0+ _mapdir
0002:000111a0+ _wadfiles
0002:000111f0+ _events
0002:00011530  _basedefault
0002:00011930+ _pagename
0002:00011934+ _demosequence
0002:00011938+ _pagetic
0002:0001193c+ _copynode
0002:00014268  _advancedemo
0002:0001426c+ _drone
0002:00014270+ _eventtail
0002:00014274+ _eventhead
0002:00014278+ _debugfile
0002:0001427c  _shareware
0002:00014280  _registered
0002:00014284  _french
0002:00014288  _commercial
0002:0001428c  _modifiedgame
0002:00014290+ _autostart
0002:00014294  _nomonsters
0002:00014298  _fastparm
0002:0001429c  _respawnparm
0002:000142a0  _startmap
0001:00002170  D_PostEvent_
0001:000021a0  D_ProcessEvents_
0001:000021f0  FixedMul_
0001:00002230  FixedDiv_
0001:00002280+ FixedDiv2_
0001:000022f0+ D_Display_
0001:000025f0+ D_DoomLoop_
0001:00002770  D_PageTicker_
0001:000027a0* D_PageDrawer_
0001:000027b0  D_AdvanceDemo_
0001:000027e0  D_DoAdvanceDemo_
0001:00002920  D_StartTitle_
0001:00002940+ D_GetCursorColumn_
0001:00002970+ D_GetCursorRow_
0001:000029a0+ D_SetCursorPosition_
0001:000029d0+ D_DrawTitle_
0001:00002a60+ D_RedrawTitle_
0001:00002ab0+ D_AddFile_
0001:00002b10+ IdentifyVersion_
0001:00002be0+ FindResponseFile_
0001:00002dc0  D_DoomMain_
0002:000096d0  _singletics
0002:000096d4  _wipegamestate
0002:000142a1  _startskill
0002:000142a2  _startepisode
Module: d_net.obj(C:\REALDOOM\d_net.c)
0001:00003510  NetUpdate_
0001:000035c0  D_CheckNetGame_
0001:00003620  TryRunTics_
0002:000142a8  _localcmds
0002:00014308  _maketic
0002:0001430c+ _gametime
0002:00014310+ _oldnettics
0002:00014314+ _nettics
0002:00014318+ _skiptics
0002:0001431c  _doomcom
0002:00014320+ _netbuffer
Module: g_game.obj(C:\REALDOOM\g_game.c)
0002:00014328+ _savename
0002:00014428+ _emptycmd
0002:00014430+ _savedescription
0002:00014450+ _bodyque
0002:00014490+ _mousearray
0002:000144a0+ _gamekeydown
0002:000148a0+ _demoname
0002:000148c0  _playeringame
0002:000148d0+ _defdemoname
0002:000148d4+ _secretexit
0002:000148d8  _statcopy
0002:000148dc+ _dclicktime2
0002:000148e0+ _dclickstate2
0002:000148e4+ _dclicks2
0002:000148e8+ _dclicks
0002:000148ec+ _dclicktime
0002:000148f0+ _dclickstate
0002:000148f4+ _mousey
0002:000148f8+ _mousex
0002:000148fc+ _starttime
0002:00014900+ _timingdemo
0002:00014904+ _sendsave
0002:00014908+ _demo_p
0002:0001490c+ _netdemo
0002:00014910+ _sendpause
0002:00014914  _bodyqueslot
0002:00014918  _players
0002:00014d04  _gametic
0002:00014d08  _demoplayback
0002:00014d0c  _demorecording
0002:00014d10  _singledemo
0002:00014d14  _usergame
0002:00014d18  _paused
0002:00014d1c  _viewactive
0002:00014d20+ _noblit
0002:00014d24  _nodrawers
0002:00014d28  _respawnmonsters
0002:00014d2c  _wminfo
0002:00014d62+ _demobufferRef
0002:00014d64+ _savebufferRef
0002:00014d66  _totalkills
0002:00014d68  _totalitems
0002:00014d6a  _totalsecret
0002:00014d6c  _consoleplayer
0002:00014d6e+ _d_episode
0002:00014d6f+ _d_skill
0002:00014d70+ _d_map
0002:00014d71+ _savegameslot
0002:00014d72  _mousebforward
0002:00014d73  _key_speed
0002:00014d74  _mousebfire
0002:00014d75  _key_fire
0002:00014d76  _key_strafe
0002:00014d77+ _turnheld
0002:00014d78  _mousebstrafe
0002:00014d79  _key_use
0002:00014d7a  _key_left
0002:00014d7b  _key_straferight
0002:00014d7c  _key_up
0002:00014d7d  _key_down
0002:00014d7e  _key_right
0001:000036c0  G_BuildTiccmd_
0001:00003a80+ G_DoLoadLevel_
0001:00003b20  G_Responder_
0001:00003ce0  G_Ticker_
0001:00003e70+ G_PlayerFinishLevel_
0001:00003ed0  G_PlayerReborn_
0001:00003f90* G_CheckSpot_
0001:00004160* G_DoReborn_
0001:00004170  G_ExitLevel_
0001:00004190  G_SecretExitLevel_
0001:000041e0+ G_DoCompleted_
0001:00004440  G_WorldDone_
0001:000044c0+ G_DoWorldDone_
0001:000044f0  G_LoadGame_
0001:00004530+ G_DoLoadGame_
0001:00004690  G_SaveGame_
0001:000046d0+ G_DoSaveGame_
0001:00004890  G_DeferedInitNew_
0001:000048b0+ G_DoNewGame_
0001:00004920  G_InitNew_
0001:00004b00+ G_ReadDemoTiccmd_
0001:00004b80+ G_WriteDemoTiccmd_
0001:00004c10  G_RecordDemo_
0001:00004cd0  G_BeginRecording_
0001:00004d50  G_DeferedPlayDemo_
0001:00004d70+ G_DoPlayDemo_
0001:00004e70  G_TimeDemo_
0001:00004ec0  G_CheckDemoStatus_
0002:000096ec  _precache
0002:000096f0  _forwardmove
0002:000096f8  _sidemove
0002:00009700+ _angleturn
0002:0000970c+ _mousebuttons
0002:00009710+ _pars
0002:00009760+ _cpars
0002:00014d7f  _key_strafeleft
0002:00014d80  _gameaction
0002:00014d81  _gamestate
0002:00014d82  _gameskill
0002:00014d83  _gamemap
0002:00014d84  _gameepisode
Module: m_menu.obj(C:\REALDOOM\m_menu.c)
0002:00014d88+ _tempstring
0002:00014dd8+ _savegamestrings
0002:00014ec8+ _endstring
0002:00014f68+ _saveOldString
0002:00014f80+ _epi
0002:00014f84+ _sound_e
0002:00014f88+ _load_e
0002:00014f8c+ _options_e
0002:00014f90+ _read_e2
0002:00014f94+ _newgame_e
0002:00014f98+ _read_e
0002:00014f9c+ _episodes_e
0002:00014fa0+ _main_e
0002:00014fa4+ _currentMenu
0002:00014fa8  _inhelpscreens
0002:00014fac+ _saveStringEnter
0002:00014fb0+ _saveCharIndex
0002:00014fb4+ _saveSlot
0002:00014fb8+ _messageNeedsInput
0002:00014fbc+ _messageLastMenuActive
0002:00014fc0+ _messageString
0002:00014fc4+ _quickSaveSlot
0002:00014fc8+ _messageRoutine
0002:00014fcc  _menuactive
0002:00014fd0+ _whichSkull
0002:00014fd2+ _skullAnimCounter
0002:00014fd4+ _itemOn
0002:00014fd6  _sfxVolume
0002:00014fd7  _showMessages
0002:00014fd8  _screenblocks
0002:00014fd9+ _screenSize
0002:00014fda+ _messageToPrint
0002:00014fdb  _detailLevel
0002:00014fdc  _musicVolume
0002:000097a0+ _gammamsg
0002:00009822+ _endmsg
0002:00009aa2+ _endmsg2
0002:00009d22+ _skullName
0002:00009d34+ _MainMenu
0002:00009d9a+ _MainDef
0002:00009dae+ _EpisodeMenu
0002:00009de1+ _EpiDef
0002:00009df5+ _NewGameMenu
0002:00009e4a+ _NewDef
0002:00009e5e+ _OptionsMenu
0002:00009ee6+ _OptionsDef
0002:00009efa+ _ReadMenu1
0001:00004ff0+ M_ReadSaveStrings_
0001:000050d0+ M_DrawLoad_
0001:00005150+ M_DrawSaveLoadBorder_
0001:00005200+ M_LoadSelect_
0001:00005250+ M_LoadGame_
0001:00005270+ M_DrawSave_
0001:00005330+ M_DoSave_
0001:00005370+ M_SaveSelect_
0001:00005400+ M_SaveGame_
0001:00005450+ M_QuickSaveResponse_
0001:00005480+ M_QuickSave_
0001:00005520+ M_QuickLoadResponse_
0001:00005550+ M_QuickLoad_
0001:000055a0+ M_DrawReadThis1_
0001:000055e0+ M_DrawReadThis2_
0001:00005620+ M_DrawReadThisRetail_
0001:00005660+ M_DrawSound_
0001:000056e0+ M_Sound_
0001:00005700+ M_SfxVol_
0001:00005740+ M_MusicVol_
0001:00005780+ M_DrawMainMenu_
0001:000057b0+ M_DrawNewGame_
0001:00005800+ M_NewGame_
0001:00005840+ M_DrawEpisode_
0001:00005870+ M_VerifyNightmare_
0001:000058a0+ M_ChooseSkill_
0001:000058f0+ M_Episode_
0001:00005950+ M_DrawOptions_
0001:00005a50+ M_Options_
0001:00005a70+ M_ChangeMessages_
0001:00005ae0+ M_EndGameResponse_
0001:00005b10+ M_EndGame_
0001:00005b50+ M_ReadThis_
0001:00005b70+ M_ReadThis2_
0001:00005b90+ M_FinishReadThis_
0001:00005bb0+ M_QuitResponse_
0001:00005c00+ M_QuitDOOM_
0001:00005c90+ M_ChangeSensitivity_
0001:00005cc0+ M_ChangeDetail_
0001:00005d30+ M_SizeDisplay_
0001:00005d90+ M_DrawThermo_
0001:00005e60+ M_StartMessage_
0001:00005ea0+ M_StringWidth_
0001:00005f00+ M_StringHeight_
0001:00005f50+ M_WriteText_
0001:00005fe0  M_Responder_
0001:00006930  M_StartControlPanel_
0001:00006960  M_Drawer_
0001:00006ba0* M_ClearMenus_
0001:00006bb0* M_SetupNextMenu_
0001:00006bd0  M_Ticker_
0001:00006c00  M_Init_
0002:00009f0b+ _ReadDef1
0002:00009f1f+ _ReadMenu2
0002:00009f30+ _ReadDef2
0002:00009f44+ _SoundMenu
0002:00009f88+ _SoundDef
0002:00009f9c+ _LoadMenu
0002:0000a002+ _LoadDef
0002:0000a016+ _SaveMenu
0002:0000a07c+ _SaveDef
0002:0000a090+ _detailNames
0002:0000a0a2+ _msgNames
0002:0000a0b4+ _quitsounds
0002:0000a0d4+ _quitsounds2
0002:00014fdd  _mouseSensitivity
Module: m_misc.obj(C:\REALDOOM\m_misc.c)
0001:00006cc0  M_CheckParm_
0001:00006d00  P_Random_
0001:00006d30  M_Random_
0001:00006d60  M_ClearRandom_
0001:00006d80  M_ClearBox16_
0001:00006da0  M_AddToBox16_
0001:00006dd0  M_ClearBox_
0001:00006df0  M_AddToBox_
0001:00006e20  M_WriteFile_
0001:00006e70  M_ReadFile_
0001:00006f30  M_SaveDefaults_
0001:00006fb0  M_LoadDefaults_
0002:0000a108+ _rndtable
0002:0000a208+ _rndindex
0002:0000a20a  _prndindex
0002:0000a20c+ _defaults
0002:00014fe4+ _numdefaults
0002:00014fe8+ _defaultfile
0002:00014fec  _myargv
0002:00014ff0  _myargc
0002:00014ff2  _usemouse
Module: am_map.obj(C:\REALDOOM\am_map.c)
0002:0000a340+ _player_arrow
0002:0000a3b0+ _cheat_player_arrow
0002:0000a4b0+ _triangle_guy
0002:0000a4e0+ _thintriangle_guy
0002:0000a518  _automapactive
0001:000071a0+ AM_activateNewScale_
0001:00007250* AM_saveScaleAndLoc_
0001:00007280+ AM_restoreScaleAndLoc_
0001:00007350+ AM_addMark_
0001:000073a0+ AM_findMinMaxBoundaries_
0001:000074c0+ AM_changeWindowLoc_
0001:000075a0+ AM_initVariables_
0001:000076a0+ AM_loadPics_
0001:000076f0+ AM_unloadPics_
0001:00007720+ AM_clearMarks_
0001:00007750+ AM_LevelInit_
0001:000077d0  AM_Stop_
0001:00007800+ AM_Start_
0001:00007860* AM_minOutWindowScale_
0001:00007890* AM_maxOutWindowScale_
0001:000078c0  AM_Responder_
0001:00007cc0+ AM_changeWindowScale_
0001:00007d40+ AM_doFollowPlayer_
0001:00007e20  AM_Ticker_
0001:00007e70* AM_clearFB_
0001:00007ea0+ AM_clipMline_
0001:00008210+ AM_drawFline_
0001:00008310+ AM_drawMline_
0001:00008340+ AM_drawGrid_
0001:00008410+ AM_drawWalls_
0001:000085e0+ AM_rotate_
0001:00008670+ AM_drawLineCharacter_
0001:00008750+ AM_drawPlayers_
0001:000087f0+ AM_drawThings_
0001:00008870+ AM_drawMarks_
0001:00008950* AM_drawCrosshair_
0001:00008980  AM_Drawer_
Module: p_ceilng.obj(C:\REALDOOM\p_ceilng.c)
0001:00008a50  T_MoveCeiling_
0001:00008c40  EV_DoCeiling_
0001:00008dc0+ P_AddActiveCeiling_
0001:00008df0+ P_RemoveActiveCeiling_
0001:00008e60+ P_ActivateInStasisCeiling_
0001:00008ec0  EV_CeilingCrushStop_
0002:00015108  _activeceilings
Module: p_doors.obj(C:\REALDOOM\p_doors.c)
0001:00008f80  T_VerticalDoor_
0001:00009210  EV_DoLockedDoor_
0001:00009340  EV_DoDoor_
0001:00009570  EV_VerticalDoor_
0001:00009890  P_SpawnDoorCloseIn30_
0001:00009920  P_SpawnDoorRaiseIn5Mins_
Module: p_enemy.obj(C:\REALDOOM\p_enemy.c)
0001:000099d0+ P_RecursiveSound_
0001:00009b60  P_NoiseAlert_
0001:00009b90+ P_CheckMeleeRange_
0001:00009c20+ P_CheckMissileRange_
0001:00009d50+ P_Move_
0001:00009e90+ P_TryWalk_
0001:00009ed0+ P_NewChaseDir_
0001:0000a130+ P_LookForPlayers_
0001:0000a290  A_KeenDie_
0001:0000a340  A_Look_
0001:0000a470  A_Chase_
0001:0000a6e0  A_FaceTarget_
0001:0000a760  A_PosAttack_
0001:0000a7f0  A_SPosAttack_
0001:0000a8a0  A_CPosAttack_
0001:0000a930  A_CPosRefire_
0001:0000a9b0  A_SpidRefire_
0001:0000aa30  A_BspiAttack_
0001:0000aa80  A_TroopAttack_
0001:0000ab10  A_SargAttack_
0001:0000ab80  A_HeadAttack_
0001:0000ac10  A_CyberAttack_
0001:0000ac50  A_BruisAttack_
0001:0000ace0  A_SkelMissile_
0001:0000ad60  A_Tracer_
0001:0000af40  A_SkelWhoosh_
0001:0000af70  A_SkelFist_
0001:0000afe0+ PIT_VileCheck_
0001:0000b0c0  A_VileChase_
0001:0000b240  A_VileStart_
0001:0000b260  A_StartFire_
0001:0000b290  A_FireCrackle_
0001:0000b2c0  A_Fire_
0001:0000b380  A_VileTarget_
0001:0000b400  A_VileAttack_
0001:0000b520  A_FatRaise_
0001:0000b550  A_FatAttack1_
0001:0000b5f0  A_FatAttack2_
0001:0000b6a0  A_FatAttack3_
0001:0000b7a0  A_SkullAttack_
0001:0000b890+ A_PainShootSkull_
0001:0000b9d0  A_PainAttack_
0001:0000ba10  A_PainDie_
0001:0000ba60  A_Scream_
0001:0000baf0  A_XScream_
0001:0000bb10  A_Pain_
0001:0000bb40  A_Fall_
0001:0000bb60  A_Explode_
0001:0000bb90  A_BossDeath_
0001:0000bce0  A_Hoof_
0001:0000bd10  A_Metal_
0001:0000bd40  A_BabyMetal_
0001:0000bd70* A_OpenShotgun2_
0001:0000bd90* A_LoadShotgun2_
0001:0000bdb0* A_CloseShotgun2_
0001:0000bde0  A_BrainAwake_
0001:0000be70  A_BrainPain_
0001:0000be90  A_BrainScream_
0001:0000bf60  A_BrainExplode_
0001:0000c000  A_BrainDie_
0001:0000c010  A_BrainSpit_
0001:0000c0d0  A_SpawnSound_
0001:0000c100  A_SpawnFly_
0001:0000c250  A_PlayerScream_
0002:0000a55c+ _opposite
0002:0000a580+ _diags
0002:0000a590+ _xspeed
0002:0000a5b0+ _yspeed
0002:0000a5d0+ _TRACEANGLE
0002:00015144+ _braintargets
0002:00015184+ _numbraintargets
0002:00015188+ _braintargeton
0002:0001518c+ _viletryy
0002:00015190+ _viletryx
0002:00015194+ _vileobj
0002:00015198+ _corpsehitRef
0002:0001519a+ _soundtargetRef
Module: p_floor.obj(C:\REALDOOM\p_floor.c)
0001:0000c290  T_MovePlane_
0001:0000c580  T_MoveFloor_
0001:0000c6e0  EV_DoFloor_
0001:0000cbd0  EV_BuildStairs_
Module: p_inter.obj(C:\REALDOOM\p_inter.c)
0001:0000cdf0+ P_GiveAmmo_
0001:0000cf40+ P_GiveWeapon_
0001:0000cfb0+ P_GiveBody_
0001:0000cff0+ P_GiveArmor_
0001:0000d020+ P_GiveCard_
0001:0000d050  P_GivePower_
0001:0000d1b0  P_TouchSpecialThing_
0001:0000d8d0+ P_KillMobj_
0001:0000da30  P_DamageMobj_
0002:0000a5d8  _maxammo
0002:0000a5e0+ _clipammo
Module: p_lights.obj(C:\REALDOOM\p_lights.c)
0001:0000dd90  T_FireFlicker_
0001:0000de10  P_SpawnFireFlicker_
0001:0000deb0  T_LightFlash_
0001:0000df30  P_SpawnLightFlash_
0001:0000dfe0  T_StrobeFlash_
0001:0000e070  P_SpawnStrobeFlash_
0001:0000e140  EV_StartLightStrobing_
0001:0000e1a0  EV_TurnTagLightsOff_
0001:0000e280  EV_LightTurnOn_
0001:0000e340  T_Glow_
0001:0000e400  P_SpawnGlowingLight_
Module: p_map.obj(C:\REALDOOM\p_map.c)
0002:0001519c+ _tmbbox
0002:000151ac  _spechit
0002:000151bc+ _crushchange
0002:000151c0+ _nofit
0002:000151c4+ _bombdamage
0002:000151c8  _attackrange
0002:000151cc+ _aimslope
0002:000151d0+ _shootz
0002:000151d4+ _bestslidefrac
0002:000151d8+ _tmymove
0002:000151dc+ _tmxmove
0002:000151e0+ _secondslidefrac
0002:000151e4  _numspechit
0002:000151e8+ _tmy
0002:000151ec+ _tmx
0002:000151f0+ _tmflags
0002:000151f4+ _tmdropoffz
0002:000151f8  _tmfloorz
0002:000151fc  _floatok
0002:00015200+ _tmceilingz
0002:00015204+ _bombspotRef
0002:00015206+ _bombsourceRef
0002:00015208+ _usethingRef
0002:0001520a+ _la_damage
0002:0001520c+ _shootthingRef
0001:0000e4a0+ PIT_StompThing_
0001:0000e550  P_TeleportMove_
0001:0000e6f0+ PIT_CheckLine_
0001:0000e860+ PIT_CheckThing_
0001:0000eae0  P_CheckPosition_
0001:0000eca0  P_TryMove_
0001:0000ee60+ P_ThingHeightClip_
0001:0000eef0+ P_HitSlideLine_
0001:0000f020+ PTR_SlideTraverse_
0001:0000f120  P_SlideMove_
0001:0000f380+ PTR_AimTraverse_
0001:0000f570+ PTR_ShootTraverse_
0001:0000f880  P_AimLineAttack_
0001:0000f940  P_LineAttack_
0001:0000f9f0+ PTR_UseTraverse_
0001:0000fab0  P_UseLines_
0001:0000fb10+ PIT_RadiusAttack_
0001:0000fbf0  P_RadiusAttack_
0001:0000fc90+ PIT_ChangeSector_
0001:0000fda0  P_ChangeSector_
0002:0001520e+ _slidemoRef
0002:00015210+ _bestslidelinenum
0002:00015212+ _secondslidelinenum
0002:00015214+ _tmthingRef
0002:00015216  _ceilinglinenum
0002:00015218  _linetargetRef
Module: p_maputl.obj(C:\REALDOOM\p_maputl.c)
0001:0000fe10  P_AproxDistance_
0001:0000fe40  P_PointOnLineSide_
0001:0000ff10  P_BoxOnLineSide_
0001:00010070+ P_PointOnDivlineSide_
0001:00010140+ P_MakeDivline_
0001:00010170+ P_InterceptVector_
0001:000101e0  P_LineOpening_
0001:00010260  P_UnsetThingPosition_
0001:00010380  P_SetThingPosition_
0001:000104f0  P_BlockLinesIterator_
0001:000105c0  P_BlockThingsIterator_
0001:00010640+ PIT_AddLineIntercepts_
0001:000107c0+ PIT_AddThingIntercepts_
0001:000108b0+ P_TraverseIntercepts_
0001:00010920  P_PathTraverse_
0002:0001521c  _trace
0002:0001522c+ _intercepts
0002:0001572c+ _ptflags
0002:00015730+ _earlyout
0002:00015734+ _intercept_p
0002:00015738  _opentop
0002:0001573c  _lowfloor
0002:00015740  _openbottom
0002:00015744  _openrange
Module: p_plats.obj(C:\REALDOOM\p_plats.c)
0001:00010b80  T_PlatRaise_
0001:00010d30  EV_DoPlat_
0001:00011010+ P_ActivateInStasis_
0001:00011070  EV_StopPlat_
0001:000110d0+ P_AddActivePlat_
0001:00011110+ P_RemoveActivePlat_
0002:00015748  _activeplats
Module: p_pspr.obj(C:\REALDOOM\p_pspr.c)
0001:00011180+ P_BringUpWeapon_
0001:000111e0+ P_CheckAmmo_
0001:00011320+ P_FireWeapon_
0001:00011380  P_DropWeapon_
0001:000113b0+ A_WeaponReady_
0001:000114d0  A_ReFire_
0001:00011510* A_CheckReload_
0001:00011520+ A_Lower_
0001:00011570+ A_Raise_
0001:000115b0+ A_GunFlash_
0001:000115f0+ A_Punch_
0001:000116c0+ A_Saw_
0001:000117f0+ A_FireMissile_
0001:00011830+ A_FireBFG_
0001:00011870+ A_FirePlasma_
0001:000118d0+ P_BulletSlope_
0001:00011950+ P_GunShot_
0001:000119c0+ A_FirePistol_
0001:00011a50+ A_FireShotgun_
0001:00011ae0+ A_FireShotgun2_
0001:00011bd0+ A_FireCGun_
0001:00011c90* A_Light0_
0001:00011ca0* A_Light1_
0001:00011cb0* A_Light2_
0001:00011cc0* A_BFGSpray_
0001:00011da0* A_BFGsound_
0001:00011dc0  P_SetupPsprites_
0001:00011e00  P_MovePsprites_
0001:00011ed0+ P_SetPsprite_
0002:0000a5ec  _weaponinfo
0002:00015784+ _bulletslope
Module: p_setup.obj(C:\REALDOOM\p_setup.c)
0002:00015788  _blocklinks
0002:00016728  _bmapwidth
0002:0001672c  _bmaporgx
0002:00016730  _bmaporgy
0002:00016734  _bmapheight
0002:00016738  _blockmapOffset
0002:0001673c  _blockmaplumpRef
0002:0001673e  _rejectmatrixRef
0002:00016740  _linebufferRef
0002:00016742  _sidesRef
0002:00016744  _numvertexes
0001:00012040+ P_LoadVertexes_
0001:00012110+ P_LoadSegs_
0001:000122b0+ P_LoadSubsectors_
0001:00012390+ P_LoadSectors_
0001:000124c0+ P_LoadNodes_
0001:00012610+ P_LoadThings_
0001:000126e0+ P_LoadLineDefs_
0001:00012910+ P_LoadSideDefs_
0001:00012ad0+ P_LoadBlockMap_
0001:00012b80+ P_GroupLines_
0001:00012eb0  P_SetupLevel_
0001:00013040  P_Init_
0002:00016746  _linesRef
0002:00016748  _numlines
0002:0001674a  _numnodes
0002:0001674c  _segsRef
0002:0001674e  _nodesRef
0002:00016750  _sectorsRef
0002:00016752  _vertexesRef
0002:00016754  _numsectors
0002:00016756  _subsectorsRef
0002:00016758  _numsubsectors
0002:0001675a  _numsides
0002:0001675c+ _numsegs
Module: p_sight.obj(C:\REALDOOM\p_sight.c)
0001:00013060+ P_DivlineSide_
0001:00013130+ P_InterceptVector2_
0001:000131a0+ P_CrossSubsector_
0001:00013430+ P_CrossBSPNode_
0001:00013520  P_CheckSight_
0002:00016760+ _strace
0002:00016770  _bottomslope
0002:00016774+ _sightzstart
0002:00016778+ _cachedt2x
0002:0001677c+ _cachedt2y
0002:00016780  _topslope
Module: p_spec.obj(C:\REALDOOM\p_spec.c)
0001:00013630  P_InitPicAnims_
0001:00013720  getSideNum_
0001:00013780  getSector_
0001:000137f0  twoSided_
0001:00013850  getNextSector_
0001:000138a0  P_FindLowestFloorSurrounding_
0001:00013950  P_FindHighestFloorSurrounding_
0001:000139f0  P_FindNextHighestFloor_
0001:00013ad0  P_FindLowestCeilingSurrounding_
0001:00013b70  P_FindHighestCeilingSurrounding_
0001:00013c10  P_FindSectorFromLineTag_
0001:00013c50  P_FindMinSurroundingLight_
0001:00013f20  P_CrossSpecialLine_
0001:00014610  P_ShootSpecialLine_
0001:00014700  P_PlayerInSpecialSector_
0001:000148a0  P_UpdateSpecials_
0001:00014a90  EV_DoDonut_
0001:00014ce0  P_SpawnSpecials_
0002:0000a6ac+ _animdefs
0002:00016784+ _anims
0002:000168c4+ _linespeciallist
0002:00016944+ _lastanim
0002:00016948+ _levelTimer
0002:0001694c+ _levelTimeCount
0002:00016950+ _numlinespecials
Module: p_switch.obj(C:\REALDOOM\p_switch.c)
0001:00014eb0  P_InitSwitchList_
0001:00014f60+ P_StartButton_
0001:00015010  P_ChangeSwitchTexture_
0001:00015450  P_UseSpecialLine_
0002:0000a8a8+ _alphSwitchList
0002:00016954+ _switchlist
0002:00016a1c  _buttonlist
0002:00016b3c+ _numswitches
Module: p_mobj.obj(C:\REALDOOM\p_mobj.c)
0001:000160a0+ P_ExplodeMissile_
0001:00016130+ P_XYMovement_
0001:000164a0+ P_ZMovement_
0001:00016660+ P_NightmareRespawn_
0001:000167e0  P_MobjThinker_
0001:00016930  P_SpawnMobj_
0001:00016a80  P_RemoveMobj_
0001:00016b20+ P_SpawnPlayer_
0001:00016c20  P_SpawnMapThing_
0001:00016e00  P_SpawnPuff_
0001:00016e80  P_SpawnBlood_
0001:00016f10+ P_CheckMissileSpawn_
0001:00016f90  P_SpawnMissile_
0001:000170f0  P_SpawnPlayerMissile_
0001:00017300  P_SetMobjState_
0002:00016b40+ _itemrespawnque
0002:00017040+ _itemrespawntime
0002:00017240  _iquehead
0002:00017244  _iquetail
0002:00017248  _SAVEDUNIT
Module: p_telept.obj(C:\REALDOOM\p_telept.c)
0001:00017680  EV_Teleport_
Module: p_saveg.obj(C:\REALDOOM\p_saveg.c)
0001:00017850  P_ArchivePlayers_
0001:00017920  P_UnArchivePlayers_
0001:00017a00  P_ArchiveWorld_
0001:00017b50  P_UnArchiveWorld_
0001:00017ca0  P_ArchiveThinkers_
0001:00017da0  P_UnArchiveThinkers_
0001:00017f50  P_ArchiveSpecials_
0001:000182c0  P_UnArchiveSpecials_
0002:0001724c+ _specials_e
0002:00017250  _save_p
Module: p_tick.obj(C:\REALDOOM\p_tick.c)
0001:000182d0  P_InitThinkers_
0001:00018320+ P_GetNextThinkerRef_
0001:00018380  P_AddThinker_
0001:000183f0  P_UpdateThinkerFunc_
0001:00018410  P_RemoveThinker_
0001:00018450+ P_RunThinkers_
0001:000186c0  P_Ticker_
0002:0000abe0+ _addCount
0002:00017254  _thinkerlist
0002:00018dac  _leveltime
0002:00018db0+ _currentThinkerListHead
Module: p_user.obj(C:\REALDOOM\p_user.c)
0001:00018720+ P_Thrust_
0001:00018770+ P_CalcHeight_
0001:000188a0+ P_MovePlayer_
0001:00018940+ P_DeathThink_
0001:00018a50  P_PlayerThink_
0002:00018db4+ _onground
Module: r_bsp.obj(C:\REALDOOM\r_bsp.c)
0001:00018c90  R_ClearDrawSegs_
0001:00018ca0+ R_ClipSolidWallSegment_
0001:00018d80+ R_ClipPassWallSegment_
0001:00018e20  R_ClearClipSegs_
0001:00018e60+ R_AddLine_
0001:000190b0+ R_CheckBBox_
0001:00019290+ R_Subsector_
0001:00019370  R_RenderBSPNode_
0002:00018db8+ _solidsegs
0002:00018eb8  _drawsegs
0002:0001b6b8+ _newend
0002:0001b6bc  _ds_p
0002:0001b6c0  _curlinenum
0002:0001b6c2  _backsecnum
0002:0001b6c4  _linedefOffset
0002:0001b6c6  _frontsecnum
Module: r_data.obj(C:\REALDOOM\r_data.c)
0002:0001b6c8+ _colormapbytes
0002:000242c4  _colormaps
0002:000242c8+ _texturecompositesizeRef
0002:000242ca+ _texturecompositeRef
0002:000242cc+ _texturecolumnlumpRef
0002:000242ce+ _texturecolumnofsRef
0002:000242d0+ _lastflat
0002:000242d2+ _lastpatch
0002:000242d4+ _numpatches
0002:000242d6+ _texturesRef
0002:000242d8+ _firstpatch
0002:000242da+ _texturewidthmaskRef
0002:000242dc+ _numtextures
0002:000242de+ _numflats
0002:000242e0  _spritetopoffsetRef
0002:000242e2  _firstflat
0002:000242e4  _firstspritelump
0002:000242e6  _lastspritelump
0002:000242e8  _flattranslationRef
0001:00019490+ R_DrawColumnInCache_
0001:00019540+ R_GenerateComposite_
0001:00019760+ R_GenerateLookup_
0001:00019a40  R_GetColumn_
0001:00019b10+ R_InitTextures_
0001:0001a060+ R_InitFlats_
0001:0001a0e0+ R_InitSpriteLumps_
0001:0001a270+ R_InitColormaps_
0001:0001a2b0  R_InitData_
0001:0001a2f0  R_FlatNumForName_
0001:0001a350  R_CheckTextureNumForName_
0001:0001a3c0  R_TextureNumForName_
0001:0001a400  R_PrecacheLevel_
0001:0001a750  R_EraseCompositeCache_
0002:000242ea+ _numspritelumps
0002:000242ec  _spriteoffsetRef
0002:000242ee  _texturetranslationRef
0002:000242f0  _textureheightRef
0002:000242f2  _spritewidthRef
Module: r_draw.obj(C:\REALDOOM\r_draw.c)
0002:000242f4+ _columnofs
0002:00024574+ _viewimage
0002:00024578  _ds_xstep
0002:0002457c  _ds_ystep
0002:00024580  _ds_yfrac
0002:00024584  _ds_source
0002:00024588  _ds_colormap
0002:0002458c  _ds_xfrac
0002:00024590  _dc_translation
0002:00024594  _dc_texturemid
0002:00024598  _dc_iscale
0002:0002459c  _dc_source
0002:000245a0  _dc_colormap
0002:000245a4  _ds_x1
0002:000245a6  _ds_x2
0002:000245a8  _ds_sourceRef
0002:000245aa  _translationtablesRef
0002:000245ac  _ds_y
0002:000245ae  _dc_x
0002:000245b0  _dc_yh
0002:000245b2  _dc_yl
0002:000245b4  _viewwindowx
0002:000245b6  _viewwindowy
0002:000245b8  _scaledviewwidth
0001:0001a790  R_DrawColumn_
0001:0001a840  R_DrawColumnLow_
0001:0001a900  R_DrawFuzzColumn_
0001:0001aa60  R_DrawTranslatedColumn_
0001:0001ab70  R_InitTranslationTables_
0001:0001ac00  R_DrawSpan_
0001:0001ad40  R_DrawSpanLow_
0001:0001ae70  R_InitBuffer_
0001:0001aee0  R_FillBackScreen_
0001:0001b200  R_VideoErase_
0001:0001b280  R_DrawViewBorder_
0002:0000abe4+ _fuzzoffset
0002:0000ac48+ _fuzzpos
0002:000245ba  _viewheight
0002:000245bc  _viewwidth
Module: r_main.obj(C:\REALDOOM\r_main.c)
0002:000245c0  _scalelight
0002:000251c0  _zlight
0002:000271c0+ _scalelightfixed
0002:00027280  _viewangletox
0002:0002b280  _setsizeneeded
0002:0002b284+ _transcolfunc
0002:0002b288+ _framecount
0002:0002b28c  _viewangleoffset
0002:0002b290  _basecolfunc
0002:0002b294  _spanfunc
0002:0002b298  _fuzzcolfunc
0002:0002b29c  _detailshift
0002:0002b2a0  _extralight
0002:0002b2a4  _fixedcolormap
0002:0002b2a8  _projection
0002:0002b2ac  _centeryfrac
0002:0002b2b0  _centerxfrac
0002:0002b2b4+ _centerx
0002:0002b2b8  _centery
0002:0002b2bc  _viewsin
0002:0002b2c0  _viewcos
0002:0002b2c4  _colfunc
0002:0002b2c8  _fieldofview
0001:0001b340+ R_PointOnSide_
0001:0001b3f0  R_PointOnSegSide_
0001:0001b4d0  R_PointToAngle_
0001:0001b6b0  R_PointToAngle2_
0001:0001b6e0  R_PointToDist_
0001:0001b750  R_ScaleFromGlobalAngle_
0001:0001b7e0+ R_InitTextureMapping_
0001:0001b990+ R_InitLightTables_
0001:0001ba20  R_SetViewSize_
0001:0001ba40  R_ExecuteSetViewSize_
0001:0001bd00  R_Init_
0001:0001bd90  R_PointInSubsector_
0001:0001be00+ R_SetupFrame_
0001:0001bf10  R_RenderPlayerView_
0002:0000ac4c  _validcount
0002:0002b2cc  _xtoviewangle
0002:0002b7d0  _viewplayer
0002:0002b7d4  _clipangle
0002:0002b7d8  _viewangle
0002:0002b7dc  _viewz
0002:0002b7e0  _viewy
0002:0002b7e4  _viewx
0002:0002b7e8+ _setdetail
0002:0002b7e9+ _setblocks
Module: r_sky.obj(C:\REALDOOM\r_sky.c)
0001:0001bf70  R_InitSkyMap_
0002:0002b7ec  _skytexture
0002:0002b7ee  _skyflatnum
Module: r_plane.obj(C:\REALDOOM\r_plane.c)
0002:0002b7f0+ _cachedxstep
0002:0002bb10+ _cachedystep
0002:0002be30+ _spanstart
0002:0002bfc0+ _cachedheight
0002:0002c2e0+ _openings
0002:000362e0+ _cacheddistance
0002:00036600+ _visplanes
0002:0004af00  _floorclip
0002:0004b180  _ceilingclip
0002:0004b400  _yslope
0002:0004b720  _distscale
0002:0004bc20+ _ceilingfunc
0001:0001bf90  R_InitPlanes_
0001:0001bfa0+ R_MapPlane_
0001:0001c0f0  R_ClearPlanes_
0001:0001c1a0  R_FindPlane_
0001:0001c250  R_CheckPlane_
0001:0001c2f0  R_DrawPlanes_
0002:0004bc24+ _planeheight
0002:0004bc28+ _lastvisplane
0002:0004bc2c+ _planezlight
0002:0004bc30+ _baseyscale
0002:0004bc34+ _basexscale
0002:0004bc38+ _floorfunc
0002:0004bc3c  _lastopening
0002:0004bc40  _floorplane
0002:0004bc44  _ceilingplane
Module: r_segs.obj(C:\REALDOOM\r_segs.c)
0002:0004bc48+ _topfrac
0002:0004bc4c+ _bottomstep
0002:0004bc50+ _pixhigh
0002:0004bc54+ _bottomfrac
0002:0004bc58+ _pixlow
0002:0004bc5c+ _pixhighstep
0002:0004bc60  _walllights
0002:0004bc64+ _topstep
0002:0004bc68+ _pixlowstep
0002:0004bc6c+ _worldlow
0002:0004bc70+ _maskedtexturecol
0002:0004bc74+ _rw_centerangle
0002:0004bc78+ _rw_scalestep
0002:0004bc7c+ _maskedtexture
0002:0004bc80+ _rw_toptexturemid
0002:0004bc84+ _worldtop
0002:0004bc88+ _rw_bottomtexturemid
0002:0004bc8c+ _rw_midtexturemid
0002:0004bc90+ _worldbottom
0002:0004bc94+ _rw_scale
0002:0004bc98+ _worldhigh
0002:0004bc9c+ _rw_offset
0001:0001c550  R_RenderMaskedSegRange_
0001:0001c840+ R_RenderSegLoop_
0001:0001cbf0  R_StoreWallRange_
0002:0004bca0+ _segtextured
0002:0004bca4+ _markfloor
0002:0004bca8+ _markceiling
0002:0004bcac  _rw_normalangle
0002:0004bcb0  _rw_distance
0002:0004bcb4  _rw_angle1
0002:0004bcb8+ _toptexture
0002:0004bcba+ _midtexture
0002:0004bcbc+ _bottomtexture
0002:0004bcbe+ _rw_stopx
0002:0004bcc0+ _rw_x
Module: r_things.obj(C:\REALDOOM\r_things.c)
0002:0004bcc4  _negonearray
0002:0004bf44  _screenheightarray
0002:0004c1c4+ _vissprites
0002:0004dcc4+ _spritelights
0002:0004dcc8+ _spritename
0002:0004dccc+ _sprtemp
0002:0004dff8  _mfloorclip
0002:0004dffc  _mceilingclip
0002:0004e000  _pspritescale
0002:0004e004  _sprtopscreen
0002:0004e008  _pspriteiscale
0001:0001d5b0+ R_InstallSpriteLump_
0001:0001d740+ R_InitSpriteDefs_
0001:0001d9a0  R_InitSprites_
0001:0001d9e0  R_ClearSprites_
0001:0001d9f0  R_DrawMaskedColumn_
0001:0001dae0+ R_DrawVisSprite_
0001:0001dbe0+ R_ProjectSprite_
0001:0001dec0  R_AddSprites_
0001:0001dfb0+ R_DrawPSprite_
0001:0001e1a0+ R_DrawPlayerSprites_
0001:0001e260+ R_SortVisSprites_
0001:0001e340+ R_DrawSprite_
0001:0001e590  R_DrawMasked_
0002:0004e00c  _spryscale
0002:0004e010+ _vissprite_p
0002:0004e014+ _overflowsprite
0002:0004e04a+ _vsprsortedhead
0002:0004e080+ _maxframe
0002:0004e082  _numsprites
0002:0004e084  _spritesRef
Module: w_wad.obj(C:\REALDOOM\w_wad.c)
0001:0001e600+ ExtractFileBase_
0001:0001e680+ W_AddFile_
0001:0001e870  W_Reload_
0001:0001e980  W_InitMultipleFiles_
0001:0001ea00  W_CheckNumForName_
0001:0001ea90  W_GetNumForName_
0001:0001eac0  W_LumpLength_
0001:0001eb00+ W_ReadLumpEMS_
0001:0001ebe0  W_ReadLump_
0001:0001ecb0  W_CacheLumpNumCheck_
0001:0001ed00  W_CacheLumpNumEMS_
0001:0001edb0  W_CacheLumpNameEMS_
0001:0001edd0  W_CacheLumpNameEMSAsPatch_
0001:0001edf0  W_EraseLumpCache_
0002:0004e088+ _reloadname
0002:0004e08c+ _reloadlump
0002:0004e090  _lumpinfo
0002:0004e094+ _lumpcacheEMS
0002:0004e098+ _numlumps
Module: v_video.obj(C:\REALDOOM\v_video.c)
0001:0001ee10  V_MarkRect_
0001:0001ee50  V_CopyRect_
0001:0001ef00  V_DrawPatch_
0001:0001f010  V_DrawPatchFlipped_
0001:0001f100  V_DrawPatchDirect_
0001:0001f1f0  V_DrawBlock_
0001:0001f270  V_Init_
0002:0000ac50  _gammatable
0002:0004e09c  _dirtybox
0002:0004e0a4  _screens
0002:0004e0b8  _screen4Ref
0002:0004e0ba  _usegamma
Module: z_zone.obj(C:\REALDOOM\z_zone.c)
0002:0004e0bc+ _allocations
0002:000540bc+ _pageevictorder
0002:000540dc+ _activepages
0002:0005411c+ _pagesize
0002:0000b150+ _currentListHead
0001:0001f2b0  Z_ChangeTagEMSNew_
0001:0001f340  Z_InitEMS_
0001:0001f440  Z_FreeEMSNew_
0001:0001f5e0  Z_FreeTagsEMS_
0001:0001f650+ Z_MarkPageLRU_
0001:0001f6f0  Z_RefIsActive2_
0001:0001f7f0+ Z_MarkPageMRU_
0001:0001f890+ Z_DoPageOut_
0001:0001f970+ Z_DoPageIn_
0001:0001fa10+ Z_PageOutIfInMemory_
0001:0001fa90+ Z_GetEMSPageFrame_
0001:0001fc10  Z_LoadBytesFromEMS2_
0001:0001fc90+ Z_GetNextFreeArrayIndex_
0001:0001fce0  Z_MallocEMSNew_
0001:0001fd00  Z_MallocEMSNewWithBackRef_
0002:0000b160  _numreads
0002:0000b164  _pageins
0002:0000b168  _pageouts
0002:0000b16c+ _actualpageins
0002:0000b170+ _actualpageouts
0002:00054140+ _EMSArea
0002:00054144+ _pageFrameArea
0002:00054148+ _memsize
Module: st_stuff.obj(C:\REALDOOM\st_stuff.c)
0002:0000b184+ _cheat_mus_seq
0002:0000b18d+ _cheat_choppers_seq
0002:0000b198+ _cheat_god_seq
0002:0000b19e+ _cheat_ammo_seq
0002:0000b1a4+ _cheat_ammonokey_seq
0002:0000b1a9+ _cheat_noclip_seq
0002:0000b1b4+ _cheat_commercial_noclip_seq
0002:0000b1bb+ _cheat_powerup_seq
0002:0000b201+ _cheat_clev_seq
0002:0000b20b+ _cheat_mypos_seq
0002:0000b213+ _cheat_mus
0002:0000b21b+ _cheat_god
0002:0000b223+ _cheat_ammo
0002:0000b22b+ _cheat_ammonokey
0002:0000b233+ _cheat_noclip
0002:0000b23b+ _cheat_commercial_noclip
0002:0000b243+ _cheat_powerup
0002:0000b27b+ _cheat_choppers
0002:0000b283+ _cheat_clev
0002:0000b28b+ _cheat_mypos
0001:000200c0+ ST_refreshBackground_
0001:00020110  ST_Responder_
0001:000205e0+ ST_calcPainOffset_
0001:00020640+ ST_updateFaceWidget_
0001:00020940+ ST_updateWidgets_
0001:00020a00  ST_Ticker_
0001:00020a30+ ST_doPaletteStuff_
0001:00020b00+ ST_drawWidgets_
0001:00020bc0  ST_Drawer_
0001:00020c50+ ST_loadGraphics_
0001:00020ee0+ ST_loadData_
0001:00020f00+ ST_unloadGraphics_
0001:00020ff0* ST_unloadData_
0001:00021000+ ST_initData_
0001:000210b0+ ST_createWidgets_
0001:000213e0  ST_Start_
0001:00021410+ ST_Stop_
0001:00021450  ST_Init_
Module: st_lib.obj(C:\REALDOOM\st_lib.c)
0001:00021490  STlib_init_
0001:000214a0  STlib_initNum_
0001:000214d0+ STlib_drawNum_
0001:00021630  STlib_updateNum_
0001:00021650  STlib_initPercent_
0001:00021680  STlib_updatePercent_
0001:000216d0  STlib_initMultIcon_
0001:00021700  STlib_updateMultIcon_
0001:00021800  STlib_initBinIcon_
0001:00021830  STlib_updateBinIcon_
Module: hu_stuff.obj(C:\REALDOOM\hu_stuff.c)
0002:00054518+ _shiftxform
0002:00054520  _message_dontfuckwithme
0002:000546e4  _hu_fontRef
0001:00021910* ForeignTranslation_
0001:00021930  HU_Init_
0001:000219a0  HU_Start_
0001:00021a80  HU_Drawer_
0001:00021ab0  HU_Erase_
0001:00021ad0  HU_Ticker_
0001:00021ba0  HU_Responder_
0002:000043b4+ _french_shiftxform
0002:00004434+ _english_shiftxform
0002:0000b2b0+ _mapnames
0002:0000b364+ _mapnames2
0002:0000b3e4+ _frenchKeyMap
Module: hu_lib.obj(C:\REALDOOM\hu_lib.c)
0001:00021c20+ HUlib_clearTextLine_
0001:00021c40  HUlib_initTextLine_
0001:00021c60  HUlib_addCharToTextLine_
0001:00021ca0  HUlib_drawTextLine_
0001:00021d70  HUlib_eraseTextLine_
0001:00021e60  HUlib_initSText_
0001:00021ee0+ HUlib_addLineToSText_
0001:00021f30  HUlib_addMessageToSText_
0001:00021f80  HUlib_drawSText_
0001:00021fd0  HUlib_eraseSText_
Module: wi_stuff.obj(C:\REALDOOM\wi_stuff.c)
0002:000548a6+ _lnamesRef
0001:00022020+ WI_slamBackground_
0001:00022070+ WI_drawLF_
0001:000220a0+ WI_drawEL_
0001:00022140+ WI_drawOnLnode_
0001:00022250+ WI_initAnimatedBack_
0001:000222e0+ WI_updateAnimatedBack_
0001:000223f0+ WI_drawAnimatedBack_
0001:00022470+ WI_drawNum_
0001:00022560+ WI_drawPercent_
0001:000225b0+ WI_drawTime_
0001:00022670* WI_End_
0001:00022680* WI_initNoState_
0001:000226b0+ WI_updateNoState_
0001:000226e0* WI_initShowNextLoc_
0001:00022710+ WI_updateShowNextLoc_
0001:00022770+ WI_drawShowNextLoc_
0001:00022810* WI_drawNoState_
0001:00022830+ WI_initStats_
0001:00022880+ WI_updateStats_
0001:00022b90+ WI_drawStats_
0001:00022ce0+ WI_checkForAccelerate_
0001:00022d50  WI_Ticker_
0001:00022dc0+ WI_loadData_
0001:00023130+ WI_unloadData_
0001:00023310  WI_Drawer_
0001:00023340+ WI_initVariables_
0001:000233b0  WI_Start_
Module: s_sound.obj(C:\REALDOOM\s_sound.c)
0002:000548bb  _numChannels
0001:000233e0  S_SetMusicVolume_
0001:00023420+ S_StopMusic_
0001:00023470  S_ChangeMusic_
0001:00023510  S_StartMusic_
0001:00023530+ S_StopChannel_
0001:00023590+ S_AdjustSoundParams_
0001:000236d0  S_SetSfxVolume_
0001:00023700  S_PauseSound_
0001:00023720  S_ResumeSound_
0001:00023740  S_StopSound_
0001:00023780+ S_getChannel_
0001:00023830+ S_StartSoundAtVolume_
0001:000239c0  S_StartSoundFromRef_
0001:00023a10  S_StartSound_
0001:00023a50  S_StartSoundWithParams_
0001:00023a70  S_UpdateSounds_
0001:00023bb0  S_Init_
0001:00023c60  S_Start_
Module: sounds.obj(C:\REALDOOM\sounds.c)
0002:0000ba48  _S_music
0002:0000be88  _S_sfx
Module: dutils.obj(C:\REALDOOM\dutils.c)
0001:00023d10  cht_CheckCheat_
0001:00023e00  cht_GetParam_
Module: f_wipe.obj(C:\REALDOOM\f_wipe.c)
0001:00023e30+ wipe_shittyColMajorXform_
0001:00023f00+ wipe_initColorXForm_
0001:00023f40+ wipe_doColorXForm_
0001:00023fe0+ wipe_exitColorXForm_
0001:00023ff0+ wipe_initMelt_
0001:000240e0+ wipe_doMelt_
0001:000242a0+ wipe_exitMelt_
0001:000242c0  wipe_StartScreen_
0001:000242e0  wipe_EndScreen_
0001:00024320  wipe_ScreenWipe_
Module: info.obj(C:\REALDOOM\info.c)
0002:0000cdfc  _sprnames
0002:0000d024  _states
0002:0000e6ce  _mobjinfo
Module: dmx.obj(C:\REALDOOM\dmx.c)
0001:00024570  TS_Shutdown_
0001:000245c0  TS_ScheduleTask_
0001:00024600  TS_Terminate_
0001:00024620  TS_Dispatch_
0002:0001008c+ _TS_InInterrupt
Module: C:\WATCOM\lib386\dos\clib3r.lib(cstart)
0001:00000003* ___begtext
0002:00000000* __nullarea
0002:00010090* __D16Infoseg
0002:00010092  __x386_zero_base_selector
0001:00024634  _cstart_
0001:00024882  __exit_
0001:00024884  __do_exit_with_msg__
0001:000248cc  __GETDS
0001:000248cc  ___GETDSStart_
0001:000248d7  ___GETDSEnd_
Module: C:\WATCOM\lib386\dos\clib3r.lib(argcv.c)
0002:000549f8  __argc
0002:000549fc  __argv
0002:00054a00  ___argc
0002:00054a04  ___argv
Module: C:\WATCOM\lib386\dos\clib3r.lib(int386.c)
0001:000248e0  int386_
Module: C:\WATCOM\lib386\dos\clib3r.lib(memset.c)
0001:00024900  memset_
Module: C:\WATCOM\lib386\dos\clib3r.lib(d_getvec.c)
0001:00024920  _dos_getvect_
Module: C:\WATCOM\lib386\dos\clib3r.lib(d_setvec.c)
0001:00024960  _dos_setvect_
Module: C:\WATCOM\lib386\dos\clib3r.lib(printf.c)
0001:00024990  printf_
Module: C:\WATCOM\lib386\dos\clib3r.lib(segread.c)
0001:000249c0  segread_
Module: C:\WATCOM\lib386\dos\clib3r.lib(intx386.c)
0001:000249f0  int386x_
Module: C:\WATCOM\lib386\dos\clib3r.lib(vprintf.c)
0001:00024a10  vprintf_
Module: C:\WATCOM\lib386\dos\clib3r.lib(exit.c)
0001:00024a21+ __null_int23_exit_
0001:00024a22  exit_
0001:00024a4e* _exit_
0002:00010094+ ___int23_exit
0002:00010098  ___FPE_handler_exit
Module: C:\WATCOM\lib386\dos\clib3r.lib(nmalloc.c)
0001:00024a70  _nmalloc_
0001:00024a70  malloc_
0002:0001009c  ___nheapbeg
0002:000100a0  ___MiniHeapRover
0002:000100a4  ___LargestSizeB4MiniHeapRover
Module: C:\WATCOM\lib386\dos\clib3r.lib(sprintf.c)
0001:00024b70  sprintf_
Module: C:\WATCOM\lib386\dos\clib3r.lib(toupper.c)
0001:00024ba0  toupper_
Module: C:\WATCOM\lib386\dos\clib3r.lib(i8m)
0001:00024bb0  __I8M
0001:00024bb0  __U8M
Module: C:\WATCOM\lib386\dos\clib3r.lib(i8s)
0001:00024bcc* __U8RS
0001:00024be6  __I8RS
0001:00024c01* __I8LS
0001:00024c01* __U8LS
Module: C:\WATCOM\lib386\math387r.lib(fchop87)
0001:00024c1c  __CHP
Module: C:\WATCOM\lib386\dos\clib3r.lib(accss.c)
0001:00024c40  access_
Module: C:\WATCOM\lib386\dos\clib3r.lib(fopen.c)
0001:00024c80+ __open_flags_
0001:00024e80+ _fsopen_
0001:00024ed0  fopen_
0001:00024f50* freopen_
Module: C:\WATCOM\lib386\dos\clib3r.lib(fseek.c)
0001:00025000  fseek_
Module: C:\WATCOM\lib386\dos\clib3r.lib(ftell.c)
0001:00025100  ftell_
Module: C:\WATCOM\lib386\dos\clib3r.lib(fread.c)
0001:00025150  fread_
Module: C:\WATCOM\lib386\dos\clib3r.lib(fclose.c)
0001:00025320  __doclose_
0001:000253a0  __shutdown_stream_
0001:000253c0  fclose_
0002:00054a08+ ___RmTmpFileFn
Module: C:\WATCOM\lib386\dos\clib3r.lib(iob.c)
0002:000100a8  ___iob
0002:000102b0  __fmode
0002:00054a0c  ___OpenStreams
0002:00054a10  ___ClosedStreams
Module: C:\WATCOM\lib386\dos\clib3r.lib(setbuf.c)
0001:000253f0  setbuf_
Module: C:\WATCOM\lib386\dos\clib3r.lib(mkdir.c)
0001:00025410  mkdir_
Module: C:\WATCOM\lib386\dos\clib3r.lib(atoi.c)
0001:00025430  atoi_
Module: C:\WATCOM\lib386\dos\clib3r.lib(fgetc.c)
0001:00025480  __fill_buffer_
0001:00025580  fgetc_
Module: C:\WATCOM\lib386\noemu387.lib(386)
0001:0002561c  __init_387_emulator
0001:0002561d* __fini_387_emulator
Module: C:\WATCOM\lib386\dos\clib3r.lib(_8087)
0002:000102b4  __8087
0002:000102b5  __real87
Module: C:\WATCOM\lib386\dos\clib3r.lib(_strcmp)
0001:00025620  strcmp_
Module: C:\WATCOM\lib386\dos\clib3r.lib(open.c)
0001:000259a0  open_
0001:000259c0  sopen_
Module: C:\WATCOM\lib386\dos\clib3r.lib(read.c)
0001:000259f0  read_
Module: C:\WATCOM\lib386\dos\clib3r.lib(close.c)
0001:00025b20  close_
Module: C:\WATCOM\lib386\dos\clib3r.lib(strncpy.c)
0001:00025b30  strncpy_
Module: C:\WATCOM\lib386\dos\clib3r.lib(_istrcc_.asm)
0001:00025b68  strcasecmp_
Module: C:\WATCOM\lib386\dos\clib3r.lib(write.c)
0001:00025c80  write_
Module: C:\WATCOM\lib386\dos\clib3r.lib(fstat.c)
0001:00025ec0  fstat_
Module: C:\WATCOM\lib386\dos\clib3r.lib(fprintf.c)
0001:00025fe0  fprintf_
Module: C:\WATCOM\lib386\dos\clib3r.lib(fscanf.c)
0001:00026080+ vfscanf_
0001:000260d0  fscanf_
Module: C:\WATCOM\lib386\dos\clib3r.lib(sscanf.c)
0001:00026140+ vsscanf_
0001:00026170  sscanf_
Module: C:\WATCOM\lib386\dos\clib3r.lib(memmove.c)
0001:000261a0  memmove_
Module: C:\WATCOM\lib386\dos\clib3r.lib(stack386.c)
0001:00026200  stackavail_
Module: C:\WATCOM\lib386\dos\clib3r.lib(stk)
0001:00026227* __STK
0001:00026214* __CHK
0001:00026224  __GRO
0001:00026245  __STKOVERFLOW_
Module: C:\WATCOM\lib386\dos\clib3r.lib(_istrncc.asm)
0001:00026254  strncasecmp_
Module: C:\WATCOM\lib386\dos\clib3r.lib(_istrcmp.asm)
0001:0002625c  strcmpi_
Module: C:\WATCOM\lib386\dos\clib3r.lib(filelen.c)
0001:00026270  filelength_
Module: C:\WATCOM\lib386\dos\clib3r.lib(strncmp.c)
0001:000262c0  strncmp_
Module: C:\WATCOM\lib386\dos\clib3r.lib(lseek.c)
0001:000262f0  lseek_
Module: C:\WATCOM\lib386\dos\clib3r.lib(nrealloc.c)
0001:00026320* _nrealloc_
0001:00026320  realloc_
Module: C:\WATCOM\lib386\dos\clib3r.lib(strupr.c)
0001:000263c0  strupr_
Module: C:\WATCOM\lib386\dos\clib3r.lib(chainint)
0001:000263e0  _chain_intr_
Module: C:\WATCOM\lib386\dos\clib3r.lib(nfree.c)
0001:00026410  _nfree_
0001:00026410  free_
0002:00054a14  ___MiniHeapFreeRover
Module: C:\WATCOM\lib386\dos\clib3r.lib(cmain386.c)
0001:00026510  __CMain
Module: C:\WATCOM\lib386\dos\clib3r.lib(initrtns.c)
0001:00026560  __InitRtns
0001:000265b0  __FiniRtns
Module: C:\WATCOM\lib386\dos\clib3r.lib(dosseg)
0000:00001234  __DOSseg__
Module: C:\WATCOM\lib386\dos\clib3r.lib(crwdata)
0002:00010307  __osmajor
0002:00010308  __osminor
0002:000102dc  __psp
0002:000102fe  __Extender
0002:000102ff  __ExtenderSubtype
0002:00010300  __X32VM
0002:000102e0* __x386_stacklow
0002:000102d4  __LpCmdLine
0002:000102d8  __LpPgmName
0002:000102cc  __dynend
0002:000102d0  __curbrk
0002:000102e0  __STACKLOW
0002:000102e4  __STACKTOP
0002:000102e8  __ASTACKSIZ
0002:000102ec  __ASTACKPTR
0002:000102f0  __cbyte
0002:000102f4* __cbyte2
0002:000102f8  __child
0002:00010301  __Envptr
0002:00010305  __Envseg
0002:000102fc  __no87
0002:00010309  ___FPE_handler
Module: C:\WATCOM\lib386\dos\clib3r.lib(uselfn.c)
0002:00010310  ___uselfn
Module: C:\WATCOM\lib386\dos\clib3r.lib(initargv.c)
0001:00026610  __Init_Argv_
0001:00026660+ _getargv_
0001:00026800  __Fini_Argv_
Module: C:\WATCOM\lib386\dos\clib3r.lib(__stos)
0001:00026810  __STOSB
0001:00026847* __STOSD
Module: C:\WATCOM\lib386\dos\clib3r.lib(fprtf.c)
0001:000268e0  __fprtf_
Module: C:\WATCOM\lib386\dos\clib3r.lib(int386xa)
0001:00026978  __int386x_
0001:000269d4* _DoINTR_
Module: C:\WATCOM\lib386\dos\clib3r.lib(nmemneed.c)
0001:00026d60  __nmemneed_
Module: C:\WATCOM\lib386\dos\clib3r.lib(mem.c)
0001:00026d70  __MemAllocator
0001:00026e20  __MemFree
Module: C:\WATCOM\lib386\dos\clib3r.lib(grownear.c)
0001:00026fe0+ __FreeDPMIBlocks_
0001:00027050  __ReAllocDPMIBlock_
0001:000271e0+ __LastFree_
0001:00027450  __ExpandDGROUP_
Module: C:\WATCOM\lib386\dos\clib3r.lib(vsprintf.c)
0001:000275c0  vsprintf_
Module: C:\WATCOM\lib386\dos\clib3r.lib(gfattdos.c)
0001:000275e0  _dos_getfileattr_
Module: C:\WATCOM\lib386\dos\clib3r.lib(dosret.c)
0001:00027600  _dosretax_
0001:00027610* _dosret0_
0001:00027620  __set_errno_dos_
0001:000276a0* __set_errno_dos_reterr_
Module: C:\WATCOM\lib386\dos\clib3r.lib(comtflag.c)
0001:000276b0* __set_commode_
0002:00010328  __commode
Module: C:\WATCOM\lib386\dos\clib3r.lib(seterrno.c)
0001:000276bb  __set_errno_
0001:000276c7* __set_EDOM_
0001:000276d3* __set_ERANGE_
0001:000276df* __set_EINVAL_
0001:000276f0  __set_doserrno_
Module: C:\WATCOM\lib386\dos\clib3r.lib(tolower.c)
0001:00027700  tolower_
Module: C:\WATCOM\lib386\dos\clib3r.lib(chktty.c)
0001:00027710  __chktty_
Module: C:\WATCOM\lib386\dos\clib3r.lib(freefp.c)
0001:00027750  __freefp_
0001:00027790  __purgefp_
Module: C:\WATCOM\lib386\dos\clib3r.lib(allocfp.c)
0001:000277c0  __allocfp_
Module: C:\WATCOM\lib386\dos\clib3r.lib(flush.c)
0001:00027880  __flush_
Module: C:\WATCOM\lib386\dos\clib3r.lib(tell.c)
0001:00027970  tell_
Module: C:\WATCOM\lib386\dos\clib3r.lib(fflush.c)
0001:00027990  fflush_
Module: C:\WATCOM\lib386\dos\clib3r.lib(qread.c)
0001:000279a0  __qread_
Module: C:\WATCOM\lib386\dos\clib3r.lib(ioalloc.c)
0001:000279d0  __ioalloc_
Module: C:\WATCOM\lib386\dos\clib3r.lib(__lseek.c)
0001:00027a70  __lseek_
Module: C:\WATCOM\lib386\dos\clib3r.lib(_clse.c)
0001:00027ac0  __close_
Module: C:\WATCOM\lib386\dos\clib3r.lib(initfile.c)
0001:00027b10  __InitFiles_
Module: C:\WATCOM\lib386\dos\clib3r.lib(ioexit.c)
0001:00027c10* fcloseall_
0001:00027c20  __full_io_exit_
Module: C:\WATCOM\lib386\dos\clib3r.lib(setvbuf.c)
0001:00027c30  setvbuf_
Module: C:\WATCOM\lib386\dos\clib3r.lib(doserror)
0001:00027c98  __doserror_
Module: C:\WATCOM\lib386\dos\clib3r.lib(istable.c)
0002:000044b4  __IsTable
Module: C:\WATCOM\lib386\dos\clib3r.lib(flushall.c)
0001:00027cb0  __flushall_
0001:00027cf0  flushall_
Module: C:\WATCOM\lib386\dos\clib3r.lib(gtche.c)
0001:00027d00  getche_
Module: C:\WATCOM\lib386\dos\clib3r.lib(chk8087.c)
0001:00027d40* _fpreset_
0001:00027d60+ __init_8087_
0001:00027da0+ __default_sigfpe_handler_
0001:00027dc0  __chk8087_
Module: C:\WATCOM\lib386\dos\clib3r.lib(opendos.c)
0001:00027e30  _dos_open_
Module: C:\WATCOM\lib386\dos\clib3r.lib(iomode.c)
0001:00027e50  __GetIOMode_
0001:00027e70  __SetIOMode_nogrow_
0002:0001032c  ___NFiles
0002:00010330  ___init_mode
0002:00010380  ___io_mode
Module: C:\WATCOM\lib386\dos\clib3r.lib(isatt.c)
0001:00027e90  isatty_
Module: C:\WATCOM\lib386\dos\clib3r.lib(errno.c)
0001:00027eb0  __get_errno_ptr_
0001:00027ec0  __get_doserrno_ptr_
0002:00054a1c+ _errno
0002:00054a20+ __doserrno
Module: C:\WATCOM\lib386\dos\clib3r.lib(umaskval.c)
0002:00010384  ___umaskval
Module: C:\WATCOM\lib386\dos\clib3r.lib(creatdos.c)
0001:00027ed0  _dos_creat_
0001:00027ef0* _dos_creatnew_
Module: C:\WATCOM\lib386\dos\clib3r.lib(stiomode.c)
0001:00027f10+ __grow_iomode_
0001:00027fd0+ __shrink_iomode_
0001:00028000  __SetIOMode_
Module: C:\WATCOM\lib386\dos\clib3r.lib(iomodtty.c)
0001:00028070  __ChkTTYIOMode_
0001:000280b0* __IOMode_
Module: C:\WATCOM\lib386\dos\clib3r.lib(stricmp.c)
0001:000280d0  stricmp_
Module: C:\WATCOM\lib386\dos\clib3r.lib(d2ttime.c)
0001:00028110  _d2ttime_
Module: C:\WATCOM\lib386\dos\clib3r.lib(ungetc.c)
0001:00028190  ungetc_
Module: C:\WATCOM\lib386\dos\clib3r.lib(scnf.c)
0001:00028f70  __scnf_
Module: C:\WATCOM\lib386\dos\clib3r.lib(xmsg.c)
0001:000291e0* __exit_with_msg_
0001:000291f0  __fatal_runtime_error_
Module: C:\WATCOM\lib386\dos\clib3r.lib(strnicmp.c)
0001:00029210  strnicmp_
Module: C:\WATCOM\lib386\dos\clib3r.lib(nmsize.c)
0001:00029260  _nmsize_
0001:00029260* _msize_
Module: C:\WATCOM\lib386\dos\clib3r.lib(nexpand.c)
0001:00029270  _nexpand_
0001:00029270* _expand_
0001:000292e0+ __HeapManager_expand_
Module: C:\WATCOM\lib386\dos\clib3r.lib(cinit.c)
0001:000294b0  __CommonInit_
Module: C:\WATCOM\lib386\dos\clib3r.lib(___argc.c)
0002:00054a28  ____Argc
0002:00054a2c  ____Argv
Module: C:\WATCOM\lib386\dos\clib3r.lib(sgdef086)
0002:00010790  __Start_XI
0002:000107cc  __End_XI
0002:000107cc  __Start_YI
0002:000107f0  __End_YI
Module: C:\WATCOM\lib386\dos\clib3r.lib(histsplt.c)
0002:00054a30  ___historical_splitparms
Module: C:\WATCOM\lib386\dos\clib3r.lib(fputc.c)
0001:00029510  fputc_
Module: C:\WATCOM\lib386\dos\clib3r.lib(prtf.c)
0001:000295d0  __prtf_
Module: C:\WATCOM\lib386\dos\clib3r.lib(heapen.c)
0001:0002a440* _heapenable_
0002:00010388  ___heap_enabled
Module: C:\WATCOM\lib386\dos\clib3r.lib(minreal.c)
0002:00054a34  ___minreal
Module: C:\WATCOM\lib386\dos\clib3r.lib(amblksiz.c)
0002:0001038c  __amblksiz
Module: C:\WATCOM\lib386\dos\clib3r.lib(sbrk386.c)
0001:0002a450* sbrk_
0001:0002a530  __brk_
Module: C:\WATCOM\lib386\dos\clib3r.lib(qwrit.c)
0001:0002a650  __qwrite_
Module: C:\WATCOM\lib386\dos\clib3r.lib(fsync.c)
0001:0002a6d0  fsync_
Module: C:\WATCOM\lib386\dos\clib3r.lib(8087cw.c)
0002:00010390  __8087cw
Module: C:\WATCOM\lib386\dos\clib3r.lib(save8087.c)
0002:00010394  ___Save8087
0002:00010398  ___Rest8087
Module: C:\WATCOM\lib386\dos\clib3r.lib(init8087)
0001:0002a6e4  __x87id
Module: C:\WATCOM\lib386\dos\clib3r.lib(grabfp87.c)
0001:0002a720  __GrabFP87_
Module: C:\WATCOM\lib386\dos\clib3r.lib(mktime.c)
0001:0002a790  mktime_
Module: C:\WATCOM\lib386\dos\clib3r.lib(mbisdbcs.c)
0002:00054a38  ___IsDBCS
Module: C:\WATCOM\lib386\dos\clib3r.lib(mbislead.c)
0001:0002a820* _ismbblead_
0002:00054a3c  ___MBCSIsTable
Module: C:\WATCOM\lib386\dos\clib3r.lib(mbtowc.c)
0001:0002a840  mbtowc_
Module: C:\WATCOM\lib386\dos\clib3r.lib(bits.c)
0002:000045b8  __Bits
Module: C:\WATCOM\lib386\dos\clib3r.lib(noefgfmt.c)
0002:0001039c  ___EFG_printf
0002:000103a0  ___EFG_scanf
Module: C:\WATCOM\lib386\dos\clib3r.lib(fdfs386)
0001:0002a914  __FDFS
Module: C:\WATCOM\lib386\dos\clib3r.lib(enterdb.c)
0001:0002a960  __EnterWVIDEO_
0002:000103a4+ ___WD_Present
Module: C:\WATCOM\lib386\dos\clib3r.lib(dpmihost.c)
0001:0002a990  __DPMI_hosted_
Module: C:\WATCOM\lib386\dos\clib3r.lib(wctomb.c)
0001:0002aa30  wctomb_
Module: C:\WATCOM\lib386\dos\clib3r.lib(itoa.c)
0001:0002aa60+ utoa_
0001:0002aab0  itoa_
Module: C:\WATCOM\lib386\dos\clib3r.lib(lltoa.c)
0001:0002aae0  ulltoa_
0001:0002ab50* lltoa_
Module: C:\WATCOM\lib386\dos\clib3r.lib(ltoa.c)
0001:0002ab80  ultoa_
0001:0002abd0* ltoa_
Module: C:\WATCOM\lib386\dos\clib3r.lib(filedos.c)
0001:0002ac00* _dos_close_
0001:0002ac10  _dos_commit_
Module: C:\WATCOM\lib386\dos\clib3r.lib(fpe387)
0002:000103ac  ___PMSeg
0002:000103ae  ___PMAddr
0002:000103b2  ___RMAddr
0001:0002ac20  __Init_FPE_handler_
0001:0002ac58  __Fini_FPE_handler_
Module: C:\WATCOM\lib386\dos\clib3r.lib(fpeinth)
0001:0002ac94  __FPEHandler_
0001:0002ac94  ___FPEHandlerStart_
0001:0002aca1  __FPE2Handler_
0001:0002ada3  ___FPEHandlerEnd_
Module: C:\WATCOM\lib386\dos\clib3r.lib(locmktim.c)
0001:0002aee0  __local_mktime_
Module: C:\WATCOM\lib386\dos\clib3r.lib(gmtime.c)
0001:0002b060  __brktime_
0001:0002b160+ _gmtime_
0001:0002b180* gmtime_
Module: C:\WATCOM\lib386\dos\clib3r.lib(tzset.c)
0002:000105d4  ___start_dst
0002:000105f8  ___end_dst
0002:00010720* _tzname
0002:00010728  _timezone
0002:0001072c  _daylight
0002:00010730  ___dst_adjust
0001:0002b190* __DontCacheOSTZ_
0001:0002b1a0* __CacheOSTZ_
0001:0002b6b0+ __parse_tz_
0001:0002b8e0  tzset_
Module: C:\WATCOM\lib386\dos\clib3r.lib(timeutil.c)
0001:0002ba50  __isindst_
Module: C:\WATCOM\lib386\dos\clib3r.lib(mbinit.c)
0001:0002bdba  __mbinit_
0001:0002be8b+ dos_get_dbcs_lead_table_
0001:0002bf7f+ dos_get_code_page_
0002:00010780  ___MBCodePage
Module: C:\WATCOM\lib386\dos\clib3r.lib(alphabet.c)
0002:000042fc  ___Alphabet
Module: C:\WATCOM\lib386\dos\clib3r.lib(fpephar)
0001:0002c120  __Phar_hook_init_
0001:0002c1e6  __Phar_hook_fini_
Module: C:\WATCOM\lib386\dos\clib3r.lib(fpedos4g)
0001:0002c214  __DOS4G_hook_init_
0001:0002c242  __DOS4G_hook_fini_
Module: C:\WATCOM\lib386\dos\clib3r.lib(fpexcept.c)
0001:0002c260  __FPE_exception_
Module: C:\WATCOM\lib386\dos\clib3r.lib(leapyear.c)
0001:0002c270  __leapyear_
0002:00004324  ___diyr
0002:0000433e  ___dilyr
Module: C:\WATCOM\lib386\dos\clib3r.lib(getenv.c)
0001:0002c2b0  getenv_
Module: C:\WATCOM\lib386\dos\clib3r.lib(intdx386.c)
0001:0002c340  intdosx_
Module: C:\WATCOM\lib386\dos\clib3r.lib(inirmsel.c)
0002:00054b64  __ExtenderRealModeSelector
Module: C:\WATCOM\lib386\dos\clib3r.lib(fpeint.c)
0002:00010784  ___FPE_int
0002:00010785  ___IRQ_num
0002:00010786+ ___IRQ_int
0002:00010787  ___MST_pic
0002:00010788+ ___SLV_pic
Module: C:\WATCOM\lib386\dos\clib3r.lib(environ.c)
0002:00054b68  ___env_mask
0002:00054b6c  _environ
0002:00054b70* __wenviron
Module: C:\WATCOM\lib386\dos\clib3r.lib(mbterm.c)
0001:0002c510  _mbterm_
Module: C:\WATCOM\lib386\dos\clib3r.lib(mbsnextc.c)
0001:0002c550  _mbsnextc_
Module: C:\WATCOM\lib386\dos\clib3r.lib(mbcupper.c)
0001:0002c590  _mbctoupper_
Module: C:\WATCOM\lib386\dos\clib3r.lib(mbsinc.c)
0001:0002c5b0  _mbsinc_
Module: C:\WATCOM\lib386\dos\clib3r.lib(nonibm.c)
0001:0002c5e0+ __is_nonIBM_
0002:0001078c  ___NonIBM
Module: C:\WATCOM\lib386\dos\clib3r.lib(setenvp.c)
0001:0002c640  __setenvp_
0001:0002c720  __freeenvp_
Module: C:\WATCOM\lib386\dos\clib3r.lib(mbdtoupp.c)
0001:0002c770  _mbdtoupper_
Module: C:\WATCOM\lib386\dos\clib3r.lib(clearenv.c)
0001:0002c790  clearenv_


                        +----------------------+
                        |   Imported Symbols   |
                        +----------------------+

Symbol                              Module
======                              ======



                        +--------------------+
                        |   Libraries Used   |
                        +--------------------+

C:\WATCOM\lib386\noemu387.lib
C:\WATCOM\lib386\dos\clib3r.lib
C:\WATCOM\lib386\math387r.lib


                        +-----------------------+
                        |   Linker Statistics   |
                        +-----------------------+

Stack size:  6000 (24576.)
Memory size:  000873a0 (553888.)
Entry point address: 0001:00024634
Link time: 00:01.09
