Open Watcom Linker Version 1.9
Portions Copyright (c) 1985-2002 Sybase, Inc. All Rights Reserved.
Created on:       23/09/03 14:15:19
Warning! W1008: cannot open clibl.lib : file not found
Warning! W1008: cannot open math87l.lib : file not found
Warning! W1008: cannot open emu87.lib : file not found
Executable Image: newdoom.exe
creating an OS/2 linear executable
Error! E2028: _cstart_ is an undefined reference
Error! E2028: _big_code_ is an undefined reference
Error! E2028: __argc is an undefined reference
Error! E2028: int86_ is an undefined reference
Error! E2028: _dos_getvect_ is an undefined reference
Error! E2028: _dos_setvect_ is an undefined reference
Error! E2028: printf_ is an undefined reference
Error! E2028: malloc_ is an undefined reference
Error! E2028: vprintf_ is an undefined reference
Error! E2028: exit_ is an undefined reference
Error! E2028: sprintf_ is an undefined reference
Error! E2028: toupper_ is an undefined reference
Error! E2028: __I8M is an undefined reference
Error! E2028: __I4M is an undefined reference
Error! E2028: FIDRQQ is an undefined reference
Error! E2028: FISRQQ is an undefined reference
Error! E2028: FJSRQQ is an undefined reference
Error! E2028: FIWRQQ is an undefined reference
Error! E2028: __CHP is an undefined reference
Error! E2028: __I4D is an undefined reference
Error! E2028: access_ is an undefined reference
Error! E2028: fopen_ is an undefined reference
Error! E2028: fseek_ is an undefined reference
Error! E2028: ftell_ is an undefined reference
Error! E2028: fread_ is an undefined reference
Error! E2028: fclose_ is an undefined reference
Error! E2028: ___iob is an undefined reference
Error! E2028: setbuf_ is an undefined reference
Error! E2028: mkdir_ is an undefined reference
Error! E2028: atoi_ is an undefined reference
Error! E2028: fgetc_ is an undefined reference
Error! E2028: __init_87_emulator is an undefined reference
Error! E2028: __8087 is an undefined reference
Error! E2028: open_ is an undefined reference
Error! E2028: read_ is an undefined reference
Error! E2028: close_ is an undefined reference
Error! E2028: strncpy_ is an undefined reference
Error! E2028: strcasecmp_ is an undefined reference
Error! E2028: write_ is an undefined reference
Error! E2028: fstat_ is an undefined reference
Error! E2028: fprintf_ is an undefined reference
Error! E2028: fscanf_ is an undefined reference
Error! E2028: sscanf_ is an undefined reference
Error! E2028: memmove_ is an undefined reference
Error! E2028: stackavail_ is an undefined reference
Error! E2028: strncasecmp_ is an undefined reference
Error! E2028: __U4D is an undefined reference
Error! E2028: strcmpi_ is an undefined reference
Error! E2028: filelength_ is an undefined reference
Error! E2028: strncmp_ is an undefined reference
Error! E2028: lseek_ is an undefined reference
Error! E2028: realloc_ is an undefined reference
Error! E2028: strupr_ is an undefined reference
Error! E2028: _chain_intr_ is an undefined reference
Error! E2028: free_ is an undefined reference


                        +------------+
                        |   Groups   |
                        +------------+

Group                           Address              Size
=====                           =======              ====

DGROUP                          0004:00000000        00008d8e



                        +--------------+
                        |   Segments   |
                        +--------------+

Segment                Class          Group          Address         Size
=======                =====          =====          =======         ====

i_main_TEXT            CODE           AUTO           0001:00000000   0000001c
i_ibm_TEXT             CODE           AUTO           0001:00000020   00000dab
i_sound_TEXT           CODE           AUTO           0001:00000dd0   00000159
tables_TEXT            CODE           AUTO           0001:00000f30   00000242
f_finale_TEXT          CODE           AUTO           0001:00001180   00000c34
d_main_TEXT            CODE           AUTO           0001:00001dc0   00001330
d_net_TEXT             CODE           AUTO           0001:000030f0   0000017b
g_game_TEXT            CODE           AUTO           0001:00003270   000018c6
m_menu_TEXT            CODE           AUTO           0001:00004b40   000019a0
m_misc_TEXT            CODE           AUTO           0001:000064e0   00000575
am_map_TEXT            CODE           AUTO           0001:00006a60   00001f4d
p_ceilng_TEXT          CODE           AUTO           0001:000089b0   000004e3
p_doors_TEXT           CODE           AUTO           0001:00008ea0   000009ee
p_enemy_TEXT           CODE           AUTO           0001:00009890   00002c45
p_floor_TEXT           CODE           AUTO           0001:0000c4e0   00000c42
p_inter_TEXT           CODE           AUTO           0001:0000d130   00000ed5
p_lights_TEXT          CODE           AUTO           0001:0000e010   00000783
p_map_TEXT             CODE           AUTO           0002:00000000   000020e7
p_maputl_TEXT          CODE           AUTO           0002:000020f0   00001136
p_plats_TEXT           CODE           AUTO           0002:00003230   000006d4
p_pspr_TEXT            CODE           AUTO           0002:00003910   00000e85
p_setup_TEXT           CODE           AUTO           0002:000047a0   00001029
p_sight_TEXT           CODE           AUTO           0002:000057d0   00000a76
p_spec_TEXT            CODE           AUTO           0002:00006250   000017e3
p_switch_TEXT          CODE           AUTO           0002:00007a40   00000eaf
p_mobj_TEXT            CODE           AUTO           0002:000088f0   000018a5
p_telept_TEXT          CODE           AUTO           0002:0000a1a0   0000024e
p_saveg_TEXT           CODE           AUTO           0002:0000a3f0   000009bf
p_tick_TEXT            CODE           AUTO           0002:0000adb0   00000290
p_user_TEXT            CODE           AUTO           0002:0000b040   00000731
r_bsp_TEXT             CODE           AUTO           0002:0000b780   00000976
r_data_TEXT            CODE           AUTO           0002:0000c100   00001214
r_draw_TEXT            CODE           AUTO           0002:0000d320   00000b00
r_main_TEXT            CODE           AUTO           0002:0000de20   00001032
r_sky_TEXT             CODE           AUTO           0002:0000ee60   00000015
r_plane_TEXT           CODE           AUTO           0002:0000ee80   00000848
r_segs_TEXT            CODE           AUTO           0003:00000000   00001498
r_things_TEXT          CODE           AUTO           0003:000014a0   000014b8
w_wad_TEXT             CODE           AUTO           0003:00002960   0000084f
v_video_TEXT           CODE           AUTO           0003:000031b0   000004a7
z_zone_TEXT            CODE           AUTO           0003:00003660   00001132
st_stuff_TEXT          CODE           AUTO           0003:000047a0   000011aa
st_lib_TEXT            CODE           AUTO           0003:00005950   00000424
hu_stuff_TEXT          CODE           AUTO           0003:00005d80   000002b6
hu_lib_TEXT            CODE           AUTO           0003:00006040   00000472
wi_stuff_TEXT          CODE           AUTO           0003:000064c0   00001145
s_sound_TEXT           CODE           AUTO           0003:00007610   00000a1a
sounds_TEXT            CODE           AUTO           0003:00008030   00000000
dutils_TEXT            CODE           AUTO           0003:00008030   00000146
f_wipe_TEXT            CODE           AUTO           0003:00008180   00000000
info_TEXT              CODE           AUTO           0003:00008180   0000022b
dmx_TEXT               CODE           AUTO           0003:000083b0   00000285
CONST                  DATA           DGROUP         0004:00000000   000042e6
CONST2                 DATA           DGROUP         0004:000042e6   0000010c
_DATA                  DATA           DGROUP         0004:00004400   00001bb0
_BSS                   BSS            DGROUP         0004:00005fb0   00002dde
tables13_DATA          FAR_DATA       AUTO           0005:00000000   00005004
d_main13_DATA          FAR_DATA       AUTO           0005:00005010   00000f80
p_maputl13_DATA        FAR_DATA       AUTO           0005:00005f90   00000400
p_setup13_DATA         FAR_DATA       AUTO           0005:00006390   00000fa0
p_switch13_DATA        FAR_DATA       AUTO           0005:00007330   00000334
p_tick13_DATA          FAR_DATA       AUTO           0005:00007670   00001f40
r_bsp13_DATA           FAR_DATA       AUTO           0005:000095b0   00002200
r_data13_DATA          FAR_DATA       AUTO           0006:00000000   00008bfc
r_main13_DATA          FAR_DATA       AUTO           0006:00008c00   00004c00
r_plane13_DATA         FAR_DATA       AUTO           0007:00000000   0000bba8
r_things13_DATA        FAR_DATA       AUTO           0007:0000bbb0   00001b00
v_video13_DATA         FAR_DATA       AUTO           0007:0000d6b0   00000500
z_zone13_DATA          FAR_DATA       AUTO           0008:00000000   00007000
sounds13_DATA          FAR_DATA       AUTO           0008:00007000   00000bb4
info13_DATA            FAR_DATA       AUTO           0008:00007bc0   000025a6


                        +----------------+
                        |   Memory Map   |
                        +----------------+

* = unreferenced symbol
+ = symbol only referenced locally

Address        Symbol
=======        ======

Module: i_main.obj(C:\REALDOOM\i_main.c)
0001:00000000+ main_
Module: i_ibm.obj(C:\REALDOOM\i_ibm.c)
0001:00000020+ I_ColorBorder_
0001:0000004e+ I_UnColorBorder_
0001:0000007c  I_WaitVBL_
0001:000000ac  I_SetPalette_
0001:00000104+ I_UpdateBox_
0001:000001fa  I_UpdateNoBlit_
0001:000002ee  I_FinishUpdate_
0001:0000032a  I_InitGraphics_
0001:00000418+ I_ShutdownGraphics_
0001:00000444+ I_ReadScreen_
0001:000004ba  I_StartTic_
0001:000005ea  I_TimerISR_
0001:000005fc+ I_KeyboardISR_
0001:00000658+ I_StartupKeyboard_
0001:0000069a+ I_ShutdownKeyboard_
0001:000006ce+ I_ShutdownMemory_
0001:000006d8+ I_ResetMouse_
0001:000006fe+ I_StartupMouse_
0001:00000758+ I_ShutdownMouse_
0001:0000076c  I_AllocLow_
0001:00000794+ I_ReadMouse_
0001:00000800  I_Init_
0001:0000084a+ I_Shutdown_
0001:0000086a  I_Error_
0001:000008c8  I_Quit_
0001:00000972  I_ZoneBaseEMS_
0001:00000b92+ I_InitDiskFlash_
0001:00000bf6  I_BeginRead_
0001:00000cd6  I_EndRead_
0001:00000d66+ I_InitNetwork_
0004:00004400  _scantokey
0004:00004480+ _oldkeyboardisr
0004:00005fb0+ _olddb
0004:00005fc0+ _keyboardque
0004:00005fe0+ _segregs
0004:00005fe8+ _currentscreen
0004:00005fec+ _pcscreen
0004:00005ff0+ _kbdhead
0004:00005ff4+ _kbdtail
0004:00005ff8  _ticcount
0004:00005ffc  _destview
0004:00006000  _destscreen
0004:00006004+ _out
0004:00006012+ _in
0004:00006020  _regs
0004:0000602e+ _grmode
0004:00006030+ _mousepresent
0004:00006032+ _novideo
Module: i_sound.obj(C:\REALDOOM\i_sound.c)
0004:00006034+ _dmxCodes
0004:0000604c+ _snd_SBport
0004:0000604e+ _snd_Mport
0004:00006050  _snd_SBport8bit
0004:00006051+ _snd_SfxVolume
0004:00006052  _snd_Mport8bit
0004:00006053  _snd_SBirq
0004:00006054+ _snd_MusicVolume
0004:00006055  _snd_SBdma
0004:00006056  _snd_DesiredSfxDevice
0004:00006057  _snd_MusicDevice
0001:00000dd0+ I_StartupTimer_
0001:00000dfa  I_ShutdownTimer_
0001:00000e0a  I_PauseSong_
0001:00000e10  I_ResumeSong_
0001:00000e16  I_SetMusicVolume_
0001:00000e20+ I_SetSfxVolume_
0001:00000e2a  I_RegisterSong_
0001:00000e32  I_UnRegisterSong_
0001:00000e38+ I_QrySongPlaying_
0001:00000e40  I_StopSong_
0001:00000e46  I_PlaySong_
0001:00000e4c  I_GetSfxLumpNum_
0001:00000e9e  I_StartSound_
0001:00000ea8  I_StopSound_
0001:00000eae  I_SoundIsPlaying_
0001:00000eb6  I_UpdateSoundParams_
0001:00000ebc+ I_sndArbitrateCards_
0001:00000ec2  I_StartupSound_
0001:00000f1e  I_ShutdownSound_
0001:00000f24  I_SetChannels_
0004:000042e6+ _snd_prefixen
0004:00006058+ _snd_SfxDevice
0004:00006059  _snd_DesiredMusicDevice
Module: tables.obj(C:\REALDOOM\tables.c)
0001:00000f30  fixedsine_
0005:00000000  _finetangentinner
0005:00002000+ _finesineinner
0005:00003000  _tantoangle
Module: f_finale.obj(C:\REALDOOM\f_finale.c)
0001:00001180  F_StartFinale_
0001:00001304  F_Responder_
0001:0000131a  F_Ticker_
0001:000013be+ F_TextWrite_
0001:000014de+ F_StartCast_
0001:00001562+ F_CastTicker_
0001:00001952+ F_CastResponder_
0001:000019fa+ F_CastPrint_
0001:00001abe+ F_CastDrawer_
0001:00001b9c+ F_DrawPatchCol_
0001:00001c1a+ F_BunnyScroll_
0001:00001d46  F_Drawer_
0004:00004490+ _e1text
0004:00004494+ _e2text
0004:00004498+ _e3text
0004:0000449c+ _c1text
0004:000044a0+ _c2text
0004:000044a4+ _c3text
0004:000044a8+ _c4text
0004:000044ac+ _c5text
0004:000044b0+ _c6text
0004:000044b4+ _castorder
0004:00006060+ _caststate
0004:00006064+ _finaleflat
0004:00006068+ _finaletext
0004:0000606c+ _castdeath
0004:0000606e+ _castattacking
0004:00006070+ _finalecount
0004:00006072+ _finalestage
0004:00006074+ _castonmelee
0004:00006075+ _casttics
0004:00006076+ _castframes
0004:00006077+ _castnum
Module: d_main.obj(C:\REALDOOM\d_main.c)
0004:00006080+ _title
0004:00006100+ _wadfiles
0004:00006150+ _pagename
0004:00006154+ _eventtail
0004:00006158+ _eventhead
0004:0000615c+ _debugfile
0004:00006160+ _pagetic
0004:00006162  _advancedemo
0004:00006164+ _drone
0004:00006166  _shareware
0004:00006168+ _autostart
0004:0000616a  _registered
0004:0000616c  _french
0004:0000616e  _commercial
0004:00006170  _modifiedgame
0001:00001dc0  D_PostEvent_
0001:00001e02  D_ProcessEvents_
0001:00001e60  FixedMul_
0001:00001ea6  FixedMul1632_
0001:00001eb8  FixedDiv_
0001:00001f06+ FixedDiv2_
0001:00001f84+ D_Display_
0001:000021b2+ D_DoomLoop_
0001:0000238c  D_PageTicker_
0001:000023aa+ D_PageDrawer_
0001:000023b0  D_AdvanceDemo_
0001:000023c8  D_DoAdvanceDemo_
0001:000024c0  D_StartTitle_
0001:000024d8+ D_GetCursorColumn_
0001:00002502+ D_GetCursorRow_
0001:0000252c+ D_SetCursorPosition_
0001:0000255a+ D_DrawTitle_
0001:000025e2+ D_RedrawTitle_
0001:0000261c+ D_AddFile_
0001:0000269e+ IdentifyVersion_
0001:0000275c+ FindResponseFile_
0001:000029d4  D_DoomMain_
0004:00004520  _singletics
0004:00004522  _wipegamestate
0004:00006172  _nomonsters
0004:00006174  _fastparm
0004:00006176  _respawnparm
0004:00006178+ _demosequence
0004:00006179+ _startmap
0004:0000617a+ _startskill
0004:0000617b+ _startepisode
0005:00005010+ _wadfile
0005:00005410+ _mapdir
0005:00005810+ _events
0005:00005b90  _basedefault
Module: d_net.obj(C:\REALDOOM\d_net.c)
0001:000030f0  NetUpdate_
0001:000031a8  D_CheckNetGame_
0001:000031b8  TryRunTics_
0004:00006180  _localcmds
0004:00006220  _maketic
0004:00006224+ _gametime
0004:00006228+ _netbuffer
0004:0000622c+ _nettics
0004:00006230+ _skiptics
0004:00006234  _doomcom
Module: g_game.obj(C:\REALDOOM\g_game.c)
0004:00006240+ _savename
0004:00006340+ _savedescription
0004:00006360+ _bodyque
0004:000063a0+ _mousearray
0004:000063a8+ _gamekeydown
0004:000065a8+ _demoname
0004:000065c8  _players
0004:00006660+ _defdemoname
0004:00006664+ _dclicks
0004:00006668  _statcopy
0004:0000666c+ _dclickstate
0004:00006670+ _dclicktime2
0004:00006674+ _dclickstate2
0004:00006678+ _dclicks2
0004:0000667c+ _dclicktime
0004:00006680+ _mousey
0004:00006684+ _mousex
0004:00006688+ _starttime
0004:0000668c+ _demo_p
0004:00006690  _gametic
0004:00006694+ _emptycmd
0004:0000669e  _wminfo
0004:000066b8+ _secretexit
0004:000066ba+ _timingdemo
0004:000066bc+ _sendsave
0004:000066be+ _demobufferRef
0004:000066c0+ _netdemo
0004:000066c2+ _savebufferRef
0004:000066c4+ _sendpause
0004:000066c6  _demoplayback
0004:000066c8  _totalkills
0004:000066ca  _demorecording
0004:000066cc  _singledemo
0004:000066ce  _totalitems
0004:000066d0  _totalsecret
0004:000066d2  _consoleplayer
0004:000066d4  _usergame
0004:000066d6  _paused
0004:000066d8  _viewactive
0004:000066da+ _noblit
0004:000066dc  _respawnmonsters
0004:000066de  _nodrawers
0004:000066e0+ _d_episode
0004:000066e1+ _d_skill
0004:000066e2+ _d_map
0004:000066e3+ _savegameslot
0004:000066e4  _mousebforward
0004:000066e5  _key_speed
0004:000066e6  _mousebfire
0004:000066e7  _key_fire
0004:000066e8  _key_strafe
0004:000066e9+ _turnheld
0004:000066ea  _key_straferight
0004:000066eb  _mousebstrafe
0001:00003270  G_BuildTiccmd_
0001:00003778+ G_DoLoadLevel_
0001:00003824  G_Responder_
0001:00003a2a  G_Ticker_
0001:00003ba8+ G_PlayerFinishLevel_
0001:00003c04  G_PlayerReborn_
0001:00003ca0+ G_CheckSpot_
0001:00003e40+ G_DoReborn_
0001:00003e4c  G_ExitLevel_
0001:00003e5e  G_SecretExitLevel_
0001:00003e98+ G_DoCompleted_
0001:00004074  G_WorldDone_
0001:000040c8+ G_DoWorldDone_
0001:000040ee  G_LoadGame_
0001:00004124+ G_DoLoadGame_
0001:0000428a  G_SaveGame_
0001:000042c6+ G_DoSaveGame_
0001:0000447c  G_DeferedInitNew_
0001:00004496+ G_DoNewGame_
0001:000044e6  G_InitNew_
0001:0000467c+ G_ReadDemoTiccmd_
0001:000046f6+ G_WriteDemoTiccmd_
0001:000047a2  G_RecordDemo_
0001:0000485e  G_BeginRecording_
0001:000048fa  G_DeferedPlayDemo_
0001:0000490e+ G_DoPlayDemo_
0001:000049ee  G_TimeDemo_
0001:00004a32  G_CheckDemoStatus_
0004:000045f0  _precache
0004:000045f4  _forwardmove
0004:000045fc  _sidemove
0004:00004604+ _angleturn
0004:00004610+ _mousebuttons
0004:00004614+ _pars
0004:00004664+ _cpars
0004:000066ec  _key_use
0004:000066ed  _key_strafeleft
0004:000066ee  _key_left
0004:000066ef  _key_up
0004:000066f0  _key_down
0004:000066f1  _key_right
0004:000066f2  _bodyqueslot
0004:000066f3  _gameaction
0004:000066f4  _gamestate
0004:000066f5  _gameskill
0004:000066f6  _gamemap
0004:000066f7  _gameepisode
Module: m_menu.obj(C:\REALDOOM\m_menu.c)
0004:00006700+ _tempstring
0004:00006750+ _savegamestrings
0004:00006840+ _endstring
0004:000068e0+ _saveOldString
0004:000068f8+ _currentMenu
0004:000068fc+ _messageString
0004:00006900+ _messageRoutine
0004:00006904+ _options_e
0004:00006906+ _sound_e
0004:00006908+ _read_e2
0004:0000690a+ _read_e
0004:0000690c+ _load_e
0004:0000690e+ _newgame_e
0004:00006910+ _episodes_e
0004:00006912+ _main_e
0004:00006914+ _whichSkull
0004:00006916+ _skullAnimCounter
0004:00006918+ _itemOn
0004:0000691a+ _messageNeedsInput
0004:0000691c+ _messageLastMenuActive
0004:0000691e  _inhelpscreens
0004:00006920+ _saveStringEnter
0004:00006922+ _saveCharIndex
0004:00006924+ _saveSlot
0004:000046a4+ _gammamsg
0004:00004726+ _endmsg
0004:000049a6+ _endmsg2
0004:00004c26+ _skullName
0004:00004c38+ _MainMenu
0004:00004ca4+ _MainDef
0004:00004cb8+ _EpisodeMenu
0004:00004cee+ _EpiDef
0004:00004d02+ _NewGameMenu
0004:00004d5c+ _NewDef
0004:00004d70+ _OptionsMenu
0004:00004e00+ _OptionsDef
0004:00004e14+ _ReadMenu1
0004:00004e26+ _ReadDef1
0004:00004e3a+ _ReadMenu2
0001:00004b40+ M_ReadSaveStrings_
0001:00004c38+ M_DrawLoad_
0001:00004cb4+ M_DrawSaveLoadBorder_
0001:00004d42+ M_LoadSelect_
0001:00004d94+ M_LoadGame_
0001:00004db2+ M_DrawSave_
0001:00004e6e+ M_DoSave_
0001:00004ea8+ M_SaveSelect_
0001:00004f52+ M_SaveGame_
0001:00004f9a+ M_QuickSaveResponse_
0001:00004fbe+ M_QuickSave_
0001:00005058+ M_QuickLoadResponse_
0001:0000507c+ M_QuickLoad_
0001:000050da+ M_DrawReadThis1_
0001:00005106+ M_DrawReadThis2_
0001:00005132+ M_DrawReadThisRetail_
0001:0000515e+ M_DrawSound_
0001:000051ba+ M_Sound_
0001:000051d4+ M_SfxVol_
0001:00005212+ M_MusicVol_
0001:00005250+ M_DrawMainMenu_
0001:00005278+ M_DrawNewGame_
0001:000052bc+ M_NewGame_
0001:000052f0+ M_DrawEpisode_
0001:00005318+ M_VerifyNightmare_
0001:00005340+ M_ChooseSkill_
0001:00005384+ M_Episode_
0001:000053d0+ M_DrawOptions_
0001:000054a6+ M_Options_
0001:000054c0+ M_ChangeMessages_
0001:000054f6+ M_EndGameResponse_
0001:0000551a+ M_EndGame_
0001:0000554c+ M_ReadThis_
0001:00005566+ M_ReadThis2_
0001:00005580+ M_FinishReadThis_
0001:0000559a+ M_QuitResponse_
0001:000055ea+ M_QuitDOOM_
0001:00005686+ M_ChangeSensitivity_
0001:000056b0+ M_ChangeDetail_
0001:000056ec+ M_SizeDisplay_
0001:0000573a+ M_DrawThermo_
0001:000057e4+ M_StartMessage_
0001:0000581e+ M_StringWidth_
0001:00005884+ M_StringHeight_
0001:000058e0+ M_WriteText_
0001:00005960  M_Responder_
0001:00006190  M_StartControlPanel_
0001:000061b8  M_Drawer_
0001:000063e6+ M_ClearMenus_
0001:000063f2+ M_SetupNextMenu_
0001:0000640e  M_Ticker_
0001:0000642e  M_Init_
0004:00004e4c+ _ReadDef2
0004:00004e60+ _SoundMenu
0004:00004ea8+ _SoundDef
0004:00004ebc+ _LoadMenu
0004:00004f28+ _LoadDef
0004:00004f3c+ _SaveMenu
0004:00004fa8+ _SaveDef
0004:00004fbc+ _detailNames
0004:00004fce+ _msgNames
0004:00004fe0+ _quitsounds
0004:00004fe8+ _quitsounds2
0004:00006926  _menuactive
0004:00006928+ _epi
0004:00006929+ _screenSize
0004:0000692a+ _messageToPrint
0004:0000692b+ _quickSaveSlot
0004:0000692c  _sfxVolume
0004:0000692d  _showMessages
0004:0000692e  _screenblocks
0004:0000692f  _detailLevel
0004:00006930  _musicVolume
0004:00006931  _mouseSensitivity
Module: m_misc.obj(C:\REALDOOM\m_misc.c)
0001:000064e0  M_CheckParm_
0001:0000652a  P_Random_
0001:0000654a  M_Random_
0001:0000656a  M_ClearRandom_
0001:0000657a  M_ClearBox16_
0001:0000659a  M_AddToBox16_
0001:000065c8  M_ClearBox_
0001:000065fe  M_AddToBox_
0001:0000665c  M_WriteFile_
0001:000066b6  M_ReadFile_
0001:0000678c  M_SaveDefaults_
0001:0000682c  M_LoadDefaults_
0004:00004ffa+ _rndtable
0004:000050fa+ _rndindex
0004:000050fc  _prndindex
0004:000050fe+ _defaults
0004:00006940+ _defaultfile
0004:00006944  _myargv
0004:00006948  _myargc
0004:0000694a+ _numdefaults
0004:0000694b  _usemouse
Module: am_map.obj(C:\REALDOOM\am_map.c)
0004:00005250+ _player_arrow
0004:000052c0+ _cheat_player_arrow
0004:000053c0+ _triangle_guy
0004:000053f0+ _thintriangle_guy
0004:00005426  _automapactive
0001:00006a60+ AM_activateNewScale_
0001:00006b52+ AM_saveScaleAndLoc_
0001:00006ba2+ AM_restoreScaleAndLoc_
0001:00006cca+ AM_addMark_
0001:00006d44+ AM_findMinMaxBoundaries_
0001:00006eaa+ AM_changeWindowLoc_
0001:00007026+ AM_initVariables_
0001:0000716c+ AM_loadPics_
0001:000071b8+ AM_unloadPics_
0001:000071e4+ AM_clearMarks_
0001:00007218+ AM_LevelInit_
0001:000072a4  AM_Stop_
0001:000072c6+ AM_Start_
0001:00007310+ AM_minOutWindowScale_
0001:00007346+ AM_maxOutWindowScale_
0001:0000737c  AM_Responder_
0001:00007808+ AM_changeWindowScale_
0001:000078ae+ AM_doFollowPlayer_
0001:00007a04  AM_Ticker_
0001:00007a4c+ AM_clearFB_
0001:00007a7a+ AM_clipMline_
0001:00008000+ AM_drawFline_
0001:000081ba+ AM_drawMline_
0001:000081e4+ AM_drawGrid_
0001:00008314+ AM_drawWalls_
0001:000084d0+ AM_rotate_
0001:000085c4+ AM_drawLineCharacter_
0001:0000870e+ AM_drawPlayers_
0001:0000877e+ AM_drawThings_
0001:00008808+ AM_drawMarks_
0001:000088f2+ AM_drawCrosshair_
0001:0000891a  AM_Drawer_
Module: p_ceilng.obj(C:\REALDOOM\p_ceilng.c)
0001:000089bc  T_MoveCeiling_
0001:00008ba8  EV_DoCeiling_
0001:00008d2c+ P_AddActiveCeiling_
0001:00008d58+ P_RemoveActiveCeiling_
0001:00008dd0+ P_ActivateInStasisCeiling_
0001:00008e2a  EV_CeilingCrushStop_
0004:00006a60  _activeceilings
Module: p_doors.obj(C:\REALDOOM\p_doors.c)
0001:00008ec6  T_VerticalDoor_
0001:00009146  EV_DoLockedDoor_
0001:0000926a  EV_DoDoor_
0001:0000945a  EV_VerticalDoor_
0001:00009770  P_SpawnDoorCloseIn30_
0001:000097ee  P_SpawnDoorRaiseIn5Mins_
Module: p_enemy.obj(C:\REALDOOM\p_enemy.c)
0001:00009890+ P_RecursiveSound_
0001:00009a16  P_NoiseAlert_
0001:00009a42+ P_CheckMeleeRange_
0001:00009af4+ P_CheckMissileRange_
0001:00009c96+ P_Move_
0001:00009e3a+ P_TryWalk_
0001:00009e6a+ P_NewChaseDir_
0001:0000a0ea+ P_LookForPlayers_
0001:0000a1f0  A_KeenDie_
0001:0000a298  A_Look_
0001:0000a3d4  A_Chase_
0001:0000a646  A_FaceTarget_
0001:0000a6e8  A_PosAttack_
0001:0000a78a  A_SPosAttack_
0001:0000a846  A_CPosAttack_
0001:0000a8ea  A_CPosRefire_
0001:0000a95a  A_SpidRefire_
0001:0000a9ca  A_BspiAttack_
0001:0000aa08  A_TroopAttack_
0001:0000aa8e  A_SargAttack_
0001:0000aaee  A_HeadAttack_
0001:0000ab6c  A_CyberAttack_
0001:0000abaa  A_BruisAttack_
0001:0000ac2c  A_SkelMissile_
0001:0000acb6  A_Tracer_
0001:0000afae  A_SkelWhoosh_
0001:0000afdc  A_SkelFist_
0001:0000b048+ PIT_VileCheck_
0001:0000b162  A_VileChase_
0001:0000b35e  A_VileStart_
0001:0000b36e  A_StartFire_
0001:0000b388  A_FireCrackle_
0001:0000b3a2  A_Fire_
0001:0000b496  A_VileTarget_
0001:0000b520  A_VileAttack_
0001:0000b67a  A_FatRaise_
0001:0000b694  A_FatAttack1_
0001:0000b786  A_FatAttack2_
0001:0000b870  A_FatAttack3_
0001:0000b99c  A_SkullAttack_
0001:0000bae6+ A_PainShootSkull_
0001:0000bc7a  A_PainAttack_
0001:0000bcbc  A_PainDie_
0001:0000bd2c  A_Scream_
0001:0000bdc0  A_XScream_
0001:0000bdd0  A_Pain_
0001:0000be00  A_Fall_
0001:0000be18  A_Explode_
0001:0000be3e  A_BossDeath_
0001:0000bf7c  A_Hoof_
0001:0000bf96  A_Metal_
0001:0000bfb0  A_BabyMetal_
0001:0000bfca+ A_OpenShotgun2_
0001:0000bfdc+ A_LoadShotgun2_
0001:0000bfee+ A_CloseShotgun2_
0001:0000c010  A_BrainAwake_
0001:0000c090  A_BrainPain_
0001:0000c0a2  A_BrainScream_
0001:0000c1a0  A_BrainExplode_
0001:0000c268  A_BrainDie_
0001:0000c272  A_BrainSpit_
0001:0000c34a  A_SpawnSound_
0001:0000c364  A_SpawnFly_
0001:0000c4a2  A_PlayerScream_
0004:00005470+ _opposite
0004:00005479+ _diags
0004:00005480+ _xspeed
0004:000054a0+ _yspeed
0004:000054c0+ _TRACEANGLE
0004:00006aa0+ _braintargets
0004:00006ae0+ _viletryy
0004:00006ae4+ _viletryx
0004:00006ae8+ _vileobj
0004:00006aec+ _numbraintargets
0004:00006aee+ _braintargeton
0004:00006af0+ _corpsehitRef
0004:00006af2+ _soundtargetRef
Module: p_floor.obj(C:\REALDOOM\p_floor.c)
0001:0000c4e0  T_MovePlane_
0001:0000c81c  T_MoveFloor_
0001:0000c9be  EV_DoFloor_
0001:0000cf00  EV_BuildStairs_
Module: p_inter.obj(C:\REALDOOM\p_inter.c)
0001:0000d138+ P_GiveAmmo_
0001:0000d24a+ P_GiveWeapon_
0001:0000d2a4+ P_GiveBody_
0001:0000d2e6+ P_GiveArmor_
0001:0000d318+ P_GiveCard_
0001:0000d33a  P_GivePower_
0001:0000d426  P_TouchSpecialThing_
0001:0000daa0+ P_KillMobj_
0001:0000dc34  P_DamageMobj_
0004:000054c6  _maxammo
0004:000054ce+ _clipammo
Module: p_lights.obj(C:\REALDOOM\p_lights.c)
0001:0000e010  T_FireFlicker_
0001:0000e094  P_SpawnFireFlicker_
0001:0000e132  T_LightFlash_
0001:0000e1ce  P_SpawnLightFlash_
0001:0000e278  T_StrobeFlash_
0001:0000e314  P_SpawnStrobeFlash_
0001:0000e3e2  EV_StartLightStrobing_
0001:0000e444  EV_TurnTagLightsOff_
0001:0000e534  EV_LightTurnOn_
0001:0000e628  T_Glow_
0001:0000e6f4  P_SpawnGlowingLight_
Module: p_map.obj(C:\REALDOOM\p_map.c)
0004:00006b00+ _tmbbox
0004:00006b10  _spechit
0004:00006b20  _attackrange
0004:00006b24+ _aimslope
0004:00006b28+ _shootz
0004:00006b2c+ _bestslidefrac
0004:00006b30+ _tmymove
0004:00006b34+ _tmxmove
0004:00006b38+ _secondslidefrac
0004:00006b3c+ _tmy
0004:00006b40+ _tmx
0004:00006b44+ _tmflags
0004:00006b48+ _crushchange
0004:00006b4a+ _nofit
0004:00006b4c+ _bombdamage
0004:00006b4e+ _usethingRef
0004:00006b50+ _bombspotRef
0004:00006b52+ _bombsourceRef
0004:00006b54+ _la_damage
0004:00006b56+ _shootthingRef
0004:00006b58+ _slidemoRef
0004:00006b5a+ _bestslidelinenum
0004:00006b5c+ _secondslidelinenum
0004:00006b5e+ _tmdropoffz
0004:00006b60+ _tmthingRef
0004:00006b62  _numspechit
0004:00006b64  _ceilinglinenum
0002:00000000+ PIT_StompThing_
0002:000000be  P_TeleportMove_
0002:000002a8+ PIT_CheckLine_
0002:000003fe+ PIT_CheckThing_
0002:0000069c  P_CheckPosition_
0002:000008de  P_TryMove_
0002:00000b02+ P_ThingHeightClip_
0002:00000c04+ P_HitSlideLine_
0002:00000d82+ PTR_SlideTraverse_
0002:00000ee0  P_SlideMove_
0002:0000125a+ PTR_AimTraverse_
0002:00001576+ PTR_ShootTraverse_
0002:00001a34  P_AimLineAttack_
0002:00001b42  P_LineAttack_
0002:00001c32+ PTR_UseTraverse_
0002:00001cf4  P_UseLines_
0002:00001da2+ PIT_RadiusAttack_
0002:00001e6e  P_RadiusAttack_
0002:00001f40+ PIT_ChangeSector_
0002:00002068  P_ChangeSector_
0004:00006b66  _linetargetRef
0004:00006b68  _tmfloorz
0004:00006b6a  _floatok
0004:00006b6c+ _tmceilingz
Module: p_maputl.obj(C:\REALDOOM\p_maputl.c)
0002:000020f0  P_AproxDistance_
0002:00002140  P_PointOnLineSide_
0002:0000223a  P_BoxOnLineSide_
0002:00002390+ P_PointOnDivlineSide_
0002:000024e6+ P_PointOnDivlineSide16_
0002:000025e8+ P_MakeDivline_
0002:0000263e+ P_InterceptVector_
0002:0000274e  P_LineOpening_
0002:000027d8  P_UnsetThingPosition_
0002:00002914  P_SetThingPosition_
0002:00002ab4  P_BlockLinesIterator_
0002:00002b6e  P_BlockThingsIterator_
0002:00002bd0+ PIT_AddLineIntercepts_
0002:00002d30+ PIT_AddThingIntercepts_
0002:00002e44+ P_TraverseIntercepts_
0002:00002ece  P_PathTraverse_
0004:00006b70  _trace
0004:00006b80+ _ptflags
0004:00006b84+ _intercept_p
0004:00006b88+ _earlyout
0004:00006b8a  _lowfloor
0004:00006b8c  _openrange
0004:00006b8e  _opentop
0004:00006b90  _openbottom
0005:00005f90+ _intercepts
Module: p_plats.obj(C:\REALDOOM\p_plats.c)
0002:00003238  T_PlatRaise_
0002:00003436  EV_DoPlat_
0002:000037a4+ P_ActivateInStasis_
0002:000037f4  EV_StopPlat_
0002:00003850+ P_AddActivePlat_
0002:00003886+ P_RemoveActivePlat_
0004:00006b92  _activeplats
Module: p_pspr.obj(C:\REALDOOM\p_pspr.c)
0002:00003910+ P_BringUpWeapon_
0002:0000396c+ P_CheckAmmo_
0002:00003ac2+ P_FireWeapon_
0002:00003b12  P_DropWeapon_
0002:00003b3a+ A_WeaponReady_
0002:00003c9c  A_ReFire_
0002:00003cce+ A_CheckReload_
0002:00003cd8+ A_Lower_
0002:00003d28+ A_Raise_
0002:00003d72+ A_GunFlash_
0002:00003da4+ A_Punch_
0002:00003e86+ A_Saw_
0002:00003fbe+ A_FireMissile_
0002:00003ff2+ A_FireBFG_
0002:00004028+ A_FirePlasma_
0002:0000408a+ P_BulletSlope_
0002:00004112+ P_GunShot_
0002:00004196+ A_FirePistol_
0002:00004212+ A_FireShotgun_
0002:00004290+ A_FireShotgun2_
0002:0000438e+ A_FireCGun_
0002:00004450+ A_Light0_
0002:0000445c+ A_Light1_
0002:00004468+ A_Light2_
0002:00004474+ A_BFGSpray_
0002:00004558+ A_BFGsound_
0002:0000456a  P_SetupPsprites_
0002:000045a8  P_MovePsprites_
0002:00004642+ P_SetPsprite_
0004:000054d8  _weaponinfo
0004:00006bd0+ _bulletslope
Module: p_setup.obj(C:\REALDOOM\p_setup.c)
0004:00006be0  _bmaporgx
0004:00006be4  _bmaporgy
0004:00006be8  _bmapwidth
0004:00006bea  _blockmaplumpRef
0004:00006bec  _rejectmatrixRef
0004:00006bee  _bmapheight
0004:00006bf0  _linebufferRef
0004:00006bf2  _linesRef
0004:00006bf4  _sidesRef
0004:00006bf6  _numlines
0004:00006bf8  _numnodes
0004:00006bfa  _nodesRef
0004:00006bfc  _subsectorsRef
0002:000047a0+ P_LoadVertexes_
0002:0000483e+ P_LoadSegs_
0002:000049e8+ P_LoadSubsectors_
0002:00004ac4+ P_LoadSectors_
0002:00004c32+ P_LoadNodes_
0002:00004d48+ P_LoadThings_
0002:00004dfc+ P_LoadLineDefs_
0002:00005046+ P_LoadSideDefs_
0002:000051dc+ P_LoadBlockMap_
0002:0000526a+ P_GroupLines_
0002:0000567e  P_SetupLevel_
0002:000057ae  P_Init_
0004:00006bfe  _numsides
0004:00006c00  _numvertexes
0004:00006c02  _firstnode
0004:00006c04  _segsRef
0004:00006c06  _sectorsRef
0004:00006c08  _vertexesRef
0004:00006c0a  _numsectors
0004:00006c0c  _numsubsectors
0004:00006c0e+ _numsegs
0005:00006390  _blocklinks
Module: p_sight.obj(C:\REALDOOM\p_sight.c)
0002:000057d0+ P_DivlineSide_
0002:000058f2+ P_DivlineSide16_
0002:000059bc+ P_DivlineSideNode_
0002:00005aa6+ P_InterceptVector2_
0002:00005bb6+ P_CrossSubsector_
0002:00005f70+ P_CrossBSPNode_
0002:000060a8  P_CheckSight_
0004:00006c10+ _strace
0004:00006c20  _bottomslope
0004:00006c24+ _sightzstart
0004:00006c28+ _cachedt2x
0004:00006c2c+ _cachedt2y
0004:00006c30  _topslope
Module: p_spec.obj(C:\REALDOOM\p_spec.c)
0002:00006250  P_InitPicAnims_
0002:00006352  getSideNum_
0002:000063c4  getSector_
0002:0000644e  twoSided_
0002:000064b6  getNextSector_
0002:000064f8  P_FindLowestFloorSurrounding_
0002:000065bc  P_FindHighestFloorSurrounding_
0002:00006684  P_FindNextHighestFloor_
0002:0000677e  P_FindLowestCeilingSurrounding_
0002:00006848  P_FindHighestCeilingSurrounding_
0002:00006912  P_FindSectorFromLineTag_
0002:0000696c  P_FindMinSurroundingLight_
0002:00006b4c  P_CrossSpecialLine_
0002:0000717e  P_ShootSpecialLine_
0002:0000728e  P_PlayerInSpecialSector_
0002:0000742a  P_UpdateSpecials_
0002:0000764e  EV_DoDonut_
0002:0000788e  P_SpawnSpecials_
0004:00005544+ _animdefs
0004:00006c40+ _anims
0004:00006d00+ _linespeciallist
0004:00006d80+ _lastanim
0004:00006d84+ _levelTimeCount
0004:00006d88+ _numlinespecials
0004:00006d8a+ _levelTimer
Module: p_switch.obj(C:\REALDOOM\p_switch.c)
0002:00007a40  P_InitSwitchList_
0002:00007af6+ P_StartButton_
0002:00007bd6  P_ChangeSwitchTexture_
0002:00007f0e  P_UseSpecialLine_
0004:00006d8c  _buttonlist
0004:00006e6c+ _switchlist
0004:00006ed0+ _numswitches
0005:00007330+ _alphSwitchList
Module: p_mobj.obj(C:\REALDOOM\p_mobj.c)
0002:000088f0+ P_ExplodeMissile_
0002:00008992+ P_XYMovement_
0002:00008e60+ P_ZMovement_
0002:00009180+ P_NightmareRespawn_
0002:0000933a  P_MobjThinker_
0002:00009488  P_SpawnMobj_
0002:00009674  P_RemoveMobj_
0002:000096a8+ P_SpawnPlayer_
0002:00009776  P_SpawnMapThing_
0002:0000993c  P_SpawnPuff_
0002:000099cc  P_SpawnBlood_
0002:00009a64+ P_CheckMissileSpawn_
0002:00009aec  P_SpawnMissile_
0002:00009ce0  P_SpawnPlayerMissile_
0002:00009ef6  P_SetMobjState_
0004:00006ee0  _SAVEDUNIT
Module: p_telept.obj(C:\REALDOOM\p_telept.c)
0002:0000a1a0  EV_Teleport_
Module: p_saveg.obj(C:\REALDOOM\p_saveg.c)
0002:0000a3f0  P_ArchivePlayers_
0002:0000a48a  P_UnArchivePlayers_
0002:0000a52a  P_ArchiveWorld_
0002:0000a696  P_UnArchiveWorld_
0002:0000a7e8  P_ArchiveThinkers_
0002:0000a8ac  P_UnArchiveThinkers_
0002:0000aa6c  P_ArchiveSpecials_
0002:0000adaa  P_UnArchiveSpecials_
0004:00006ef0  _save_p
0004:00006ef4+ _specials_e
Module: p_tick.obj(C:\REALDOOM\p_tick.c)
0002:0000adb0  P_InitThinkers_
0002:0000adec+ P_GetNextThinkerRef_
0002:0000ae40  P_AddThinker_
0002:0000ae88  P_UpdateThinkerFunc_
0002:0000aea0  P_RemoveThinker_
0002:0000aecc+ P_RunThinkers_
0002:0000aff2  P_Ticker_
0004:00005710+ _addCount
0004:00006f00  _leveltime
0004:00006f04+ _currentThinkerListHead
0005:00007670  _thinkerlist
Module: p_user.obj(C:\REALDOOM\p_user.c)
0002:0000b040+ P_Thrust_
0002:0000b0aa+ P_CalcHeight_
0002:0000b308+ P_MovePlayer_
0002:0000b3e8+ P_DeathThink_
0002:0000b536  P_PlayerThink_
0004:00006f06+ _onground
Module: r_bsp.obj(C:\REALDOOM\r_bsp.c)
0002:0000b780  R_ClearDrawSegs_
0002:0000b794+ R_ClipSolidWallSegment_
0002:0000b8b2+ R_ClipPassWallSegment_
0002:0000b91e  R_ClearClipSegs_
0002:0000b94c+ R_AddLine_
0002:0000bc1e+ R_CheckBBox_
0002:0000be6a+ R_Subsector_
0002:0000bfa0  R_RenderBSPNode_
0004:00006f10+ _solidsegs
0004:00006f90  _ds_p
0004:00006f94+ _newend
0004:00006f98  _curlinenum
0004:00006f9a  _backsecnum
0004:00006f9c  _linedefOffset
0004:00006f9e  _frontsecnum
0005:000095b0  _drawsegs
Module: r_data.obj(C:\REALDOOM\r_data.c)
0004:00006fa0  _colormaps
0004:00006fa4+ _texturecompositeRef
0004:00006fa6+ _lastflat
0004:00006fa8+ _texturecompositesizeRef
0004:00006faa+ _lastpatch
0004:00006fac+ _numpatches
0004:00006fae+ _texturesRef
0004:00006fb0+ _firstpatch
0004:00006fb2+ _texturewidthmaskRef
0004:00006fb4+ _numtextures
0004:00006fb6+ _texturecolumnlumpRef
0004:00006fb8+ _numflats
0004:00006fba+ _texturecolumnofsRef
0004:00006fbc+ _lockedRef
0004:00006fbe  _firstspritelump
0004:00006fc0  _lastspritelump
0004:00006fc2+ _numspritelumps
0004:00006fc4  _spritetopoffsetRef
0004:00006fc6  _firstflat
0004:00006fc8  _flattranslationRef
0004:00006fca  _spriteoffsetRef
0004:00006fcc  _texturetranslationRef
0002:0000c100+ R_DrawColumnInCache_
0002:0000c182+ R_GenerateComposite_
0002:0000c346+ R_GenerateLookup_
0002:0000c5f0  R_GetColumn_
0002:0000c6ce+ R_InitTextures_
0002:0000cc20+ R_InitFlats_
0002:0000cc92+ R_InitSpriteLumps_
0002:0000cdcc+ R_InitColormaps_
0002:0000ce12  R_InitData_
0002:0000ce4e  R_FlatNumForName_
0002:0000cec2  R_CheckTextureNumForName_
0002:0000cf30  R_TextureNumForName_
0002:0000cf76  R_PrecacheLevel_
0002:0000d2ec  R_EraseCompositeCache_
0004:00006fce  _textureheightRef
0004:00006fd0  _spritewidthRef
0006:00000000+ _colormapbytes
Module: r_draw.obj(C:\REALDOOM\r_draw.c)
0004:00006fe0+ _columnofs
0004:00007260+ _viewimage
0004:00007264  _ds_xstep
0004:00007268  _ds_ystep
0004:0000726c  _ds_yfrac
0004:00007270  _ds_source
0004:00007274  _ds_colormap
0004:00007278  _ds_xfrac
0004:0000727c  _dc_translation
0004:00007280  _dc_texturemid
0004:00007284  _dc_iscale
0004:00007288  _dc_source
0004:0000728c  _dc_colormap
0002:0000d320  R_DrawColumn_
0002:0000d3e8  R_DrawColumnLow_
0002:0000d4b4  R_DrawFuzzColumn_
0002:0000d5de  R_DrawTranslatedColumn_
0002:0000d6ee  R_InitTranslationTables_
0002:0000d770  R_DrawSpan_
0002:0000d8de  R_DrawSpanLow_
0002:0000da2e  R_InitBuffer_
0002:0000da78  R_FillBackScreen_
0002:0000dd04  R_VideoErase_
0002:0000dd86  R_DrawViewBorder_
0004:00005720+ _fuzzoffset
0004:00005784+ _fuzzpos
0004:00007290  _ds_x1
0004:00007292  _ds_x2
0004:00007294  _ds_y
0004:00007296  _ds_sourceRef
0004:00007298  _translationtablesRef
0004:0000729a  _dc_x
0004:0000729c  _dc_yh
0004:0000729e  _dc_yl
0004:000072a0  _viewwindowx
0004:000072a2  _viewwindowy
0004:000072a4  _scaledviewwidth
0004:000072a6  _viewheight
0004:000072a8  _viewwidth
Module: r_main.obj(C:\REALDOOM\r_main.c)
0004:000072b0+ _scalelightfixed
0004:00007370+ _transcolfunc
0004:00007374  _fixedcolormap
0004:00007378  _projection
0004:0000737c  _basecolfunc
0004:00007380  _spanfunc
0004:00007384  _fuzzcolfunc
0004:00007388  _colfunc
0004:0000738c  _centeryfrac
0004:00007390  _centerxfrac
0004:00007394  _viewsin
0004:00007398  _viewcos
0004:0000739c  _fieldofview
0002:0000de20+ R_PointOnSide_
0002:0000df22  R_PointOnSegSide_
0002:0000e052  R_PointToAngle16_
0002:0000e06c  R_PointToAngle_
0002:0000e486  R_PointToAngle2_
0002:0000e4b8  R_PointToAngle2_16_
0002:0000e4e6  R_PointToDist_
0002:0000e566  R_ScaleFromGlobalAngle_
0002:0000e62c+ R_InitTextureMapping_
0002:0000e86a+ R_InitLightTables_
0002:0000e910  R_SetViewSize_
0002:0000e926  R_ExecuteSetViewSize_
0002:0000ebe8  R_Init_
0002:0000ec60  R_PointInSubsector_
0002:0000ece0+ R_SetupFrame_
0002:0000ee0e  R_RenderPlayerView_
0004:0000579a  _validcount
0004:000073a0  _clipangle
0004:000073a4  _viewangle
0004:000073a8  _viewz
0004:000073ac  _viewy
0004:000073b0  _viewx
0004:000073b4  _xtoviewangle
0004:00007636  _setsizeneeded
0004:00007638+ _centerx
0004:0000763a  _centery
0004:0000763c+ _setdetail
0004:0000763d+ _setblocks
0004:0000763e  _detailshift
0004:0000763f  _extralight
0006:00008c00  _scalelight
0006:00009800  _zlight
0006:0000b800  _viewangletox
Module: r_sky.obj(C:\REALDOOM\r_sky.c)
0002:0000ee60  R_InitSkyMap_
0004:00007640  _skytexture
0004:00007641  _skyflatnum
Module: r_plane.obj(C:\REALDOOM\r_plane.c)
0002:0000ee80  R_InitPlanes_
0002:0000eef8+ R_MapPlane_
0002:0000f0f4  R_ClearPlanes_
0002:0000f1c0  R_FindPlane_
0002:0000f2a0  R_CheckPlane_
0002:0000f3f2  R_DrawPlanes_
0004:00007650+ _spanstart
0004:000077e0  _floorclip
0004:00007a60  _ceilingclip
0004:00007ce0+ _planeheight
0004:00007ce4+ _planezlight
0004:00007ce8+ _baseyscale
0004:00007cec+ _lastvisplaneheader
0004:00007cf0+ _basexscale
0004:00007cf4  _lastopening
0004:00007cf8  _visplanebytesRef
0004:00007d04  _floorplane
0004:00007d08  _ceilingplane
0007:00000000+ _cachedxstep
0007:00000320+ _cachedystep
0007:00000640+ _visplaneheaders
0007:00000d48+ _cachedheight
0007:00001068+ _openings
0007:0000b068+ _cacheddistance
0007:0000b388  _yslope
0007:0000b6a8  _distscale
Module: r_segs.obj(C:\REALDOOM\r_segs.c)
0004:00007d10+ _topfrac
0004:00007d14+ _worldtop
0004:00007d18+ _bottomstep
0004:00007d1c+ _pixhigh
0004:00007d20+ _bottomfrac
0004:00007d24+ _pixlow
0004:00007d28+ _worldbottom
0004:00007d2c+ _pixhighstep
0004:00007d30  _walllights
0004:00007d34+ _topstep
0004:00007d38+ _pixlowstep
0004:00007d3c+ _worldlow
0004:00007d40+ _worldhigh
0004:00007d44+ _maskedtexturecol
0004:00007d48+ _rw_scalestep
0004:00007d4c+ _rw_toptexturemid
0004:00007d50+ _rw_bottomtexturemid
0004:00007d54+ _rw_midtexturemid
0004:00007d58+ _rw_scale
0004:00007d5c+ _rw_offset
0004:00007d60  _rw_angle1
0004:00007d64  _rw_distance
0004:00007d68+ _rw_centerangle
0004:00007d6a+ _maskedtexture
0004:00007d6c+ _rw_stopx
0003:00000000  R_RenderMaskedSegRange_
0003:000003ba+ R_RenderSegLoop_
0003:00000838  R_StoreWallRange_
0004:00007d6e+ _segtextured
0004:00007d70+ _markfloor
0004:00007d72+ _rw_x
0004:00007d74+ _markceiling
0004:00007d76  _rw_normalangle
0004:00007d78+ _toptexture
0004:00007d79+ _midtexture
0004:00007d7a+ _bottomtexture
Module: r_things.obj(C:\REALDOOM\r_things.c)
0004:00007d80  _negonearray
0004:00008000  _screenheightarray
0004:00008280+ _spritename
0004:00008284+ _spritelights
0004:00008288  _mfloorclip
0004:0000828c  _mceilingclip
0004:00008290  _pspritescale
0004:00008294  _sprtopscreen
0004:00008298+ _vissprite_p
0004:0000829c  _pspriteiscale
0004:000082a0  _spryscale
0004:000082a4+ _overflowsprite
0003:000014a0+ R_InstallSpriteLump_
0003:00001656+ R_InitSpriteDefs_
0003:000018dc  R_InitSprites_
0003:00001904  R_ClearSprites_
0003:00001918  R_DrawMaskedColumn_
0003:00001a32+ R_DrawVisSprite_
0003:00001b9c+ R_ProjectSprite_
0003:0000201a  R_AddSprites_
0003:000020fe+ R_DrawPSprite_
0003:0000239c+ R_DrawPlayerSprites_
0003:0000247e+ R_SortVisSprites_
0003:000025e4+ R_DrawSprite_
0003:000028da  R_DrawMasked_
0004:000082da+ _sprtemp
0004:000085cc+ _vsprsortedhead
0004:00008602+ _maxframe
0004:00008604  _spritesRef
0004:00008606  _numsprites
0007:0000bbb0+ _vissprites
Module: w_wad.obj(C:\REALDOOM\w_wad.c)
0003:00002960+ ExtractFileBase_
0003:000029fa+ W_AddFile_
0003:00002c8c  W_InitMultipleFiles_
0003:00002d22  W_CheckNumForName_
0003:00002dcc  W_GetNumForName_
0003:00002df6  W_LumpLength_
0003:00002e32+ W_ReadLumpEMS_
0003:00002f58  W_ReadLumpStatic_
0003:00003076  W_CacheLumpNumCheck_
0003:000030ac  W_CacheLumpNumEMS_
0003:00003156  W_CacheLumpNameEMS_
0003:00003170  W_CacheLumpNameEMSAsPatch_
0003:00003192  W_EraseLumpCache_
0004:00008610+ _reloadname
0004:00008614+ _lumpcacheEMS
0004:00008618  _lumpinfo
0004:0000861c+ _reloadlump
0004:0000861e+ _numlumps
Module: v_video.obj(C:\REALDOOM\v_video.c)
0003:000031b0  V_MarkRect_
0003:000031ec  V_CopyRect_
0003:00003280  V_DrawPatch_
0003:000033e2  V_DrawPatchFlipped_
0003:000034d4  V_DrawPatchDirect_
0003:000035d0+ V_DrawBlock_
0003:00003630  V_Init_
0004:00008620  _dirtybox
0004:00008628+ _screen3
0004:0000862c+ _screen2
0004:00008630  _screen1
0004:00008634  _screen4
0004:00008638  _screen0
0004:0000863c  _screen4Ref
0004:0000863e  _usegamma
0007:0000d6b0  _gammatable
Module: z_zone.obj(C:\REALDOOM\z_zone.c)
0004:00008640+ _activepages
0004:0000864c+ _EMSArea
0004:00008650+ _pageFrameArea
0004:00008654+ _lockedpages
0004:00008658+ _pageevictorder
0004:0000865c+ _pagesize
0004:000057a0+ _currentListHead
0003:00003660  Z_ChangeTagEMSNew_
0003:000036d2  Z_InitEMS_
0003:000037d2  Z_FreeEMSNew_
0003:0000398a  Z_FreeTagsEMS_
0003:000039ec+ Z_MarkPageLRU_
0003:00003a6a+ Z_MarkPageMRU_
0003:00003aea+ Z_DoPageOut_
0003:00003bc2+ Z_DoPageIn_
0003:00003c8a  Z_ShutdownEMS_
0003:00003cce+ Z_PageOutIfInMemory_
0003:00003d3c+ Z_GetEMSPageFrame_
0003:0000402e+ Z_GetEMSPageFrameNoUpdate_
0003:000040c2+ Z_SetUnlockedWithPage_
0003:000041de  Z_SetUnlocked_
0003:00004232  Z_LoadBytesFromEMSWithOptions2_
0003:000042ea+ Z_GetNextFreeArrayIndex_
0003:0000433a  Z_MallocEMSNew_
0003:0000435c  Z_MallocEMSNewWithBackRef_
0004:000057b0  _numreads
0004:000057b4  _pageins
0004:000057b8  _pageouts
0004:000057bc+ _actualpageins
0004:000057c0+ _actualpageouts
0008:00000000+ _allocations
Module: st_stuff.obj(C:\REALDOOM\st_stuff.c)
0004:000057ca+ _cheat_mus_seq
0004:000057d3+ _cheat_choppers_seq
0004:000057de+ _cheat_god_seq
0004:000057e4+ _cheat_ammo_seq
0004:000057ea+ _cheat_ammonokey_seq
0004:000057ef+ _cheat_noclip_seq
0004:000057fa+ _cheat_commercial_noclip_seq
0004:00005801+ _cheat_powerup_seq
0004:00005847+ _cheat_clev_seq
0004:00005851+ _cheat_mypos_seq
0004:0000585a+ _cheat_mus
0004:00005862+ _cheat_god
0004:0000586a+ _cheat_ammo
0004:00005872+ _cheat_ammonokey
0004:0000587a+ _cheat_noclip
0004:00005882+ _cheat_commercial_noclip
0004:0000588a+ _cheat_powerup
0004:000058c2+ _cheat_choppers
0004:000058ca+ _cheat_clev
0004:000058d2+ _cheat_mypos
0003:000047a0+ ST_refreshBackground_
0003:000047ea  ST_Responder_
0003:00004c6c+ ST_calcPainOffset_
0003:00004cb4+ ST_updateFaceWidget_
0003:00004f2c+ ST_updateWidgets_
0003:00004fca  ST_Ticker_
0003:00004fe4+ ST_doPaletteStuff_
0003:00005094+ ST_drawWidgets_
0003:0000518c  ST_Drawer_
0003:00005208+ ST_loadGraphics_
0003:000054b8+ ST_loadData_
0003:000054d2+ ST_unloadGraphics_
0003:00005590+ ST_unloadData_
0003:0000559a+ ST_initData_
0003:00005602+ ST_createWidgets_
0003:000058d6  ST_Start_
0003:000058f6+ ST_Stop_
0003:00005924  ST_Init_
Module: st_lib.obj(C:\REALDOOM\st_lib.c)
0003:00005950  STlib_init_
0003:00005956  STlib_initNum_
0003:00005998+ STlib_drawNum_
0003:00005ac2  STlib_updateNum_
0003:00005adc  STlib_initPercent_
0003:00005b10  STlib_updatePercent_
0003:00005b56  STlib_initMultIcon_
0003:00005b92  STlib_updateMultIcon_
0003:00005c78  STlib_initBinIcon_
0003:00005cae  STlib_updateBinIcon_
Module: hu_stuff.obj(C:\REALDOOM\hu_stuff.c)
0004:00008ac0+ _shiftxform
0004:00008ac4  _hu_fontRef
0004:00008ba4  _message_dontfuckwithme
0003:00005d80+ ForeignTranslation_
0003:00005d9a  HU_Init_
0003:00005e02  HU_Start_
0003:00005ec6  HU_Drawer_
0003:00005eee  HU_Erase_
0003:00005f0a  HU_Ticker_
0003:00005fb6  HU_Responder_
0004:000042f2+ _french_shiftxform
0004:00004372+ _english_shiftxform
0004:000058f4+ _mapnames
0004:000059a8+ _mapnames2
0004:00005a28+ _frenchKeyMap
Module: hu_lib.obj(C:\REALDOOM\hu_lib.c)
0003:00006040+ HUlib_clearTextLine_
0003:00006058  HUlib_initTextLine_
0003:00006080  HUlib_addCharToTextLine_
0003:000060b6  HUlib_drawTextLine_
0003:00006194  HUlib_eraseTextLine_
0003:0000624e  HUlib_initSText_
0003:000062e8+ HUlib_addLineToSText_
0003:00006354  HUlib_addMessageToSText_
0003:000063da  HUlib_drawSText_
0003:0000643a  HUlib_eraseSText_
Module: wi_stuff.obj(C:\REALDOOM\wi_stuff.c)
0004:00008c28+ _lnamesRef
0003:000064c0+ WI_slamBackground_
0003:000064fa+ WI_drawLF_
0003:0000652a+ WI_drawEL_
0003:000065b4+ WI_drawOnLnode_
0003:000066a8+ WI_initAnimatedBack_
0003:0000674c+ WI_updateAnimatedBack_
0003:00006838+ WI_drawAnimatedBack_
0003:000068b8+ WI_drawNum_
0003:0000697c+ WI_drawPercent_
0003:000069be+ WI_drawTime_
0003:00006a82+ WI_End_
0003:00006a8c+ WI_initNoState_
0003:00006aa4+ WI_updateNoState_
0003:00006abe+ WI_initShowNextLoc_
0003:00006ada+ WI_updateShowNextLoc_
0003:00006b26+ WI_drawShowNextLoc_
0003:00006bb6+ WI_drawNoState_
0003:00006bc6+ WI_initStats_
0003:00006c00+ WI_updateStats_
0003:00006ed8+ WI_drawStats_
0003:00006fe6+ WI_checkForAccelerate_
0003:0000703a  WI_Ticker_
0003:00007090+ WI_loadData_
0003:000073dc+ WI_unloadData_
0003:0000756e  WI_Drawer_
0003:00007594+ WI_initVariables_
0003:000075f4  WI_Start_
Module: s_sound.obj(C:\REALDOOM\s_sound.c)
0004:00008c69  _numChannels
0003:00007610  S_SetMusicVolume_
0003:00007644+ S_StopMusic_
0003:00007694  S_ChangeMusic_
0003:00007750  S_StartMusic_
0003:00007762+ S_StopChannel_
0003:000077f8+ S_AdjustSoundParams_
0003:00007996  S_SetSfxVolume_
0003:000079b8  S_PauseSound_
0003:000079d6  S_ResumeSound_
0003:000079f4  S_StopSound_
0003:00007a42+ S_getChannel_
0003:00007b14+ S_StartSoundAtVolume_
0003:00007ca8  S_StartSoundFromRef_
0003:00007cfa  S_StartSound_
0003:00007d42  S_StartSoundWithParams_
0003:00007d66  S_UpdateSounds_
0003:00007ed8  S_Init_
0003:00007f7a  S_Start_
Module: sounds.obj(C:\REALDOOM\sounds.c)
0008:00007000  _S_music
0008:00007330  _S_sfx
Module: dutils.obj(C:\REALDOOM\dutils.c)
0003:00008030  cht_CheckCheat_
0003:0000813e  cht_GetParam_
Module: info.obj(C:\REALDOOM\info.c)
0003:000081b4  getPainChance_
0003:00008242  getRaiseState_
0003:000082aa  getXDeathState_
0003:00008306  getMeleeState_
0003:0000836c  getMobjMass_
0004:00005d70  _sprnames
0008:00007bc0  _states
0008:0000926a  _mobjinfo
Module: dmx.obj(C:\REALDOOM\dmx.c)
0003:00008590  TS_Shutdown_
0003:000085d0  TS_ScheduleTask_
0003:00008606  TS_Terminate_
0003:00008626  TS_Dispatch_
0004:00005fac+ _TS_InInterrupt
Warning! W1014: stack segment not found
Warning! W1023: no starting address found, using 0001:00000000


                        +---------------------------+
                        |   Unresolved References   |
                        +---------------------------+

Undefined Symbol                Referenced by
================                =============

int86_                          i_ibm.obj(C:\REALDOOM\i_ibm.c)
_dos_getvect_                   i_ibm.obj(C:\REALDOOM\i_ibm.c)
_dos_setvect_                   i_ibm.obj(C:\REALDOOM\i_ibm.c)
printf_                         i_ibm.obj(C:\REALDOOM\i_ibm.c)
malloc_                         i_ibm.obj(C:\REALDOOM\i_ibm.c)
vprintf_                        i_ibm.obj(C:\REALDOOM\i_ibm.c)
exit_                           i_ibm.obj(C:\REALDOOM\i_ibm.c)
printf_                         i_sound.obj(C:\REALDOOM\i_sound.c)
sprintf_                        i_sound.obj(C:\REALDOOM\i_sound.c)
toupper_                        f_finale.obj(C:\REALDOOM\f_finale.c)
sprintf_                        f_finale.obj(C:\REALDOOM\f_finale.c)
__I8M                           d_main.obj(C:\REALDOOM\d_main.c)
__I4M                           d_main.obj(C:\REALDOOM\d_main.c)
FIDRQQ                          d_main.obj(C:\REALDOOM\d_main.c)
FISRQQ                          d_main.obj(C:\REALDOOM\d_main.c)
FJSRQQ                          d_main.obj(C:\REALDOOM\d_main.c)
FIWRQQ                          d_main.obj(C:\REALDOOM\d_main.c)
__CHP                           d_main.obj(C:\REALDOOM\d_main.c)
__I4D                           d_main.obj(C:\REALDOOM\d_main.c)
sprintf_                        d_main.obj(C:\REALDOOM\d_main.c)
int86_                          d_main.obj(C:\REALDOOM\d_main.c)
malloc_                         d_main.obj(C:\REALDOOM\d_main.c)
access_                         d_main.obj(C:\REALDOOM\d_main.c)
printf_                         d_main.obj(C:\REALDOOM\d_main.c)
exit_                           d_main.obj(C:\REALDOOM\d_main.c)
fopen_                          d_main.obj(C:\REALDOOM\d_main.c)
fseek_                          d_main.obj(C:\REALDOOM\d_main.c)
ftell_                          d_main.obj(C:\REALDOOM\d_main.c)
fread_                          d_main.obj(C:\REALDOOM\d_main.c)
fclose_                         d_main.obj(C:\REALDOOM\d_main.c)
___iob                          d_main.obj(C:\REALDOOM\d_main.c)
setbuf_                         d_main.obj(C:\REALDOOM\d_main.c)
mkdir_                          d_main.obj(C:\REALDOOM\d_main.c)
atoi_                           d_main.obj(C:\REALDOOM\d_main.c)
fgetc_                          d_main.obj(C:\REALDOOM\d_main.c)
__I4M                           g_game.obj(C:\REALDOOM\g_game.c)
__I4D                           g_game.obj(C:\REALDOOM\g_game.c)
sprintf_                        g_game.obj(C:\REALDOOM\g_game.c)
atoi_                           g_game.obj(C:\REALDOOM\g_game.c)
sprintf_                        m_menu.obj(C:\REALDOOM\m_menu.c)
open_                           m_menu.obj(C:\REALDOOM\m_menu.c)
read_                           m_menu.obj(C:\REALDOOM\m_menu.c)
close_                          m_menu.obj(C:\REALDOOM\m_menu.c)
__I4D                           m_menu.obj(C:\REALDOOM\m_menu.c)
toupper_                        m_menu.obj(C:\REALDOOM\m_menu.c)
strncpy_                        m_menu.obj(C:\REALDOOM\m_menu.c)
strcasecmp_                     m_misc.obj(C:\REALDOOM\m_misc.c)
open_                           m_misc.obj(C:\REALDOOM\m_misc.c)
write_                          m_misc.obj(C:\REALDOOM\m_misc.c)
close_                          m_misc.obj(C:\REALDOOM\m_misc.c)
fstat_                          m_misc.obj(C:\REALDOOM\m_misc.c)
read_                           m_misc.obj(C:\REALDOOM\m_misc.c)
fopen_                          m_misc.obj(C:\REALDOOM\m_misc.c)
fprintf_                        m_misc.obj(C:\REALDOOM\m_misc.c)
fclose_                         m_misc.obj(C:\REALDOOM\m_misc.c)
printf_                         m_misc.obj(C:\REALDOOM\m_misc.c)
fscanf_                         m_misc.obj(C:\REALDOOM\m_misc.c)
malloc_                         m_misc.obj(C:\REALDOOM\m_misc.c)
sscanf_                         m_misc.obj(C:\REALDOOM\m_misc.c)
__I4D                           am_map.obj(C:\REALDOOM\am_map.c)
sprintf_                        am_map.obj(C:\REALDOOM\am_map.c)
__I4M                           am_map.obj(C:\REALDOOM\am_map.c)
__I4M                           p_enemy.obj(C:\REALDOOM\p_enemy.c)
__I4D                           p_enemy.obj(C:\REALDOOM\p_enemy.c)
__I4M                           p_inter.obj(C:\REALDOOM\p_inter.c)
__I4D                           p_inter.obj(C:\REALDOOM\p_inter.c)
__I4D                           p_map.obj(C:\REALDOOM\p_map.c)
__I4M                           p_map.obj(C:\REALDOOM\p_map.c)
__I4D                           p_setup.obj(C:\REALDOOM\p_setup.c)
sprintf_                        p_setup.obj(C:\REALDOOM\p_setup.c)
__I4M                           p_sight.obj(C:\REALDOOM\p_sight.c)
__I4D                           p_spec.obj(C:\REALDOOM\p_spec.c)
__I4D                           p_mobj.obj(C:\REALDOOM\p_mobj.c)
__I4M                           p_mobj.obj(C:\REALDOOM\p_mobj.c)
__I4M                           p_telept.obj(C:\REALDOOM\p_telept.c)
printf_                         p_tick.obj(C:\REALDOOM\p_tick.c)
__I4D                           p_user.obj(C:\REALDOOM\p_user.c)
memmove_                        r_bsp.obj(C:\REALDOOM\r_bsp.c)
stackavail_                     r_data.obj(C:\REALDOOM\r_data.c)
printf_                         r_data.obj(C:\REALDOOM\r_data.c)
strncpy_                        r_data.obj(C:\REALDOOM\r_data.c)
strncasecmp_                    r_data.obj(C:\REALDOOM\r_data.c)
__I4M                           r_draw.obj(C:\REALDOOM\r_draw.c)
__I4D                           r_main.obj(C:\REALDOOM\r_main.c)
printf_                         r_main.obj(C:\REALDOOM\r_main.c)
__I4M                           r_segs.obj(C:\REALDOOM\r_segs.c)
__U4D                           r_segs.obj(C:\REALDOOM\r_segs.c)
__I4D                           r_segs.obj(C:\REALDOOM\r_segs.c)
__I4M                           r_things.obj(C:\REALDOOM\r_things.c)
toupper_                        w_wad.obj(C:\REALDOOM\w_wad.c)
open_                           w_wad.obj(C:\REALDOOM\w_wad.c)
printf_                         w_wad.obj(C:\REALDOOM\w_wad.c)
strcmpi_                        w_wad.obj(C:\REALDOOM\w_wad.c)
filelength_                     w_wad.obj(C:\REALDOOM\w_wad.c)
read_                           w_wad.obj(C:\REALDOOM\w_wad.c)
strncmp_                        w_wad.obj(C:\REALDOOM\w_wad.c)
stackavail_                     w_wad.obj(C:\REALDOOM\w_wad.c)
lseek_                          w_wad.obj(C:\REALDOOM\w_wad.c)
realloc_                        w_wad.obj(C:\REALDOOM\w_wad.c)
strncpy_                        w_wad.obj(C:\REALDOOM\w_wad.c)
close_                          w_wad.obj(C:\REALDOOM\w_wad.c)
malloc_                         w_wad.obj(C:\REALDOOM\w_wad.c)
strupr_                         w_wad.obj(C:\REALDOOM\w_wad.c)
printf_                         z_zone.obj(C:\REALDOOM\z_zone.c)
int86_                          z_zone.obj(C:\REALDOOM\z_zone.c)
sprintf_                        st_stuff.obj(C:\REALDOOM\st_stuff.c)
sprintf_                        hu_stuff.obj(C:\REALDOOM\hu_stuff.c)
toupper_                        hu_lib.obj(C:\REALDOOM\hu_lib.c)
printf_                         wi_stuff.obj(C:\REALDOOM\wi_stuff.c)
sprintf_                        wi_stuff.obj(C:\REALDOOM\wi_stuff.c)
sprintf_                        s_sound.obj(C:\REALDOOM\s_sound.c)
__I4M                           s_sound.obj(C:\REALDOOM\s_sound.c)
__I4D                           s_sound.obj(C:\REALDOOM\s_sound.c)
__I4D                           dmx.obj(C:\REALDOOM\dmx.c)
_chain_intr_                    dmx.obj(C:\REALDOOM\dmx.c)
_dos_getvect_                   dmx.obj(C:\REALDOOM\dmx.c)
_dos_setvect_                   dmx.obj(C:\REALDOOM\dmx.c)
free_                           dmx.obj(C:\REALDOOM\dmx.c)


                        +--------------------+
                        |   Libraries Used   |
                        +--------------------+

