Archive member included to satisfy reference by file (symbol)

/usr/lib/x86_64-linux-gnu/gcc/ia16-elf/6.3.0/../../../../../ia16-elf/lib/medium/regparmcall/libi86.a(libi86-int86-do.o)
                              /tmp/ccxEML8E.o (__libi86_int86_do)
/usr/lib/x86_64-linux-gnu/gcc/ia16-elf/6.3.0/../../../../../ia16-elf/lib/medium/regparmcall/libi86.a(libi86-int86x-do.o)
                              /tmp/ccxEML8E.o (__libi86_int86x_do)
/usr/lib/x86_64-linux-gnu/gcc/ia16-elf/6.3.0/../../../../../ia16-elf/lib/medium/regparmcall/libi86.a(libi86-intr-call-0020.o)
                              /tmp/ccxEML8E.o (__libi86_intr_call_0020)
/usr/lib/x86_64-linux-gnu/gcc/ia16-elf/6.3.0/../../../../../ia16-elf/lib/medium/regparmcall/libi86.a(libi86-intr-call-0041.o)
                              /tmp/ccxEML8E.o (__libi86_intr_call_0041)
/usr/lib/x86_64-linux-gnu/gcc/ia16-elf/6.3.0/../../../../../ia16-elf/lib/medium/regparmcall/libi86.a(libi86-intr-call-0063.o)
                              /tmp/ccr8wAuP.o (__libi86_intr_call_0063)
/usr/lib/x86_64-linux-gnu/gcc/ia16-elf/6.3.0/../../../../../ia16-elf/lib/medium/regparmcall/libi86.a(libi86-intr-call-0147.o)
                              /tmp/ccxEML8E.o (__libi86_intr_call_0147)
/usr/lib/x86_64-linux-gnu/gcc/ia16-elf/6.3.0/../../../../../ia16-elf/lib/medium/regparmcall/libi86.a(fmemcpy.o)
                              /tmp/ccRKBTkr.o (_fmemcpy)
/usr/lib/x86_64-linux-gnu/gcc/ia16-elf/6.3.0/../../../../../ia16-elf/lib/medium/regparmcall/libi86.a(fmemset.o)
                              /tmp/ccr8wAuP.o (_fmemset)
/usr/lib/x86_64-linux-gnu/gcc/ia16-elf/6.3.0/../../../../../ia16-elf/lib/medium/regparmcall/libi86.a(dos-getvect.o)
                              /tmp/ccx4UaLN.o (_dos_getvect)
/usr/lib/x86_64-linux-gnu/gcc/ia16-elf/6.3.0/../../../../../ia16-elf/lib/medium/regparmcall/libi86.a(dos-setvect.o)
                              /tmp/ccx4UaLN.o (_dos_setvect)
/usr/lib/x86_64-linux-gnu/gcc/ia16-elf/6.3.0/../../../../../ia16-elf/lib/medium/regparmcall/libi86.a(ffree.o)
                              /tmp/ccxEML8E.o (_ffree)
/usr/lib/x86_64-linux-gnu/gcc/ia16-elf/6.3.0/../../../../../ia16-elf/lib/medium/regparmcall/libi86.a(fmalloc.o)
                              /tmp/ccsVuJZl.o (_fmalloc)
/usr/lib/x86_64-linux-gnu/gcc/ia16-elf/6.3.0/../../../../../ia16-elf/lib/medium/regparmcall/libi86.a(dos-allocmem.o)
                              /usr/lib/x86_64-linux-gnu/gcc/ia16-elf/6.3.0/../../../../../ia16-elf/lib/medium/regparmcall/libi86.a(fmalloc.o) (_dos_allocmem)
/usr/lib/x86_64-linux-gnu/gcc/ia16-elf/6.3.0/../../../../../ia16-elf/lib/medium/regparmcall/libi86.a(dos-freemem.o)
                              /usr/lib/x86_64-linux-gnu/gcc/ia16-elf/6.3.0/../../../../../ia16-elf/lib/medium/regparmcall/libi86.a(ffree.o) (_dos_freemem)
/usr/lib/x86_64-linux-gnu/gcc/ia16-elf/6.3.0/../../../../../ia16-elf/lib/medium/regparmcall/libi86.a(libi86-ret-really-set-errno.o)
                              /usr/lib/x86_64-linux-gnu/gcc/ia16-elf/6.3.0/../../../../../ia16-elf/lib/medium/regparmcall/libi86.a(dos-allocmem.o) (__libi86_ret_really_set_errno)
/usr/lib/x86_64-linux-gnu/gcc/ia16-elf/6.3.0/../../../../../ia16-elf/lib/medium/regparmcall/tprtf-fw.a(t-sprintf.o)
                              /tmp/ccrVjDZV.o (sprintf)
/usr/lib/x86_64-linux-gnu/gcc/ia16-elf/6.3.0/../../../../../ia16-elf/lib/medium/regparmcall/tprtf-fw.a(t-fprintf.o)
                              /tmp/ccwCcec4.o (fprintf)
/usr/lib/x86_64-linux-gnu/gcc/ia16-elf/6.3.0/../../../../../ia16-elf/lib/medium/regparmcall/tprtf-fw.a(t-printf.o)
                              /tmp/ccx4UaLN.o (printf)
/usr/lib/x86_64-linux-gnu/gcc/ia16-elf/6.3.0/../../../../../ia16-elf/lib/medium/regparmcall/tprtf-fw.a(t-vprintf.o)
                              /tmp/ccr8wAuP.o (vprintf)
/usr/lib/x86_64-linux-gnu/gcc/ia16-elf/6.3.0/../../../../../ia16-elf/lib/medium/regparmcall/tscnf-fw.a(t-sscanf.o)
                              /tmp/cczAorzb.o (sscanf)
/usr/lib/x86_64-linux-gnu/gcc/ia16-elf/6.3.0/../../../../../ia16-elf/lib/medium/regparmcall/tscnf-fw.a(t-fscanf.o)
                              /tmp/cczAorzb.o (fscanf)
/usr/lib/x86_64-linux-gnu/gcc/ia16-elf/6.3.0/../../../../../ia16-elf/lib/medium/regparmcall/iprtf-fw.a(i-sprintf.o)
                              /usr/lib/x86_64-linux-gnu/gcc/ia16-elf/6.3.0/../../../../../ia16-elf/lib/medium/regparmcall/tprtf-fw.a(t-sprintf.o) (sprintf.impl)
/usr/lib/x86_64-linux-gnu/gcc/ia16-elf/6.3.0/../../../../../ia16-elf/lib/medium/regparmcall/iprtf-fw.a(i-fprintf.o)
                              /usr/lib/x86_64-linux-gnu/gcc/ia16-elf/6.3.0/../../../../../ia16-elf/lib/medium/regparmcall/tprtf-fw.a(t-fprintf.o) (fprintf.impl)
/usr/lib/x86_64-linux-gnu/gcc/ia16-elf/6.3.0/../../../../../ia16-elf/lib/medium/regparmcall/iprtf-fw.a(i-printf.o)
                              /usr/lib/x86_64-linux-gnu/gcc/ia16-elf/6.3.0/../../../../../ia16-elf/lib/medium/regparmcall/tprtf-fw.a(t-printf.o) (printf.impl)
/usr/lib/x86_64-linux-gnu/gcc/ia16-elf/6.3.0/../../../../../ia16-elf/lib/medium/regparmcall/iprtf-fw.a(i-vprintf.o)
                              /usr/lib/x86_64-linux-gnu/gcc/ia16-elf/6.3.0/../../../../../ia16-elf/lib/medium/regparmcall/tprtf-fw.a(t-vprintf.o) (vprintf.impl)
/usr/lib/x86_64-linux-gnu/gcc/ia16-elf/6.3.0/../../../../../ia16-elf/lib/medium/regparmcall/iscnf-fw.a(i-sscanf.o)
                              /usr/lib/x86_64-linux-gnu/gcc/ia16-elf/6.3.0/../../../../../ia16-elf/lib/medium/regparmcall/tscnf-fw.a(t-sscanf.o) (sscanf.impl)
/usr/lib/x86_64-linux-gnu/gcc/ia16-elf/6.3.0/../../../../../ia16-elf/lib/medium/regparmcall/iscnf-fw.a(i-fscanf.o)
                              /usr/lib/x86_64-linux-gnu/gcc/ia16-elf/6.3.0/../../../../../ia16-elf/lib/medium/regparmcall/tscnf-fw.a(t-fscanf.o) (fscanf.impl)
/usr/lib/x86_64-linux-gnu/gcc/ia16-elf/6.3.0/../../../../../ia16-elf/lib/medium/regparmcall/libc.a(lib_a-atoi.o)
                              /tmp/cczAorzb.o (atoi)
/usr/lib/x86_64-linux-gnu/gcc/ia16-elf/6.3.0/../../../../../ia16-elf/lib/medium/regparmcall/libc.a(lib_a-ctype_.o)
                              /tmp/ccdsAyBl.o (__ctype_ptr__)
/usr/lib/x86_64-linux-gnu/gcc/ia16-elf/6.3.0/../../../../../ia16-elf/lib/medium/regparmcall/libc.a(lib_a-errno.o)
                              /usr/lib/x86_64-linux-gnu/gcc/ia16-elf/6.3.0/../../../../../ia16-elf/lib/medium/regparmcall/libi86.a(libi86-ret-really-set-errno.o) (__errno)
/usr/lib/x86_64-linux-gnu/gcc/ia16-elf/6.3.0/../../../../../ia16-elf/lib/medium/regparmcall/libc.a(lib_a-exit.o)
                              /tmp/ccxEML8E.o (exit)
/usr/lib/x86_64-linux-gnu/gcc/ia16-elf/6.3.0/../../../../../ia16-elf/lib/medium/regparmcall/libc.a(lib_a-fclose.o)
                              /tmp/cczAorzb.o (fclose)
/usr/lib/x86_64-linux-gnu/gcc/ia16-elf/6.3.0/../../../../../ia16-elf/lib/medium/regparmcall/libc.a(lib_a-feof.o)
                              /tmp/cczAorzb.o (feof)
/usr/lib/x86_64-linux-gnu/gcc/ia16-elf/6.3.0/../../../../../ia16-elf/lib/medium/regparmcall/libc.a(lib_a-fflush.o)
                              /usr/lib/x86_64-linux-gnu/gcc/ia16-elf/6.3.0/../../../../../ia16-elf/lib/medium/regparmcall/libc.a(lib_a-fclose.o) (__sflush_r)
/usr/lib/x86_64-linux-gnu/gcc/ia16-elf/6.3.0/../../../../../ia16-elf/lib/medium/regparmcall/libc.a(lib_a-fgetc.o)
                              /tmp/cczAorzb.o (fgetc)
/usr/lib/x86_64-linux-gnu/gcc/ia16-elf/6.3.0/../../../../../ia16-elf/lib/medium/regparmcall/libc.a(lib_a-findfp.o)
                              /usr/lib/x86_64-linux-gnu/gcc/ia16-elf/6.3.0/../../../../../ia16-elf/lib/medium/regparmcall/libc.a(lib_a-fclose.o) (__sinit)
/usr/lib/x86_64-linux-gnu/gcc/ia16-elf/6.3.0/../../../../../ia16-elf/lib/medium/regparmcall/libc.a(lib_a-fiprintf.o)
                              /usr/lib/x86_64-linux-gnu/gcc/ia16-elf/6.3.0/../../../../../ia16-elf/lib/medium/regparmcall/iprtf-fw.a(i-fprintf.o) (fiprintf)
/usr/lib/x86_64-linux-gnu/gcc/ia16-elf/6.3.0/../../../../../ia16-elf/lib/medium/regparmcall/libc.a(lib_a-fiscanf.o)
                              /usr/lib/x86_64-linux-gnu/gcc/ia16-elf/6.3.0/../../../../../ia16-elf/lib/medium/regparmcall/iscnf-fw.a(i-fscanf.o) (fiscanf)
/usr/lib/x86_64-linux-gnu/gcc/ia16-elf/6.3.0/../../../../../ia16-elf/lib/medium/regparmcall/libc.a(lib_a-fopen.o)
                              /tmp/cczAorzb.o (fopen)
/usr/lib/x86_64-linux-gnu/gcc/ia16-elf/6.3.0/../../../../../ia16-elf/lib/medium/regparmcall/libc.a(lib_a-fread.o)
                              /tmp/ccdsAyBl.o (fread)
/usr/lib/x86_64-linux-gnu/gcc/ia16-elf/6.3.0/../../../../../ia16-elf/lib/medium/regparmcall/libc.a(lib_a-fseek.o)
                              /usr/lib/x86_64-linux-gnu/gcc/ia16-elf/6.3.0/../../../../../ia16-elf/lib/medium/regparmcall/libc.a(lib_a-fopen.o) (_fseek_r)
/usr/lib/x86_64-linux-gnu/gcc/ia16-elf/6.3.0/../../../../../ia16-elf/lib/medium/regparmcall/libc.a(lib_a-fseeko.o)
                              /usr/lib/x86_64-linux-gnu/gcc/ia16-elf/6.3.0/../../../../../ia16-elf/lib/medium/regparmcall/libc.a(lib_a-fseek.o) (_fseeko_r)
/usr/lib/x86_64-linux-gnu/gcc/ia16-elf/6.3.0/../../../../../ia16-elf/lib/medium/regparmcall/libc.a(lib_a-fwalk.o)
                              /usr/lib/x86_64-linux-gnu/gcc/ia16-elf/6.3.0/../../../../../ia16-elf/lib/medium/regparmcall/libc.a(lib_a-fflush.o) (_fwalk_reent)
/usr/lib/x86_64-linux-gnu/gcc/ia16-elf/6.3.0/../../../../../ia16-elf/lib/medium/regparmcall/libc.a(lib_a-fwrite.o)
                              /tmp/ccAji60c.o (fwrite)
/usr/lib/x86_64-linux-gnu/gcc/ia16-elf/6.3.0/../../../../../ia16-elf/lib/medium/regparmcall/libc.a(lib_a-getc.o)
                              /usr/lib/x86_64-linux-gnu/gcc/ia16-elf/6.3.0/../../../../../ia16-elf/lib/medium/regparmcall/libc.a(lib_a-fread.o) (_getc_r)
/usr/lib/x86_64-linux-gnu/gcc/ia16-elf/6.3.0/../../../../../ia16-elf/lib/medium/regparmcall/libc.a(lib_a-impure.o)
                              /usr/lib/x86_64-linux-gnu/gcc/ia16-elf/6.3.0/../../../../../ia16-elf/lib/medium/regparmcall/libc.a(lib_a-exit.o) (_global_impure_ptr)
/usr/lib/x86_64-linux-gnu/gcc/ia16-elf/6.3.0/../../../../../ia16-elf/lib/medium/regparmcall/libc.a(lib_a-iprintf.o)
                              /usr/lib/x86_64-linux-gnu/gcc/ia16-elf/6.3.0/../../../../../ia16-elf/lib/medium/regparmcall/iprtf-fw.a(i-printf.o) (iprintf)
/usr/lib/x86_64-linux-gnu/gcc/ia16-elf/6.3.0/../../../../../ia16-elf/lib/medium/regparmcall/libc.a(lib_a-makebuf.o)
                              /usr/lib/x86_64-linux-gnu/gcc/ia16-elf/6.3.0/../../../../../ia16-elf/lib/medium/regparmcall/libc.a(lib_a-fseeko.o) (__smakebuf_r)
/usr/lib/x86_64-linux-gnu/gcc/ia16-elf/6.3.0/../../../../../ia16-elf/lib/medium/regparmcall/libc.a(lib_a-malloc.o)
                              /tmp/cczAorzb.o (malloc)
/usr/lib/x86_64-linux-gnu/gcc/ia16-elf/6.3.0/../../../../../ia16-elf/lib/medium/regparmcall/libc.a(lib_a-memcpy.o)
                              /tmp/cczAorzb.o (memcpy)
/usr/lib/x86_64-linux-gnu/gcc/ia16-elf/6.3.0/../../../../../ia16-elf/lib/medium/regparmcall/libc.a(lib_a-memmove.o)
                              /tmp/ccmCZnzK.o (memmove)
/usr/lib/x86_64-linux-gnu/gcc/ia16-elf/6.3.0/../../../../../ia16-elf/lib/medium/regparmcall/libc.a(lib_a-memset.o)
                              /tmp/ccd4J8em.o (memset)
/usr/lib/x86_64-linux-gnu/gcc/ia16-elf/6.3.0/../../../../../ia16-elf/lib/medium/regparmcall/libc.a(lib_a-nano-freer.o)
                              /usr/lib/x86_64-linux-gnu/gcc/ia16-elf/6.3.0/../../../../../ia16-elf/lib/medium/regparmcall/libc.a(lib_a-fclose.o) (_free_r)
/usr/lib/x86_64-linux-gnu/gcc/ia16-elf/6.3.0/../../../../../ia16-elf/lib/medium/regparmcall/libc.a(lib_a-nano-mallocr.o)
                              /usr/lib/x86_64-linux-gnu/gcc/ia16-elf/6.3.0/../../../../../ia16-elf/lib/medium/regparmcall/libc.a(lib_a-findfp.o) (_malloc_r)
/usr/lib/x86_64-linux-gnu/gcc/ia16-elf/6.3.0/../../../../../ia16-elf/lib/medium/regparmcall/libc.a(lib_a-putchar.o)
                              /tmp/ccr8wAuP.o (putchar)
/usr/lib/x86_64-linux-gnu/gcc/ia16-elf/6.3.0/../../../../../ia16-elf/lib/medium/regparmcall/libc.a(lib_a-puts.o)
                              /tmp/ccx4UaLN.o (puts)
/usr/lib/x86_64-linux-gnu/gcc/ia16-elf/6.3.0/../../../../../ia16-elf/lib/medium/regparmcall/libc.a(lib_a-refill.o)
                              /usr/lib/x86_64-linux-gnu/gcc/ia16-elf/6.3.0/../../../../../ia16-elf/lib/medium/regparmcall/libc.a(lib_a-fread.o) (__srefill_r)
/usr/lib/x86_64-linux-gnu/gcc/ia16-elf/6.3.0/../../../../../ia16-elf/lib/medium/regparmcall/libc.a(lib_a-rget.o)
                              /usr/lib/x86_64-linux-gnu/gcc/ia16-elf/6.3.0/../../../../../ia16-elf/lib/medium/regparmcall/libc.a(lib_a-fgetc.o) (__srget_r)
/usr/lib/x86_64-linux-gnu/gcc/ia16-elf/6.3.0/../../../../../ia16-elf/lib/medium/regparmcall/libc.a(lib_a-setbuf.o)
                              /tmp/cczAorzb.o (setbuf)
/usr/lib/x86_64-linux-gnu/gcc/ia16-elf/6.3.0/../../../../../ia16-elf/lib/medium/regparmcall/libc.a(lib_a-setvbuf.o)
                              /usr/lib/x86_64-linux-gnu/gcc/ia16-elf/6.3.0/../../../../../ia16-elf/lib/medium/regparmcall/libc.a(lib_a-setbuf.o) (setvbuf)
/usr/lib/x86_64-linux-gnu/gcc/ia16-elf/6.3.0/../../../../../ia16-elf/lib/medium/regparmcall/libc.a(lib_a-siprintf.o)
                              /usr/lib/x86_64-linux-gnu/gcc/ia16-elf/6.3.0/../../../../../ia16-elf/lib/medium/regparmcall/iprtf-fw.a(i-sprintf.o) (siprintf)
/usr/lib/x86_64-linux-gnu/gcc/ia16-elf/6.3.0/../../../../../ia16-elf/lib/medium/regparmcall/libc.a(lib_a-siscanf.o)
                              /usr/lib/x86_64-linux-gnu/gcc/ia16-elf/6.3.0/../../../../../ia16-elf/lib/medium/regparmcall/iscnf-fw.a(i-sscanf.o) (siscanf)
/usr/lib/x86_64-linux-gnu/gcc/ia16-elf/6.3.0/../../../../../ia16-elf/lib/medium/regparmcall/libc.a(lib_a-stdio.o)
                              /usr/lib/x86_64-linux-gnu/gcc/ia16-elf/6.3.0/../../../../../ia16-elf/lib/medium/regparmcall/libc.a(lib_a-findfp.o) (__sread)
/usr/lib/x86_64-linux-gnu/gcc/ia16-elf/6.3.0/../../../../../ia16-elf/lib/medium/regparmcall/libc.a(lib_a-strcasecmp.o)
                              /tmp/ccwCcec4.o (strcasecmp)
/usr/lib/x86_64-linux-gnu/gcc/ia16-elf/6.3.0/../../../../../ia16-elf/lib/medium/regparmcall/libc.a(lib_a-strcat.o)
                              /tmp/ccgwqY45.o (strcat)
/usr/lib/x86_64-linux-gnu/gcc/ia16-elf/6.3.0/../../../../../ia16-elf/lib/medium/regparmcall/libc.a(lib_a-strcmp.o)
                              /tmp/cczAorzb.o (strcmp)
/usr/lib/x86_64-linux-gnu/gcc/ia16-elf/6.3.0/../../../../../ia16-elf/lib/medium/regparmcall/libc.a(lib_a-strcpy.o)
                              /tmp/cczAorzb.o (strcpy)
/usr/lib/x86_64-linux-gnu/gcc/ia16-elf/6.3.0/../../../../../ia16-elf/lib/medium/regparmcall/libc.a(lib_a-strlen.o)
                              /tmp/cczAorzb.o (strlen)
/usr/lib/x86_64-linux-gnu/gcc/ia16-elf/6.3.0/../../../../../ia16-elf/lib/medium/regparmcall/libc.a(lib_a-strncasecmp.o)
                              /tmp/ccd4J8em.o (strncasecmp)
/usr/lib/x86_64-linux-gnu/gcc/ia16-elf/6.3.0/../../../../../ia16-elf/lib/medium/regparmcall/libc.a(lib_a-strncmp.o)
                              /tmp/ccSVQz97.o (strncmp)
/usr/lib/x86_64-linux-gnu/gcc/ia16-elf/6.3.0/../../../../../ia16-elf/lib/medium/regparmcall/libc.a(lib_a-strncpy.o)
                              /tmp/ccdsAyBl.o (strncpy)
/usr/lib/x86_64-linux-gnu/gcc/ia16-elf/6.3.0/../../../../../ia16-elf/lib/medium/regparmcall/libc.a(lib_a-strtol.o)
                              /usr/lib/x86_64-linux-gnu/gcc/ia16-elf/6.3.0/../../../../../ia16-elf/lib/medium/regparmcall/libc.a(lib_a-atoi.o) (_strtol_r)
/usr/lib/x86_64-linux-gnu/gcc/ia16-elf/6.3.0/../../../../../ia16-elf/lib/medium/regparmcall/libc.a(lib_a-strupr.o)
                              /tmp/ccAji60c.o (strupr)
/usr/lib/x86_64-linux-gnu/gcc/ia16-elf/6.3.0/../../../../../ia16-elf/lib/medium/regparmcall/libc.a(lib_a-svfiprintf.o)
                              /usr/lib/x86_64-linux-gnu/gcc/ia16-elf/6.3.0/../../../../../ia16-elf/lib/medium/regparmcall/libc.a(lib_a-siprintf.o) (_svfiprintf_r)
/usr/lib/x86_64-linux-gnu/gcc/ia16-elf/6.3.0/../../../../../ia16-elf/lib/medium/regparmcall/libc.a(lib_a-svfiscanf.o)
                              /usr/lib/x86_64-linux-gnu/gcc/ia16-elf/6.3.0/../../../../../ia16-elf/lib/medium/regparmcall/libc.a(lib_a-siscanf.o) (__ssvfiscanf_r)
/usr/lib/x86_64-linux-gnu/gcc/ia16-elf/6.3.0/../../../../../ia16-elf/lib/medium/regparmcall/libc.a(lib_a-sysclose.o)
                              /tmp/ccdsAyBl.o (close)
/usr/lib/x86_64-linux-gnu/gcc/ia16-elf/6.3.0/../../../../../ia16-elf/lib/medium/regparmcall/libc.a(lib_a-sysisatty.o)
                              /usr/lib/x86_64-linux-gnu/gcc/ia16-elf/6.3.0/../../../../../ia16-elf/lib/medium/regparmcall/libc.a(lib_a-stdio.o) (isatty)
/usr/lib/x86_64-linux-gnu/gcc/ia16-elf/6.3.0/../../../../../ia16-elf/lib/medium/regparmcall/libc.a(lib_a-syslseek.o)
                              /tmp/ccSVQz97.o (lseek)
/usr/lib/x86_64-linux-gnu/gcc/ia16-elf/6.3.0/../../../../../ia16-elf/lib/medium/regparmcall/libc.a(lib_a-sysopen.o)
                              /tmp/ccdsAyBl.o (open)
/usr/lib/x86_64-linux-gnu/gcc/ia16-elf/6.3.0/../../../../../ia16-elf/lib/medium/regparmcall/libc.a(lib_a-sysread.o)
                              /tmp/ccdsAyBl.o (read)
/usr/lib/x86_64-linux-gnu/gcc/ia16-elf/6.3.0/../../../../../ia16-elf/lib/medium/regparmcall/libc.a(lib_a-syswrite.o)
                              /usr/lib/x86_64-linux-gnu/gcc/ia16-elf/6.3.0/../../../../../ia16-elf/lib/medium/regparmcall/libc.a(lib_a-nano-freer.o) (write)
/usr/lib/x86_64-linux-gnu/gcc/ia16-elf/6.3.0/../../../../../ia16-elf/lib/medium/regparmcall/libc.a(lib_a-ungetc.o)
                              /usr/lib/x86_64-linux-gnu/gcc/ia16-elf/6.3.0/../../../../../ia16-elf/lib/medium/regparmcall/libc.a(lib_a-svfiscanf.o) (__submore)
/usr/lib/x86_64-linux-gnu/gcc/ia16-elf/6.3.0/../../../../../ia16-elf/lib/medium/regparmcall/libc.a(lib_a-vfiprintf.o)
                              /usr/lib/x86_64-linux-gnu/gcc/ia16-elf/6.3.0/../../../../../ia16-elf/lib/medium/regparmcall/libc.a(lib_a-fiprintf.o) (_vfiprintf_r)
/usr/lib/x86_64-linux-gnu/gcc/ia16-elf/6.3.0/../../../../../ia16-elf/lib/medium/regparmcall/libc.a(lib_a-vfiscanf.o)
                              /usr/lib/x86_64-linux-gnu/gcc/ia16-elf/6.3.0/../../../../../ia16-elf/lib/medium/regparmcall/libc.a(lib_a-fiscanf.o) (__svfiscanf_r)
/usr/lib/x86_64-linux-gnu/gcc/ia16-elf/6.3.0/../../../../../ia16-elf/lib/medium/regparmcall/libc.a(lib_a-viprintf.o)
                              /usr/lib/x86_64-linux-gnu/gcc/ia16-elf/6.3.0/../../../../../ia16-elf/lib/medium/regparmcall/iprtf-fw.a(i-vprintf.o) (viprintf)
/usr/lib/x86_64-linux-gnu/gcc/ia16-elf/6.3.0/../../../../../ia16-elf/lib/medium/regparmcall/libc.a(lib_a-wcrtomb.o)
                              /usr/lib/x86_64-linux-gnu/gcc/ia16-elf/6.3.0/../../../../../ia16-elf/lib/medium/regparmcall/libc.a(lib_a-svfiprintf.o) (_wcrtomb_r)
/usr/lib/x86_64-linux-gnu/gcc/ia16-elf/6.3.0/../../../../../ia16-elf/lib/medium/regparmcall/libc.a(lib_a-wcsrtombs.o)
                              /usr/lib/x86_64-linux-gnu/gcc/ia16-elf/6.3.0/../../../../../ia16-elf/lib/medium/regparmcall/libc.a(lib_a-svfiprintf.o) (_wcsrtombs_r)
/usr/lib/x86_64-linux-gnu/gcc/ia16-elf/6.3.0/../../../../../ia16-elf/lib/medium/regparmcall/libc.a(lib_a-wctomb_r.o)
                              /usr/lib/x86_64-linux-gnu/gcc/ia16-elf/6.3.0/../../../../../ia16-elf/lib/medium/regparmcall/libc.a(lib_a-wcrtomb.o) (__wctomb)
/usr/lib/x86_64-linux-gnu/gcc/ia16-elf/6.3.0/../../../../../ia16-elf/lib/medium/regparmcall/libc.a(lib_a-wsetup.o)
                              /usr/lib/x86_64-linux-gnu/gcc/ia16-elf/6.3.0/../../../../../ia16-elf/lib/medium/regparmcall/libc.a(lib_a-vfiprintf.o) (__swsetup_r)
/usr/lib/x86_64-linux-gnu/gcc/ia16-elf/6.3.0/../../../../../ia16-elf/lib/medium/regparmcall/libc.a(lib_a-__call_atexit.o)
                              /usr/lib/x86_64-linux-gnu/gcc/ia16-elf/6.3.0/../../../../../ia16-elf/lib/medium/regparmcall/libc.a(lib_a-exit.o) (__call_exitprocs)
/usr/lib/x86_64-linux-gnu/gcc/ia16-elf/6.3.0/../../../../../ia16-elf/lib/medium/regparmcall/libc.a(lib_a-flags.o)
                              /usr/lib/x86_64-linux-gnu/gcc/ia16-elf/6.3.0/../../../../../ia16-elf/lib/medium/regparmcall/libc.a(lib_a-fopen.o) (__sflags)
/usr/lib/x86_64-linux-gnu/gcc/ia16-elf/6.3.0/../../../../../ia16-elf/lib/medium/regparmcall/libc.a(lib_a-fvwrite.o)
                              /usr/lib/x86_64-linux-gnu/gcc/ia16-elf/6.3.0/../../../../../ia16-elf/lib/medium/regparmcall/libc.a(lib_a-fwrite.o) (__sfvwrite_r)
/usr/lib/x86_64-linux-gnu/gcc/ia16-elf/6.3.0/../../../../../ia16-elf/lib/medium/regparmcall/libc.a(lib_a-iswspace.o)
                              /usr/lib/x86_64-linux-gnu/gcc/ia16-elf/6.3.0/../../../../../ia16-elf/lib/medium/regparmcall/libc.a(lib_a-svfiscanf.o) (iswspace)
/usr/lib/x86_64-linux-gnu/gcc/ia16-elf/6.3.0/../../../../../ia16-elf/lib/medium/regparmcall/libc.a(lib_a-jp2uc.o)
                              /usr/lib/x86_64-linux-gnu/gcc/ia16-elf/6.3.0/../../../../../ia16-elf/lib/medium/regparmcall/libc.a(lib_a-iswspace.o) (_jp2uc)
/usr/lib/x86_64-linux-gnu/gcc/ia16-elf/6.3.0/../../../../../ia16-elf/lib/medium/regparmcall/libc.a(lib_a-locale.o)
                              /usr/lib/x86_64-linux-gnu/gcc/ia16-elf/6.3.0/../../../../../ia16-elf/lib/medium/regparmcall/libc.a(lib_a-svfiprintf.o) (__locale_charset)
/usr/lib/x86_64-linux-gnu/gcc/ia16-elf/6.3.0/../../../../../ia16-elf/lib/medium/regparmcall/libc.a(lib_a-mbrtowc.o)
                              /usr/lib/x86_64-linux-gnu/gcc/ia16-elf/6.3.0/../../../../../ia16-elf/lib/medium/regparmcall/libc.a(lib_a-svfiscanf.o) (_mbrtowc_r)
/usr/lib/x86_64-linux-gnu/gcc/ia16-elf/6.3.0/../../../../../ia16-elf/lib/medium/regparmcall/libc.a(lib_a-mbtowc_r.o)
                              /usr/lib/x86_64-linux-gnu/gcc/ia16-elf/6.3.0/../../../../../ia16-elf/lib/medium/regparmcall/libc.a(lib_a-locale.o) (__ascii_mbtowc)
/usr/lib/x86_64-linux-gnu/gcc/ia16-elf/6.3.0/../../../../../ia16-elf/lib/medium/regparmcall/libc.a(lib_a-memchr.o)
                              /usr/lib/x86_64-linux-gnu/gcc/ia16-elf/6.3.0/../../../../../ia16-elf/lib/medium/regparmcall/libc.a(lib_a-svfiprintf.o) (memchr)
/usr/lib/x86_64-linux-gnu/gcc/ia16-elf/6.3.0/../../../../../ia16-elf/lib/medium/regparmcall/libc.a(lib_a-nano-reallocr.o)
                              /usr/lib/x86_64-linux-gnu/gcc/ia16-elf/6.3.0/../../../../../ia16-elf/lib/medium/regparmcall/libc.a(lib_a-ungetc.o) (_realloc_r)
/usr/lib/x86_64-linux-gnu/gcc/ia16-elf/6.3.0/../../../../../ia16-elf/lib/medium/regparmcall/libc.a(lib_a-putc.o)
                              /usr/lib/x86_64-linux-gnu/gcc/ia16-elf/6.3.0/../../../../../ia16-elf/lib/medium/regparmcall/libc.a(lib_a-putchar.o) (_putc_r)
/usr/lib/x86_64-linux-gnu/gcc/ia16-elf/6.3.0/../../../../../ia16-elf/lib/medium/regparmcall/libc.a(lib_a-sccl.o)
                              /usr/lib/x86_64-linux-gnu/gcc/ia16-elf/6.3.0/../../../../../ia16-elf/lib/medium/regparmcall/libc.a(lib_a-svfiscanf.o) (__sccl)
/usr/lib/x86_64-linux-gnu/gcc/ia16-elf/6.3.0/../../../../../ia16-elf/lib/medium/regparmcall/libc.a(lib_a-sprintr.o)
                              /usr/lib/x86_64-linux-gnu/gcc/ia16-elf/6.3.0/../../../../../ia16-elf/lib/medium/regparmcall/libc.a(lib_a-vfiprintf.o) (__sprint_r)
/usr/lib/x86_64-linux-gnu/gcc/ia16-elf/6.3.0/../../../../../ia16-elf/lib/medium/regparmcall/libc.a(lib_a-ssprintr.o)
                              /usr/lib/x86_64-linux-gnu/gcc/ia16-elf/6.3.0/../../../../../ia16-elf/lib/medium/regparmcall/libc.a(lib_a-svfiprintf.o) (__ssprint_r)
/usr/lib/x86_64-linux-gnu/gcc/ia16-elf/6.3.0/../../../../../ia16-elf/lib/medium/regparmcall/libc.a(lib_a-strchr.o)
                              /usr/lib/x86_64-linux-gnu/gcc/ia16-elf/6.3.0/../../../../../ia16-elf/lib/medium/regparmcall/libc.a(lib_a-locale.o) (strchr)
/usr/lib/x86_64-linux-gnu/gcc/ia16-elf/6.3.0/../../../../../ia16-elf/lib/medium/regparmcall/libc.a(lib_a-strlcpy.o)
                              /usr/lib/x86_64-linux-gnu/gcc/ia16-elf/6.3.0/../../../../../ia16-elf/lib/medium/regparmcall/libc.a(lib_a-locale.o) (strlcpy)
/usr/lib/x86_64-linux-gnu/gcc/ia16-elf/6.3.0/../../../../../ia16-elf/lib/medium/regparmcall/libc.a(lib_a-strtoll_r.o)
                              /usr/lib/x86_64-linux-gnu/gcc/ia16-elf/6.3.0/../../../../../ia16-elf/lib/medium/regparmcall/libc.a(lib_a-svfiscanf.o) (_strtoll_r)
/usr/lib/x86_64-linux-gnu/gcc/ia16-elf/6.3.0/../../../../../ia16-elf/lib/medium/regparmcall/libc.a(lib_a-strtoul.o)
                              /usr/lib/x86_64-linux-gnu/gcc/ia16-elf/6.3.0/../../../../../ia16-elf/lib/medium/regparmcall/libc.a(lib_a-svfiscanf.o) (_strtoul_r)
/usr/lib/x86_64-linux-gnu/gcc/ia16-elf/6.3.0/../../../../../ia16-elf/lib/medium/regparmcall/libc.a(lib_a-strtoull_r.o)
                              /usr/lib/x86_64-linux-gnu/gcc/ia16-elf/6.3.0/../../../../../ia16-elf/lib/medium/regparmcall/libc.a(lib_a-svfiscanf.o) (_strtoull_r)
/usr/lib/x86_64-linux-gnu/gcc/ia16-elf/6.3.0/../../../../../ia16-elf/lib/medium/regparmcall/libc.a(lib_a-wbuf.o)
                              /usr/lib/x86_64-linux-gnu/gcc/ia16-elf/6.3.0/../../../../../ia16-elf/lib/medium/regparmcall/libc.a(lib_a-fvwrite.o) (__swbuf_r)
/usr/lib/x86_64-linux-gnu/gcc/ia16-elf/6.3.0/../../../../../ia16-elf/lib/medium/regparmcall/libc.a(lib_a-wcsnrtombs.o)
                              /usr/lib/x86_64-linux-gnu/gcc/ia16-elf/6.3.0/../../../../../ia16-elf/lib/medium/regparmcall/libc.a(lib_a-wcsrtombs.o) (_wcsnrtombs_r)
/usr/lib/x86_64-linux-gnu/gcc/ia16-elf/6.3.0/../../../../../ia16-elf/lib/medium/regparmcall/libc.a(lib_a-getenv_r.o)
                              /usr/lib/x86_64-linux-gnu/gcc/ia16-elf/6.3.0/../../../../../ia16-elf/lib/medium/regparmcall/libc.a(lib_a-locale.o) (_getenv_r)
/usr/lib/x86_64-linux-gnu/gcc/ia16-elf/6.3.0/../../../../../ia16-elf/lib/medium/regparmcall/libc.a(lib_a-nano-msizer.o)
                              /usr/lib/x86_64-linux-gnu/gcc/ia16-elf/6.3.0/../../../../../ia16-elf/lib/medium/regparmcall/libc.a(lib_a-nano-reallocr.o) (_malloc_usable_size_r)
/usr/lib/x86_64-linux-gnu/gcc/ia16-elf/6.3.0/../../../../../ia16-elf/lib/medium/regparmcall/libc.a(lib_a-envlock.o)
                              /usr/lib/x86_64-linux-gnu/gcc/ia16-elf/6.3.0/../../../../../ia16-elf/lib/medium/regparmcall/libc.a(lib_a-getenv_r.o) (__env_lock)
/usr/lib/x86_64-linux-gnu/gcc/ia16-elf/6.3.0/medium/regparmcall/libgcc.a(_ashrsi3.o)
                              /tmp/ccbYhx0K.o (__ashrsi3)
/usr/lib/x86_64-linux-gnu/gcc/ia16-elf/6.3.0/medium/regparmcall/libgcc.a(_cmpsi2.o)
                              /usr/lib/x86_64-linux-gnu/gcc/ia16-elf/6.3.0/../../../../../ia16-elf/lib/medium/regparmcall/libc.a(lib_a-locale.o) (__cmpsi2)
/usr/lib/x86_64-linux-gnu/gcc/ia16-elf/6.3.0/medium/regparmcall/libgcc.a(_ucmpsi2.o)
                              /usr/lib/x86_64-linux-gnu/gcc/ia16-elf/6.3.0/../../../../../ia16-elf/lib/medium/regparmcall/libc.a(lib_a-locale.o) (__ucmpsi2)
/usr/lib/x86_64-linux-gnu/gcc/ia16-elf/6.3.0/medium/regparmcall/libgcc.a(_muldi3.o)
                              /tmp/ccRKBTkr.o (__muldi3)
/usr/lib/x86_64-linux-gnu/gcc/ia16-elf/6.3.0/medium/regparmcall/libgcc.a(_lshrdi3.o)
                              /usr/lib/x86_64-linux-gnu/gcc/ia16-elf/6.3.0/../../../../../ia16-elf/lib/medium/regparmcall/libc.a(lib_a-svfiprintf.o) (__lshrdi3)
/usr/lib/x86_64-linux-gnu/gcc/ia16-elf/6.3.0/medium/regparmcall/libgcc.a(_ashldi3.o)
                              /tmp/ccRKBTkr.o (__ashldi3)
/usr/lib/x86_64-linux-gnu/gcc/ia16-elf/6.3.0/medium/regparmcall/libgcc.a(_divdi3.o)
                              /tmp/ccRKBTkr.o (__divdi3)
/usr/lib/x86_64-linux-gnu/gcc/ia16-elf/6.3.0/medium/regparmcall/libgcc.a(_udivdi3.o)
                              /usr/lib/x86_64-linux-gnu/gcc/ia16-elf/6.3.0/../../../../../ia16-elf/lib/medium/regparmcall/libc.a(lib_a-svfiprintf.o) (__udivdi3)
/usr/lib/x86_64-linux-gnu/gcc/ia16-elf/6.3.0/medium/regparmcall/libgcc.a(_umoddi3.o)
                              /usr/lib/x86_64-linux-gnu/gcc/ia16-elf/6.3.0/../../../../../ia16-elf/lib/medium/regparmcall/libc.a(lib_a-svfiprintf.o) (__umoddi3)
/usr/lib/x86_64-linux-gnu/gcc/ia16-elf/6.3.0/medium/regparmcall/libgcc.a(udivsi3.o)
                              /tmp/ccnVnEoI.o (__udivsi3)
/usr/lib/x86_64-linux-gnu/gcc/ia16-elf/6.3.0/medium/regparmcall/libgcc.a(umodsi3.o)
                              /usr/lib/x86_64-linux-gnu/gcc/ia16-elf/6.3.0/../../../../../ia16-elf/lib/medium/regparmcall/libc.a(lib_a-strtol.o) (__umodsi3)
/usr/lib/x86_64-linux-gnu/gcc/ia16-elf/6.3.0/medium/regparmcall/libgcc.a(ia16-ldivmodu.o)
                              /usr/lib/x86_64-linux-gnu/gcc/ia16-elf/6.3.0/medium/regparmcall/libgcc.a(udivsi3.o) (__ia16_ldivmodu)
/usr/lib/x86_64-linux-gnu/gcc/ia16-elf/6.3.0/medium/regparmcall/libgcc.a(divsi3.o)
                              /tmp/ccgwqY45.o (__divsi3)
/usr/lib/x86_64-linux-gnu/gcc/ia16-elf/6.3.0/medium/regparmcall/libgcc.a(ia16-ldivmods.o)
                              /usr/lib/x86_64-linux-gnu/gcc/ia16-elf/6.3.0/medium/regparmcall/libgcc.a(divsi3.o) (__ia16_ldivmods)
/usr/lib/x86_64-linux-gnu/gcc/ia16-elf/6.3.0/medium/regparmcall/libgcc.a(ashlsi3.o)
                              /tmp/ccU4AkX7.o (__ashlsi3)
/usr/lib/x86_64-linux-gnu/gcc/ia16-elf/6.3.0/medium/regparmcall/libgcc.a(lshrsi3.o)
                              /usr/lib/x86_64-linux-gnu/gcc/ia16-elf/6.3.0/medium/regparmcall/libgcc.a(_lshrdi3.o) (__lshrsi3)
/usr/lib/x86_64-linux-gnu/gcc/ia16-elf/6.3.0/medium/regparmcall/libgcc.a(_clz.o)
                              /usr/lib/x86_64-linux-gnu/gcc/ia16-elf/6.3.0/medium/regparmcall/libgcc.a(_divdi3.o) (__clz_tab)
/usr/lib/x86_64-linux-gnu/gcc/ia16-elf/6.3.0/../../../../../ia16-elf/lib/medium/regparmcall/libdos-m.a(dos-access.o)
                              /tmp/cczAorzb.o (access)
/usr/lib/x86_64-linux-gnu/gcc/ia16-elf/6.3.0/../../../../../ia16-elf/lib/medium/regparmcall/libdos-m.a(dos-closer.o)
                              /usr/lib/x86_64-linux-gnu/gcc/ia16-elf/6.3.0/../../../../../ia16-elf/lib/medium/regparmcall/libc.a(lib_a-stdio.o) (_close_r)
/usr/lib/x86_64-linux-gnu/gcc/ia16-elf/6.3.0/../../../../../ia16-elf/lib/medium/regparmcall/libdos-m.a(dos-environ.o)
                              /usr/lib/x86_64-linux-gnu/gcc/ia16-elf/6.3.0/../../../../../ia16-elf/lib/medium/regparmcall/libc.a(lib_a-getenv_r.o) (environ)
/usr/lib/x86_64-linux-gnu/gcc/ia16-elf/6.3.0/../../../../../ia16-elf/lib/medium/regparmcall/libdos-m.a(dos-isattyr.o)
                              /usr/lib/x86_64-linux-gnu/gcc/ia16-elf/6.3.0/../../../../../ia16-elf/lib/medium/regparmcall/libc.a(lib_a-makebuf.o) (_isatty_r)
/usr/lib/x86_64-linux-gnu/gcc/ia16-elf/6.3.0/../../../../../ia16-elf/lib/medium/regparmcall/libdos-m.a(dos-lseekr.o)
                              /usr/lib/x86_64-linux-gnu/gcc/ia16-elf/6.3.0/../../../../../ia16-elf/lib/medium/regparmcall/libc.a(lib_a-stdio.o) (_lseek_r)
/usr/lib/x86_64-linux-gnu/gcc/ia16-elf/6.3.0/../../../../../ia16-elf/lib/medium/regparmcall/libdos-m.a(dos-openr.o)
                              /usr/lib/x86_64-linux-gnu/gcc/ia16-elf/6.3.0/../../../../../ia16-elf/lib/medium/regparmcall/libc.a(lib_a-fopen.o) (_open_r)
/usr/lib/x86_64-linux-gnu/gcc/ia16-elf/6.3.0/../../../../../ia16-elf/lib/medium/regparmcall/libdos-m.a(dos-readr.o)
                              /usr/lib/x86_64-linux-gnu/gcc/ia16-elf/6.3.0/../../../../../ia16-elf/lib/medium/regparmcall/libc.a(lib_a-stdio.o) (_read_r)
/usr/lib/x86_64-linux-gnu/gcc/ia16-elf/6.3.0/../../../../../ia16-elf/lib/medium/regparmcall/libdos-m.a(dos-sbrkr.o)
                              /usr/lib/x86_64-linux-gnu/gcc/ia16-elf/6.3.0/../../../../../ia16-elf/lib/medium/regparmcall/libc.a(lib_a-nano-mallocr.o) (_sbrk_r)
/usr/lib/x86_64-linux-gnu/gcc/ia16-elf/6.3.0/../../../../../ia16-elf/lib/medium/regparmcall/libdos-m.a(dos-writer.o)
                              /usr/lib/x86_64-linux-gnu/gcc/ia16-elf/6.3.0/../../../../../ia16-elf/lib/medium/regparmcall/libc.a(lib_a-stdio.o) (_write_r)
/usr/lib/x86_64-linux-gnu/gcc/ia16-elf/6.3.0/../../../../../ia16-elf/lib/medium/regparmcall/libdos-m.a(dos-msmmabort.o)
                              /usr/lib/x86_64-linux-gnu/gcc/ia16-elf/6.3.0/../../../../../ia16-elf/lib/medium/regparmcall/libc.a(lib_a-nano-freer.o) (abort)
/usr/lib/x86_64-linux-gnu/gcc/ia16-elf/6.3.0/../../../../../ia16-elf/lib/medium/regparmcall/libdos-m.a(dos-heaplen.o)
                              /usr/lib/x86_64-linux-gnu/gcc/ia16-elf/6.3.0/../../../../../ia16-elf/lib/medium/regparmcall/libdos-m.a(dos-sbrkr.o) (_heaplen)
/usr/lib/x86_64-linux-gnu/gcc/ia16-elf/6.3.0/../../../../../ia16-elf/lib/medium/regparmcall/libdos-m.a(dos-near-data-segment.o)
                              /usr/lib/x86_64-linux-gnu/gcc/ia16-elf/6.3.0/../../../../../ia16-elf/lib/medium/regparmcall/libdos-m.a(dos-msmmabort.o) (__ia16_near_data_segment)
/usr/lib/x86_64-linux-gnu/gcc/ia16-elf/6.3.0/../../../../../ia16-elf/lib/medium/regparmcall/libc.a(lib_a-abort.o)
                              /usr/lib/x86_64-linux-gnu/gcc/ia16-elf/6.3.0/../../../../../ia16-elf/lib/medium/regparmcall/libdos-m.a(dos-msmmabort.o) (__ia16_abort_impl)

Allocating common symbols
Common symbol       size              file

detailshift         0x1               /tmp/ccU4AkX7.o
sectors             0x4               /tmp/ccHDlBrQ.o
planezlight         0x4               /tmp/ccbYhx0K.o
numflats            0x2               /tmp/cctz3Ysd.o
shootthing          0x4               /tmp/cc0JoFl7.o
pspritescale        0x2               /tmp/ccuVxVXF.o
timingdemo          0x1               /tmp/ccgwqY45.o
worldbottom         0x4               /tmp/ccnVnEoI.o
tmflags             0x4               /tmp/cc0JoFl7.o
paused              0x1               /tmp/ccgwqY45.o
topslope            0x4               /tmp/cckU1VC7.o
pixhighstep         0x4               /tmp/ccnVnEoI.o
bmapwidth           0x2               /tmp/ccHDlBrQ.o
sprites             0x4               /tmp/ccuVxVXF.o
compositetextureoffset
                    0x4               /tmp/cctz3Ysd.o
whichSkull          0x2               /tmp/ccdsAyBl.o
skytexture          0x1               /tmp/ccU4AkX7.o
totalitems          0x2               /tmp/ccgwqY45.o
currentThinkerListHead
                    0x2               /tmp/ccN6UUr8.o
centery             0x2               /tmp/ccU4AkX7.o
snd_MusicVolume     0x1               /tmp/ccrVjDZV.o
numlumps            0x2               /tmp/ccAji60c.o
projection          0x4               /tmp/ccU4AkX7.o
emshandle           0x2               /tmp/ccn81c78.o
cachedt2y           0x4               /tmp/cckU1VC7.o
rw_x                0x2               /tmp/ccnVnEoI.o
viewcos             0x4               /tmp/ccU4AkX7.o
vertexes            0x4               /tmp/ccHDlBrQ.o
fixedcolormap       0x4               /tmp/ccU4AkX7.o
dc_yl               0x2               /tmp/ccMfMEUa.o
grmode              0x1               /tmp/ccr8wAuP.o
numlinespecials     0x2               /tmp/ccfeytV8.o
topfrac             0x4               /tmp/ccnVnEoI.o
mouseSensitivity    0x1               /tmp/ccdsAyBl.o
ds_source           0x4               /tmp/ccMfMEUa.o
tmceilingz          0x2               /tmp/cc0JoFl7.o
saveOldString       0x18              /tmp/ccdsAyBl.o
maketic             0x4               /tmp/ccO3qzw4.o
startmap            0x1               /tmp/ccRKBTkr.o
sfxVolume           0x1               /tmp/ccdsAyBl.o
extralight          0x1               /tmp/ccU4AkX7.o
bombdamage          0x2               /tmp/cc0JoFl7.o
starttime           0x4               /tmp/ccgwqY45.o
segregs             0x8               /tmp/ccr8wAuP.o
linespeciallist     0x80              /tmp/ccfeytV8.o
bmaporgy            0x2               /tmp/ccHDlBrQ.o
nettics             0x4               /tmp/ccO3qzw4.o
numsides            0x2               /tmp/ccHDlBrQ.o
message_nottobefuckedwith
                    0x1               /tmp/cc1o6kRN.o
in                  0x10              /tmp/ccr8wAuP.o
tmthing             0x4               /tmp/cc0JoFl7.o
blockmaplump        0x4               /tmp/ccHDlBrQ.o
tmx                 0x4               /tmp/cc0JoFl7.o
skullAnimCounter    0x2               /tmp/ccdsAyBl.o
activeplats         0x3c              /tmp/ccHBg70s.o
demoname            0x20              /tmp/ccgwqY45.o
numbraintargets     0x2               /tmp/ccBS9DOf.o
fuzzcolfunc         0x4               /tmp/ccU4AkX7.o
viewz_shortheight   0x2               /tmp/ccU4AkX7.o
trace               0x10              /tmp/ccUdflWr.o
wadfiles            0x6               /tmp/ccRKBTkr.o
numpatches          0x2               /tmp/cctz3Ysd.o
lastopening         0x4               /tmp/ccbYhx0K.o
rw_scale            0x4               /tmp/ccnVnEoI.o
nofit               0x1               /tmp/cc0JoFl7.o
viewy               0x4               /tmp/ccU4AkX7.o
dclicks2            0x4               /tmp/ccgwqY45.o
compositetexturepage
                    0x4               /tmp/cctz3Ysd.o
spriteoffsets       0x4               /tmp/cctz3Ysd.o
conventionallowerblock
                    0x4e2             /tmp/ccez6CM4.o
XMSaddr             0x4               /tmp/ccsVuJZl.o
firstflat           0x2               /tmp/cctz3Ysd.o
localcmds           0xa0              /tmp/ccgwqY45.o
bodyque             0x40              /tmp/ccgwqY45.o
bombspot_pos        0x4               /tmp/cc0JoFl7.o
player              0x81              /tmp/ccgwqY45.o
ds_x2               0x2               /tmp/ccMfMEUa.o
mousebstrafe        0x1               /tmp/ccgwqY45.o
netdemo             0x1               /tmp/ccgwqY45.o
shareware           0x1               /tmp/ccRKBTkr.o
dclicktime2         0x4               /tmp/ccgwqY45.o
cachedt2x           0x4               /tmp/cckU1VC7.o
levelTimeCount      0x4               /tmp/ccfeytV8.o
novideo             0x1               /tmp/ccr8wAuP.o
pageswapargseg      0x2               /tmp/ccn81c78.o
d_skill             0x1               /tmp/ccgwqY45.o
frontsector         0x4               /tmp/ccmCZnzK.o
numvertexes         0x2               /tmp/ccHDlBrQ.o
menuoffsets         0x5a              /tmp/ccdsAyBl.o
w_health            0xc               /tmp/ccxi7GyK.o
TS_TimesInInterrupt
                    0x4               /tmp/cc1jrtzy.o
kbdtail             0x1               /tmp/ccr8wAuP.o
myargv              0x2               /tmp/ccwCcec4.o
usemouse            0x1               /tmp/ccwCcec4.o
setsizeneeded       0x1               /tmp/ccU4AkX7.o
snd_SfxDevice       0x1               /tmp/ccrVjDZV.o
reloadname          0x2               /tmp/ccAji60c.o
patchpage           0x4               /tmp/cctz3Ysd.o
usergame            0x1               /tmp/ccgwqY45.o
quickSaveSlot       0x1               /tmp/ccdsAyBl.o
ds_xstep            0x4               /tmp/ccMfMEUa.o
respawnmonsters     0x1               /tmp/ccgwqY45.o
ds_colormap         0x4               /tmp/ccMfMEUa.o
bombspot            0x4               /tmp/cc0JoFl7.o
pageswapargoff      0x2               /tmp/ccn81c78.o
screenblocks        0x1               /tmp/ccdsAyBl.o
read_e2             0x1               /tmp/ccdsAyBl.o
snd_Mport           0x2               /tmp/ccrVjDZV.o
vissprite_p         0x4               /tmp/ccuVxVXF.o
ds_p                0x4               /tmp/ccmCZnzK.o
tmfloorz            0x2               /tmp/cc0JoFl7.o
worldtop            0x4               /tmp/ccnVnEoI.o
key_use             0x1               /tmp/ccgwqY45.o
out                 0x10              /tmp/ccr8wAuP.o
viewwidth           0x2               /tmp/ccMfMEUa.o
defdemoname         0x2               /tmp/ccgwqY45.o
w_arms              0x30              /tmp/ccxi7GyK.o
numswitches         0x2               /tmp/ccloZeTM.o
texturedefs_offset  0x2               /tmp/cctz3Ysd.o
setStateReturn      0x4               /tmp/ccyV2yGn.o
bombsource          0x4               /tmp/cc0JoFl7.o
setdetail           0x1               /tmp/ccU4AkX7.o
colfunc             0x4               /tmp/ccU4AkX7.o
midtexture          0x1               /tmp/ccnVnEoI.o
saveSlot            0x2               /tmp/ccdsAyBl.o
flattranslation     0x2               /tmp/cctz3Ysd.o
ds_ystep            0x4               /tmp/ccMfMEUa.o
dclicktime          0x4               /tmp/ccgwqY45.o
linetarget_pos      0x4               /tmp/cc0JoFl7.o
attackrange         0x4               /tmp/cc0JoFl7.o
key_strafeleft      0x1               /tmp/ccgwqY45.o
mobjposlist         0x4               /tmp/ccN6UUr8.o
spritedefs_bytes    0x4               /tmp/cctz3Ysd.o
rw_offset           0x4               /tmp/ccnVnEoI.o
shootz              0x4               /tmp/cc0JoFl7.o
dclicks             0x4               /tmp/ccgwqY45.o
pixlow              0x4               /tmp/ccnVnEoI.o
skiptics            0x2               /tmp/ccO3qzw4.o
sprtemp             0x4               /tmp/ccSifH9N.o
newgame_e           0x1               /tmp/ccdsAyBl.o
w_title             0x59              /tmp/cc1o6kRN.o
rw_bottomtexturemid
                    0x4               /tmp/ccnVnEoI.o
spryscale           0x4               /tmp/ccuVxVXF.o
snd_Mport8bit       0x1               /tmp/ccrVjDZV.o
defaultfile         0x2               /tmp/ccwCcec4.o
viewangle_shiftright3
                    0x2               /tmp/ccU4AkX7.o
tmbbox              0x10              /tmp/cc0JoFl7.o
rw_stopx            0x2               /tmp/ccnVnEoI.o
levelTimer          0x1               /tmp/ccfeytV8.o
turnheld            0x1               /tmp/ccgwqY45.o
lastspritelump      0x2               /tmp/cctz3Ysd.o
pagetic             0x2               /tmp/ccRKBTkr.o
reloadlump          0x2               /tmp/ccAji60c.o
w_message           0x169             /tmp/cc1o6kRN.o
switchlist          0x64              /tmp/ccloZeTM.o
numsectors          0x2               /tmp/ccHDlBrQ.o
strace              0x10              /tmp/cckU1VC7.o
startskill          0x1               /tmp/ccRKBTkr.o
earlyout            0x1               /tmp/ccUdflWr.o
vsprsortedhead      0x36              /tmp/ccuVxVXF.o
demo_p              0x2               /tmp/ccgwqY45.o
ds_yfrac            0x4               /tmp/ccMfMEUa.o
ds_xfrac            0x4               /tmp/ccMfMEUa.o
spritetopoffsets    0x4               /tmp/cctz3Ysd.o
messageNeedsInput   0x1               /tmp/ccdsAyBl.o
bottomtexture       0x1               /tmp/ccnVnEoI.o
pcscreen            0x4               /tmp/ccr8wAuP.o
respawnparm         0x1               /tmp/ccRKBTkr.o
gamekeydown         0x100             /tmp/ccgwqY45.o
planeheight         0x4               /tmp/ccbYhx0K.o
detailLevel         0x1               /tmp/ccdsAyBl.o
viletryx            0x4               /tmp/ccBS9DOf.o
dc_yh               0x2               /tmp/ccMfMEUa.o
keyboardque         0x20              /tmp/ccr8wAuP.o
dc_x                0x2               /tmp/ccMfMEUa.o
totalsecret         0x2               /tmp/ccgwqY45.o
w_maxammo           0x28              /tmp/ccxi7GyK.o
musicVolume         0x1               /tmp/ccdsAyBl.o
mousepresent        0x1               /tmp/ccr8wAuP.o
destview            0x4               /tmp/ccr8wAuP.o
environ             0x2               /usr/lib/x86_64-linux-gnu/gcc/ia16-elf/6.3.0/../../../../../ia16-elf/lib/medium/regparmcall/libdos-m.a(dos-environ.o)
bulletslope         0x4               /tmp/ccebu4yL.o
DEMO_SEGMENT        0x2               /tmp/ccgwqY45.o
gamestate           0x1               /tmp/ccgwqY45.o
maxframe            0x2               /tmp/ccSifH9N.o
backsector          0x4               /tmp/ccmCZnzK.o
dc_source           0x4               /tmp/ccMfMEUa.o
snd_SBirq           0x1               /tmp/ccrVjDZV.o
newend              0x2               /tmp/ccmCZnzK.o
anims               0x80              /tmp/ccfeytV8.o
viewsin             0x4               /tmp/ccU4AkX7.o
lastflat            0x2               /tmp/cctz3Ysd.o
mousey              0x2               /tmp/ccgwqY45.o
mceilingclip        0x4               /tmp/ccuVxVXF.o
key_straferight     0x1               /tmp/ccgwqY45.o
episodes_e          0x1               /tmp/ccdsAyBl.o
centerx             0x2               /tmp/ccU4AkX7.o
singledemo          0x1               /tmp/ccgwqY45.o
nodes_render        0x4               /tmp/ccHDlBrQ.o
texturecolumn_offset
                    0x2               /tmp/cctz3Ysd.o
tmy                 0x4               /tmp/cc0JoFl7.o
wminfo              0x17              /tmp/ccgwqY45.o
messageRoutine      0x4               /tmp/ccdsAyBl.o
floorplaneindex     0x2               /tmp/ccbYhx0K.o
kbdhead             0x1               /tmp/ccr8wAuP.o
linetarget          0x4               /tmp/cc0JoFl7.o
bmaporgx            0x2               /tmp/ccHDlBrQ.o
dc_iscale           0x4               /tmp/ccMfMEUa.o
spanfunc            0x4               /tmp/ccU4AkX7.o
rw_toptexturemid    0x4               /tmp/ccnVnEoI.o
lastanim            0x2               /tmp/ccfeytV8.o
texturetranslation  0x2               /tmp/cctz3Ysd.o
noblit              0x1               /tmp/ccgwqY45.o
messageLastMenuActive
                    0x2               /tmp/ccdsAyBl.o
linebuffer          0x4               /tmp/ccHDlBrQ.o
solidsegs           0x80              /tmp/ccmCZnzK.o
lastvisplane        0x2               /tmp/ccbYhx0K.o
viewimage           0x4               /tmp/ccMfMEUa.o
subsectors          0x4               /tmp/ccHDlBrQ.o
intercept_p         0x4               /tmp/ccUdflWr.o
segs                0x4               /tmp/ccHDlBrQ.o
demosequence        0x1               /tmp/ccRKBTkr.o
currentMenu         0x2               /tmp/ccdsAyBl.o
wadfilehandle       0x2               /tmp/ccAji60c.o
numtextures         0x2               /tmp/cctz3Ysd.o
message_counter     0x1               /tmp/cc1o6kRN.o
nomonsters          0x1               /tmp/ccRKBTkr.o
currentscreen       0x4               /tmp/ccr8wAuP.o
numsegs             0x2               /tmp/ccHDlBrQ.o
mousebfire          0x1               /tmp/ccgwqY45.o
spriteoffset        0x4               /tmp/cctz3Ysd.o
conventionalmemoryblock
                    0x4               /tmp/ccn81c78.o
destscreen          0x4               /tmp/ccr8wAuP.o
modifiedgame        0x1               /tmp/ccRKBTkr.o
viewwindowoffset    0x2               /tmp/ccMfMEUa.o
firstspritelump     0x2               /tmp/cctz3Ysd.o
r_cachedstatecopy   0xc               /tmp/ccU4AkX7.o
baseyscale          0x4               /tmp/ccbYhx0K.o
seenlines           0x4               /tmp/ccHDlBrQ.o
snd_DesiredSfxDevice
                    0x1               /tmp/ccrVjDZV.o
markfloor           0x1               /tmp/ccnVnEoI.o
numsprites          0x2               /tmp/ccuVxVXF.o
menuactive          0x1               /tmp/ccdsAyBl.o
EMS_PAGE            0x2               /tmp/ccez6CM4.o
w_armsbg            0x8               /tmp/ccxi7GyK.o
st_gamestate        0x1               /tmp/ccxi7GyK.o
w_ready             0xa               /tmp/ccxi7GyK.o
activetexturepages  0x8               /tmp/cctz3Ysd.o
demoplayback        0x1               /tmp/ccgwqY45.o
pspriteiscale       0x4               /tmp/ccuVxVXF.o
pagenum9000         0x2               /tmp/ccn81c78.o
snd_SfxVolume       0x1               /tmp/ccrVjDZV.o
tmdropoffz          0x2               /tmp/cc0JoFl7.o
totalkills          0x2               /tmp/ccgwqY45.o
gameskill           0x1               /tmp/ccgwqY45.o
curseg_render       0x4               /tmp/ccmCZnzK.o
basecolfunc         0x4               /tmp/ccU4AkX7.o
bmapheight          0x2               /tmp/ccHDlBrQ.o
ceilinglinenum      0x2               /tmp/cc0JoFl7.o
numlines            0x2               /tmp/ccHDlBrQ.o
sprtopscreen        0x4               /tmp/ccuVxVXF.o
walllights          0x4               /tmp/ccnVnEoI.o
savegameslot        0x1               /tmp/ccgwqY45.o
gameepisode         0x1               /tmp/ccgwqY45.o
snd_MusicDevice     0x1               /tmp/ccrVjDZV.o
viewz               0x4               /tmp/ccU4AkX7.o
SAVEDUNIT           0x4               /tmp/ccyV2yGn.o
mfloorclip          0x4               /tmp/ccuVxVXF.o
key_fire            0x1               /tmp/ccgwqY45.o
segtextured         0x1               /tmp/ccnVnEoI.o
gametic             0x4               /tmp/ccgwqY45.o
textureLRU          0x8               /tmp/cctz3Ysd.o
nodes               0x4               /tmp/ccHDlBrQ.o
st_randomnumber     0x1               /tmp/ccxi7GyK.o
lastpatch           0x2               /tmp/cctz3Ysd.o
lines_physics       0x4               /tmp/ccHDlBrQ.o
pixlowstep          0x4               /tmp/ccnVnEoI.o
numnodes            0x2               /tmp/ccHDlBrQ.o
key_right           0x1               /tmp/ccgwqY45.o
patchoffset         0x4               /tmp/cctz3Ysd.o
rw_normalangle      0x2               /tmp/ccnVnEoI.o
fastparm            0x1               /tmp/ccRKBTkr.o
skyflatnum          0x1               /tmp/ccU4AkX7.o
numChannels         0x1               /tmp/cc5KyAj2.o
dclickstate         0x4               /tmp/ccgwqY45.o
read_e              0x1               /tmp/ccdsAyBl.o
viewheight          0x2               /tmp/ccMfMEUa.o
dc_texturemid       0x4               /tmp/ccMfMEUa.o
eventtail           0x1               /tmp/ccRKBTkr.o
dl                  0x10              /tmp/ccUdflWr.o
sound_e             0x1               /tmp/ccdsAyBl.o
worldlow            0x4               /tmp/ccnVnEoI.o
numspechit          0x2               /tmp/cc0JoFl7.o
drone               0x1               /tmp/ccRKBTkr.o
setblocks           0x1               /tmp/ccU4AkX7.o
keyboxes            0x6               /tmp/ccxi7GyK.o
r_cachedplayerMobjsecnum
                    0x2               /tmp/ccU4AkX7.o
ds_x1               0x2               /tmp/ccMfMEUa.o
d_map               0x1               /tmp/ccgwqY45.o
bottomfrac          0x4               /tmp/ccnVnEoI.o
onground            0x1               /tmp/ccrPLpfy.o
snd_SBport          0x2               /tmp/ccrVjDZV.o
viletryy            0x4               /tmp/ccBS9DOf.o
texturecompositesizes
                    0x2               /tmp/cctz3Ysd.o
options_e           0x1               /tmp/ccdsAyBl.o
vileobj             0x4               /tmp/ccBS9DOf.o
demorecording       0x1               /tmp/ccgwqY45.o
segs_render         0x4               /tmp/ccHDlBrQ.o
d_episode           0x1               /tmp/ccgwqY45.o
nodrawers           0x1               /tmp/ccgwqY45.o
screenSize          0x1               /tmp/ccdsAyBl.o
bottomslope         0x4               /tmp/cckU1VC7.o
registered          0x1               /tmp/ccRKBTkr.o
myargc              0x2               /tmp/ccwCcec4.o
segs_physics        0x4               /tmp/ccHDlBrQ.o
texturewidthmasks   0x2               /tmp/cctz3Ysd.o
braintargeton       0x2               /tmp/ccBS9DOf.o
rw_distance         0x4               /tmp/ccnVnEoI.o
pagename            0x2               /tmp/ccRKBTkr.o
columnofs           0x280             /tmp/ccMfMEUa.o
spritepage          0x4               /tmp/cctz3Ysd.o
bestslidefrac       0x4               /tmp/cc0JoFl7.o
rw_scalestep        0x2               /tmp/ccnVnEoI.o
saveStringEnter     0x2               /tmp/ccdsAyBl.o
autostart           0x1               /tmp/ccRKBTkr.o
scaledviewwidth     0x2               /tmp/ccMfMEUa.o
snd_SBport8bit      0x1               /tmp/ccrVjDZV.o
centeryfrac         0x4               /tmp/ccU4AkX7.o
maskedtexture       0x1               /tmp/ccnVnEoI.o
toptexture          0x1               /tmp/ccnVnEoI.o
spritelights        0x4               /tmp/ccuVxVXF.o
advancedemo         0x1               /tmp/ccRKBTkr.o
key_left            0x1               /tmp/ccgwqY45.o
floatok             0x1               /tmp/cc0JoFl7.o
firstpatch          0x2               /tmp/cctz3Ysd.o
updatedthisframe    0x1               /tmp/ccxi7GyK.o
itemOn              0x2               /tmp/ccdsAyBl.o
worldhigh           0x4               /tmp/ccnVnEoI.o
ptflags             0x4               /tmp/ccUdflWr.o
viewactive          0x1               /tmp/ccgwqY45.o
key_strafe          0x1               /tmp/ccgwqY45.o
ceilingplaneindex   0x2               /tmp/ccbYhx0K.o
aimslope            0x4               /tmp/cc0JoFl7.o
specials_e          0x1               /tmp/ccuOrYlb.o
sides               0x4               /tmp/ccHDlBrQ.o
key_down            0x1               /tmp/ccgwqY45.o
gametime            0x4               /tmp/ccO3qzw4.o
textureheights      0x2               /tmp/cctz3Ysd.o
save_p              0x2               /tmp/ccuOrYlb.o
key_up              0x1               /tmp/ccgwqY45.o
skipdirectdraws     0x1               /tmp/ccRKBTkr.o
snd_SBdma           0x1               /tmp/ccrVjDZV.o
sendsave            0x1               /tmp/ccgwqY45.o
saveCharIndex       0x2               /tmp/ccdsAyBl.o
messageString       0x64              /tmp/ccdsAyBl.o
tmxmove             0x4               /tmp/cc0JoFl7.o
blocklinks          0x4               /tmp/ccHDlBrQ.o
w_keyboxes          0x18              /tmp/ccxi7GyK.o
viewangle           0x4               /tmp/ccU4AkX7.o
message_on          0x1               /tmp/cc1o6kRN.o
epi                 0x1               /tmp/ccdsAyBl.o
bestslidelinenum    0x2               /tmp/cc0JoFl7.o
leveltime           0x4               /tmp/ccN6UUr8.o
total               0x2               /tmp/ccHDlBrQ.o
mousebforward       0x1               /tmp/ccgwqY45.o
la_damage           0x2               /tmp/cc0JoFl7.o
startepisode        0x1               /tmp/ccRKBTkr.o
lastcalculatedsector
                    0x2               /tmp/cc0JoFl7.o
setStateReturn_pos  0x4               /tmp/ccyV2yGn.o
gamemap             0x1               /tmp/ccgwqY45.o
tempstring          0x50              /tmp/ccdsAyBl.o
buttonlist          0xa0              /tmp/ccloZeTM.o
curseg              0x4               /tmp/ccmCZnzK.o
pageFrameArea       0x4               /tmp/ccn81c78.o
viewx               0x4               /tmp/ccU4AkX7.o
activeceilings      0x3c              /tmp/ccwNsiwv.o
dirtybox            0x8               /tmp/ccxkHKx5.o
gameaction          0x1               /tmp/ccgwqY45.o
mousex              0x2               /tmp/ccgwqY45.o
sendpause           0x1               /tmp/ccgwqY45.o
centeryfrac_shiftright4
                    0x4               /tmp/ccU4AkX7.o
regs                0x10              /tmp/ccr8wAuP.o
mousearray          0x4               /tmp/ccgwqY45.o
OldInt8             0x4               /tmp/cc1jrtzy.o
tmymove             0x4               /tmp/cc0JoFl7.o
bottomstep          0x4               /tmp/ccnVnEoI.o
rw_angle1           0x4               /tmp/ccnVnEoI.o
rw_midtexturemid    0x4               /tmp/ccnVnEoI.o
maskedtexturecol    0x4               /tmp/ccnVnEoI.o
usegamma            0x1               /tmp/ccxkHKx5.o
dc_colormap         0x4               /tmp/ccMfMEUa.o
w_armor             0xc               /tmp/ccxi7GyK.o
centerxfrac         0x4               /tmp/ccU4AkX7.o
message_dontfuckwithme
                    0x1               /tmp/cc1o6kRN.o
oldweaponsowned     0x9               /tmp/ccxi7GyK.o
HeadTask            0x12              /tmp/cc1jrtzy.o
savegamestrings     0xf0              /tmp/ccdsAyBl.o
spechit             0x10              /tmp/cc0JoFl7.o
inhelpscreens       0x1               /tmp/ccdsAyBl.o
viewwindowy         0x2               /tmp/ccMfMEUa.o
markceiling         0x1               /tmp/ccnVnEoI.o
dclickstate2        0x4               /tmp/ccgwqY45.o
topstep             0x4               /tmp/ccnVnEoI.o
eventhead           0x1               /tmp/ccRKBTkr.o
rw_centerangle      0x2               /tmp/ccnVnEoI.o
crushchange         0x1               /tmp/cc0JoFl7.o
basexscale          0x4               /tmp/ccbYhx0K.o
w_ammo              0x28              /tmp/ccxi7GyK.o
secretexit          0x1               /tmp/ccgwqY45.o
flatindex           0x4               /tmp/cctz3Ysd.o
showMessages        0x1               /tmp/ccdsAyBl.o
messageToPrint      0x1               /tmp/ccdsAyBl.o
corpsehitRef        0x2               /tmp/ccBS9DOf.o
w_faces             0x8               /tmp/ccxi7GyK.o
lineopening         0x7               /tmp/ccUdflWr.o
st_firsttime        0x1               /tmp/ccxi7GyK.o
st_statusbaron      0x1               /tmp/ccxi7GyK.o
savedescription     0x20              /tmp/ccgwqY45.o
tmthing_pos         0x4               /tmp/cc0JoFl7.o
pixhigh             0x4               /tmp/ccnVnEoI.o
numsubsectors       0x2               /tmp/ccHDlBrQ.o
braintargets        0x40              /tmp/ccBS9DOf.o
ds_y                0x2               /tmp/ccMfMEUa.o
activenumpages      0x4               /tmp/cctz3Ysd.o
sightzstart         0x4               /tmp/cckU1VC7.o
numspritelumps      0x2               /tmp/cctz3Ysd.o
key_speed           0x1               /tmp/ccgwqY45.o
viewwindowx         0x2               /tmp/ccMfMEUa.o
ticcount            0x4               /tmp/ccr8wAuP.o
olddb               0x10              /tmp/ccr8wAuP.o
lines               0x4               /tmp/ccHDlBrQ.o
commercial          0x1               /tmp/ccRKBTkr.o
snd_DesiredMusicDevice
                    0x1               /tmp/ccrVjDZV.o
bodyqueslot         0x1               /tmp/ccgwqY45.o

Discarded input sections

 .comment       0x0000000000000000       0x12 /tmp/ccx4UaLN.o
 .comment       0x0000000000000000       0x12 /tmp/ccxEML8E.o
 .comment       0x0000000000000000       0x12 /tmp/ccdWvIGc.o
 .comment       0x0000000000000000       0x12 /tmp/ccr8wAuP.o
 .comment       0x0000000000000000       0x12 /tmp/ccrVjDZV.o
 .comment       0x0000000000000000       0x12 /tmp/ccmI9gWq.o
 .comment       0x0000000000000000       0x12 /tmp/ccWnJyBJ.o
 .comment       0x0000000000000000       0x12 /tmp/cczAorzb.o
 .comment       0x0000000000000000       0x12 /tmp/ccRKBTkr.o
 .comment       0x0000000000000000       0x12 /tmp/ccO3qzw4.o
 .comment       0x0000000000000000       0x12 /tmp/ccd4J8em.o
 .comment       0x0000000000000000       0x12 /tmp/ccgwqY45.o
 .comment       0x0000000000000000       0x12 /tmp/ccdsAyBl.o
 .comment       0x0000000000000000       0x12 /tmp/ccwCcec4.o
 .comment       0x0000000000000000       0x12 /tmp/ccRwwzkV.o
 .comment       0x0000000000000000       0x12 /tmp/ccSifH9N.o
 .comment       0x0000000000000000       0x12 /tmp/ccwNsiwv.o
 .comment       0x0000000000000000       0x12 /tmp/cc0OYEm1.o
 .comment       0x0000000000000000       0x12 /tmp/ccBS9DOf.o
 .comment       0x0000000000000000       0x12 /tmp/ccMbpb2d.o
 .comment       0x0000000000000000       0x12 /tmp/cc2FB5MW.o
 .comment       0x0000000000000000       0x12 /tmp/cczHazkj.o
 .comment       0x0000000000000000       0x12 /tmp/cc0JoFl7.o
 .comment       0x0000000000000000       0x12 /tmp/ccUdflWr.o
 .comment       0x0000000000000000       0x12 /tmp/ccHBg70s.o
 .comment       0x0000000000000000       0x12 /tmp/ccebu4yL.o
 .comment       0x0000000000000000       0x12 /tmp/ccHDlBrQ.o
 .comment       0x0000000000000000       0x12 /tmp/cckU1VC7.o
 .comment       0x0000000000000000       0x12 /tmp/ccfeytV8.o
 .comment       0x0000000000000000       0x12 /tmp/ccloZeTM.o
 .comment       0x0000000000000000       0x12 /tmp/ccyV2yGn.o
 .comment       0x0000000000000000       0x12 /tmp/ccEwe8Ga.o
 .comment       0x0000000000000000       0x12 /tmp/ccuOrYlb.o
 .comment       0x0000000000000000       0x12 /tmp/ccN6UUr8.o
 .comment       0x0000000000000000       0x12 /tmp/ccrPLpfy.o
 .comment       0x0000000000000000       0x12 /tmp/ccZiZ62w.o
 .comment       0x0000000000000000       0x12 /tmp/ccjLIErg.o
 .comment       0x0000000000000000       0x12 /tmp/ccmCZnzK.o
 .comment       0x0000000000000000       0x12 /tmp/cctz3Ysd.o
 .comment       0x0000000000000000       0x12 /tmp/ccMfMEUa.o
 .comment       0x0000000000000000       0x12 /tmp/ccU4AkX7.o
 .comment       0x0000000000000000       0x12 /tmp/ccbYhx0K.o
 .comment       0x0000000000000000       0x12 /tmp/ccnVnEoI.o
 .comment       0x0000000000000000       0x12 /tmp/ccuVxVXF.o
 .comment       0x0000000000000000       0x12 /tmp/ccSVQz97.o
 .comment       0x0000000000000000       0x12 /tmp/ccAji60c.o
 .comment       0x0000000000000000       0x12 /tmp/cc6ZXgwY.o
 .comment       0x0000000000000000       0x12 /tmp/ccxkHKx5.o
 .comment       0x0000000000000000       0x12 /tmp/ccez6CM4.o
 .comment       0x0000000000000000       0x12 /tmp/ccsVuJZl.o
 .comment       0x0000000000000000       0x12 /tmp/ccn81c78.o
 .comment       0x0000000000000000       0x12 /tmp/ccg57Tlx.o
 .comment       0x0000000000000000       0x12 /tmp/ccmrsGy9.o
 .comment       0x0000000000000000       0x12 /tmp/ccxi7GyK.o
 .comment       0x0000000000000000       0x12 /tmp/ccFadrpy.o
 .comment       0x0000000000000000       0x12 /tmp/ccChX4pF.o
 .comment       0x0000000000000000       0x12 /tmp/cc1o6kRN.o
 .comment       0x0000000000000000       0x12 /tmp/ccKXMMCH.o
 .comment       0x0000000000000000       0x12 /tmp/ccooxdNr.o
 .comment       0x0000000000000000       0x12 /tmp/cc5KyAj2.o
 .comment       0x0000000000000000       0x12 /tmp/ccVoZS4i.o
 .comment       0x0000000000000000       0x12 /tmp/ccQEdboh.o
 .comment       0x0000000000000000       0x12 /tmp/ccqxWioq.o
 .comment       0x0000000000000000       0x12 /tmp/ccedHFxF.o
 .comment       0x0000000000000000       0x12 /tmp/ccCXOkep.o
 .comment       0x0000000000000000       0x12 /tmp/cc1jrtzy.o
 .comment       0x0000000000000000       0x12 /usr/lib/x86_64-linux-gnu/gcc/ia16-elf/6.3.0/../../../../../ia16-elf/lib/medium/regparmcall/libi86.a(ffree.o)
 .comment       0x0000000000000000       0x12 /usr/lib/x86_64-linux-gnu/gcc/ia16-elf/6.3.0/../../../../../ia16-elf/lib/medium/regparmcall/libi86.a(fmalloc.o)
 .comment       0x0000000000000000       0x12 /usr/lib/x86_64-linux-gnu/gcc/ia16-elf/6.3.0/../../../../../ia16-elf/lib/medium/regparmcall/libi86.a(dos-allocmem.o)
 .comment       0x0000000000000000       0x12 /usr/lib/x86_64-linux-gnu/gcc/ia16-elf/6.3.0/../../../../../ia16-elf/lib/medium/regparmcall/libi86.a(dos-freemem.o)
 .comment       0x0000000000000000       0x12 /usr/lib/x86_64-linux-gnu/gcc/ia16-elf/6.3.0/../../../../../ia16-elf/lib/medium/regparmcall/libi86.a(libi86-ret-really-set-errno.o)
 .comment       0x0000000000000000       0x12 /usr/lib/x86_64-linux-gnu/gcc/ia16-elf/6.3.0/medium/regparmcall/crtbegin.o
 .comment       0x0000000000000000       0x12 /usr/lib/x86_64-linux-gnu/gcc/ia16-elf/6.3.0/medium/regparmcall/crtend.o
 .comment       0x0000000000000000       0x12 /usr/lib/x86_64-linux-gnu/gcc/ia16-elf/6.3.0/../../../../../ia16-elf/lib/medium/regparmcall/libc.a(lib_a-atoi.o)
 .comment       0x0000000000000000       0x12 /usr/lib/x86_64-linux-gnu/gcc/ia16-elf/6.3.0/../../../../../ia16-elf/lib/medium/regparmcall/libc.a(lib_a-ctype_.o)
 .comment       0x0000000000000000       0x12 /usr/lib/x86_64-linux-gnu/gcc/ia16-elf/6.3.0/../../../../../ia16-elf/lib/medium/regparmcall/libc.a(lib_a-errno.o)
 .comment       0x0000000000000000       0x12 /usr/lib/x86_64-linux-gnu/gcc/ia16-elf/6.3.0/../../../../../ia16-elf/lib/medium/regparmcall/libc.a(lib_a-exit.o)
 .comment       0x0000000000000000       0x12 /usr/lib/x86_64-linux-gnu/gcc/ia16-elf/6.3.0/../../../../../ia16-elf/lib/medium/regparmcall/libc.a(lib_a-fclose.o)
 .comment       0x0000000000000000       0x12 /usr/lib/x86_64-linux-gnu/gcc/ia16-elf/6.3.0/../../../../../ia16-elf/lib/medium/regparmcall/libc.a(lib_a-feof.o)
 .comment       0x0000000000000000       0x12 /usr/lib/x86_64-linux-gnu/gcc/ia16-elf/6.3.0/../../../../../ia16-elf/lib/medium/regparmcall/libc.a(lib_a-fflush.o)
 .comment       0x0000000000000000       0x12 /usr/lib/x86_64-linux-gnu/gcc/ia16-elf/6.3.0/../../../../../ia16-elf/lib/medium/regparmcall/libc.a(lib_a-fgetc.o)
 .comment       0x0000000000000000       0x12 /usr/lib/x86_64-linux-gnu/gcc/ia16-elf/6.3.0/../../../../../ia16-elf/lib/medium/regparmcall/libc.a(lib_a-findfp.o)
 .comment       0x0000000000000000       0x12 /usr/lib/x86_64-linux-gnu/gcc/ia16-elf/6.3.0/../../../../../ia16-elf/lib/medium/regparmcall/libc.a(lib_a-fiprintf.o)
 .comment       0x0000000000000000       0x12 /usr/lib/x86_64-linux-gnu/gcc/ia16-elf/6.3.0/../../../../../ia16-elf/lib/medium/regparmcall/libc.a(lib_a-fiscanf.o)
 .comment       0x0000000000000000       0x12 /usr/lib/x86_64-linux-gnu/gcc/ia16-elf/6.3.0/../../../../../ia16-elf/lib/medium/regparmcall/libc.a(lib_a-fopen.o)
 .comment       0x0000000000000000       0x12 /usr/lib/x86_64-linux-gnu/gcc/ia16-elf/6.3.0/../../../../../ia16-elf/lib/medium/regparmcall/libc.a(lib_a-fread.o)
 .comment       0x0000000000000000       0x12 /usr/lib/x86_64-linux-gnu/gcc/ia16-elf/6.3.0/../../../../../ia16-elf/lib/medium/regparmcall/libc.a(lib_a-fseek.o)
 .comment       0x0000000000000000       0x12 /usr/lib/x86_64-linux-gnu/gcc/ia16-elf/6.3.0/../../../../../ia16-elf/lib/medium/regparmcall/libc.a(lib_a-fseeko.o)
 .comment       0x0000000000000000       0x12 /usr/lib/x86_64-linux-gnu/gcc/ia16-elf/6.3.0/../../../../../ia16-elf/lib/medium/regparmcall/libc.a(lib_a-fwalk.o)
 .comment       0x0000000000000000       0x12 /usr/lib/x86_64-linux-gnu/gcc/ia16-elf/6.3.0/../../../../../ia16-elf/lib/medium/regparmcall/libc.a(lib_a-fwrite.o)
 .comment       0x0000000000000000       0x12 /usr/lib/x86_64-linux-gnu/gcc/ia16-elf/6.3.0/../../../../../ia16-elf/lib/medium/regparmcall/libc.a(lib_a-getc.o)
 .comment       0x0000000000000000       0x12 /usr/lib/x86_64-linux-gnu/gcc/ia16-elf/6.3.0/../../../../../ia16-elf/lib/medium/regparmcall/libc.a(lib_a-impure.o)
 .comment       0x0000000000000000       0x12 /usr/lib/x86_64-linux-gnu/gcc/ia16-elf/6.3.0/../../../../../ia16-elf/lib/medium/regparmcall/libc.a(lib_a-iprintf.o)
 .comment       0x0000000000000000       0x12 /usr/lib/x86_64-linux-gnu/gcc/ia16-elf/6.3.0/../../../../../ia16-elf/lib/medium/regparmcall/libc.a(lib_a-makebuf.o)
 .comment       0x0000000000000000       0x12 /usr/lib/x86_64-linux-gnu/gcc/ia16-elf/6.3.0/../../../../../ia16-elf/lib/medium/regparmcall/libc.a(lib_a-malloc.o)
 .comment       0x0000000000000000       0x12 /usr/lib/x86_64-linux-gnu/gcc/ia16-elf/6.3.0/../../../../../ia16-elf/lib/medium/regparmcall/libc.a(lib_a-nano-freer.o)
 .comment       0x0000000000000000       0x12 /usr/lib/x86_64-linux-gnu/gcc/ia16-elf/6.3.0/../../../../../ia16-elf/lib/medium/regparmcall/libc.a(lib_a-nano-mallocr.o)
 .comment       0x0000000000000000       0x12 /usr/lib/x86_64-linux-gnu/gcc/ia16-elf/6.3.0/../../../../../ia16-elf/lib/medium/regparmcall/libc.a(lib_a-putchar.o)
 .comment       0x0000000000000000       0x12 /usr/lib/x86_64-linux-gnu/gcc/ia16-elf/6.3.0/../../../../../ia16-elf/lib/medium/regparmcall/libc.a(lib_a-puts.o)
 .comment       0x0000000000000000       0x12 /usr/lib/x86_64-linux-gnu/gcc/ia16-elf/6.3.0/../../../../../ia16-elf/lib/medium/regparmcall/libc.a(lib_a-refill.o)
 .comment       0x0000000000000000       0x12 /usr/lib/x86_64-linux-gnu/gcc/ia16-elf/6.3.0/../../../../../ia16-elf/lib/medium/regparmcall/libc.a(lib_a-rget.o)
 .comment       0x0000000000000000       0x12 /usr/lib/x86_64-linux-gnu/gcc/ia16-elf/6.3.0/../../../../../ia16-elf/lib/medium/regparmcall/libc.a(lib_a-setbuf.o)
 .comment       0x0000000000000000       0x12 /usr/lib/x86_64-linux-gnu/gcc/ia16-elf/6.3.0/../../../../../ia16-elf/lib/medium/regparmcall/libc.a(lib_a-setvbuf.o)
 .comment       0x0000000000000000       0x12 /usr/lib/x86_64-linux-gnu/gcc/ia16-elf/6.3.0/../../../../../ia16-elf/lib/medium/regparmcall/libc.a(lib_a-siprintf.o)
 .comment       0x0000000000000000       0x12 /usr/lib/x86_64-linux-gnu/gcc/ia16-elf/6.3.0/../../../../../ia16-elf/lib/medium/regparmcall/libc.a(lib_a-siscanf.o)
 .comment       0x0000000000000000       0x12 /usr/lib/x86_64-linux-gnu/gcc/ia16-elf/6.3.0/../../../../../ia16-elf/lib/medium/regparmcall/libc.a(lib_a-stdio.o)
 .comment       0x0000000000000000       0x12 /usr/lib/x86_64-linux-gnu/gcc/ia16-elf/6.3.0/../../../../../ia16-elf/lib/medium/regparmcall/libc.a(lib_a-strcasecmp.o)
 .comment       0x0000000000000000       0x12 /usr/lib/x86_64-linux-gnu/gcc/ia16-elf/6.3.0/../../../../../ia16-elf/lib/medium/regparmcall/libc.a(lib_a-strcat.o)
 .comment       0x0000000000000000       0x12 /usr/lib/x86_64-linux-gnu/gcc/ia16-elf/6.3.0/../../../../../ia16-elf/lib/medium/regparmcall/libc.a(lib_a-strncasecmp.o)
 .comment       0x0000000000000000       0x12 /usr/lib/x86_64-linux-gnu/gcc/ia16-elf/6.3.0/../../../../../ia16-elf/lib/medium/regparmcall/libc.a(lib_a-strtol.o)
 .comment       0x0000000000000000       0x12 /usr/lib/x86_64-linux-gnu/gcc/ia16-elf/6.3.0/../../../../../ia16-elf/lib/medium/regparmcall/libc.a(lib_a-strupr.o)
 .comment       0x0000000000000000       0x12 /usr/lib/x86_64-linux-gnu/gcc/ia16-elf/6.3.0/../../../../../ia16-elf/lib/medium/regparmcall/libc.a(lib_a-svfiprintf.o)
 .comment       0x0000000000000000       0x12 /usr/lib/x86_64-linux-gnu/gcc/ia16-elf/6.3.0/../../../../../ia16-elf/lib/medium/regparmcall/libc.a(lib_a-svfiscanf.o)
 .comment       0x0000000000000000       0x12 /usr/lib/x86_64-linux-gnu/gcc/ia16-elf/6.3.0/../../../../../ia16-elf/lib/medium/regparmcall/libc.a(lib_a-sysclose.o)
 .comment       0x0000000000000000       0x12 /usr/lib/x86_64-linux-gnu/gcc/ia16-elf/6.3.0/../../../../../ia16-elf/lib/medium/regparmcall/libc.a(lib_a-sysisatty.o)
 .comment       0x0000000000000000       0x12 /usr/lib/x86_64-linux-gnu/gcc/ia16-elf/6.3.0/../../../../../ia16-elf/lib/medium/regparmcall/libc.a(lib_a-syslseek.o)
 .comment       0x0000000000000000       0x12 /usr/lib/x86_64-linux-gnu/gcc/ia16-elf/6.3.0/../../../../../ia16-elf/lib/medium/regparmcall/libc.a(lib_a-sysopen.o)
 .comment       0x0000000000000000       0x12 /usr/lib/x86_64-linux-gnu/gcc/ia16-elf/6.3.0/../../../../../ia16-elf/lib/medium/regparmcall/libc.a(lib_a-sysread.o)
 .comment       0x0000000000000000       0x12 /usr/lib/x86_64-linux-gnu/gcc/ia16-elf/6.3.0/../../../../../ia16-elf/lib/medium/regparmcall/libc.a(lib_a-syswrite.o)
 .comment       0x0000000000000000       0x12 /usr/lib/x86_64-linux-gnu/gcc/ia16-elf/6.3.0/../../../../../ia16-elf/lib/medium/regparmcall/libc.a(lib_a-ungetc.o)
 .comment       0x0000000000000000       0x12 /usr/lib/x86_64-linux-gnu/gcc/ia16-elf/6.3.0/../../../../../ia16-elf/lib/medium/regparmcall/libc.a(lib_a-vfiprintf.o)
 .comment       0x0000000000000000       0x12 /usr/lib/x86_64-linux-gnu/gcc/ia16-elf/6.3.0/../../../../../ia16-elf/lib/medium/regparmcall/libc.a(lib_a-vfiscanf.o)
 .comment       0x0000000000000000       0x12 /usr/lib/x86_64-linux-gnu/gcc/ia16-elf/6.3.0/../../../../../ia16-elf/lib/medium/regparmcall/libc.a(lib_a-viprintf.o)
 .comment       0x0000000000000000       0x12 /usr/lib/x86_64-linux-gnu/gcc/ia16-elf/6.3.0/../../../../../ia16-elf/lib/medium/regparmcall/libc.a(lib_a-wcrtomb.o)
 .comment       0x0000000000000000       0x12 /usr/lib/x86_64-linux-gnu/gcc/ia16-elf/6.3.0/../../../../../ia16-elf/lib/medium/regparmcall/libc.a(lib_a-wcsrtombs.o)
 .comment       0x0000000000000000       0x12 /usr/lib/x86_64-linux-gnu/gcc/ia16-elf/6.3.0/../../../../../ia16-elf/lib/medium/regparmcall/libc.a(lib_a-wctomb_r.o)
 .comment       0x0000000000000000       0x12 /usr/lib/x86_64-linux-gnu/gcc/ia16-elf/6.3.0/../../../../../ia16-elf/lib/medium/regparmcall/libc.a(lib_a-wsetup.o)
 .comment       0x0000000000000000       0x12 /usr/lib/x86_64-linux-gnu/gcc/ia16-elf/6.3.0/../../../../../ia16-elf/lib/medium/regparmcall/libc.a(lib_a-__call_atexit.o)
 .comment       0x0000000000000000       0x12 /usr/lib/x86_64-linux-gnu/gcc/ia16-elf/6.3.0/../../../../../ia16-elf/lib/medium/regparmcall/libc.a(lib_a-flags.o)
 .comment       0x0000000000000000       0x12 /usr/lib/x86_64-linux-gnu/gcc/ia16-elf/6.3.0/../../../../../ia16-elf/lib/medium/regparmcall/libc.a(lib_a-fvwrite.o)
 .comment       0x0000000000000000       0x12 /usr/lib/x86_64-linux-gnu/gcc/ia16-elf/6.3.0/../../../../../ia16-elf/lib/medium/regparmcall/libc.a(lib_a-iswspace.o)
 .comment       0x0000000000000000       0x12 /usr/lib/x86_64-linux-gnu/gcc/ia16-elf/6.3.0/../../../../../ia16-elf/lib/medium/regparmcall/libc.a(lib_a-jp2uc.o)
 .comment       0x0000000000000000       0x12 /usr/lib/x86_64-linux-gnu/gcc/ia16-elf/6.3.0/../../../../../ia16-elf/lib/medium/regparmcall/libc.a(lib_a-locale.o)
 .comment       0x0000000000000000       0x12 /usr/lib/x86_64-linux-gnu/gcc/ia16-elf/6.3.0/../../../../../ia16-elf/lib/medium/regparmcall/libc.a(lib_a-mbrtowc.o)
 .comment       0x0000000000000000       0x12 /usr/lib/x86_64-linux-gnu/gcc/ia16-elf/6.3.0/../../../../../ia16-elf/lib/medium/regparmcall/libc.a(lib_a-mbtowc_r.o)
 .comment       0x0000000000000000       0x12 /usr/lib/x86_64-linux-gnu/gcc/ia16-elf/6.3.0/../../../../../ia16-elf/lib/medium/regparmcall/libc.a(lib_a-nano-reallocr.o)
 .comment       0x0000000000000000       0x12 /usr/lib/x86_64-linux-gnu/gcc/ia16-elf/6.3.0/../../../../../ia16-elf/lib/medium/regparmcall/libc.a(lib_a-putc.o)
 .comment       0x0000000000000000       0x12 /usr/lib/x86_64-linux-gnu/gcc/ia16-elf/6.3.0/../../../../../ia16-elf/lib/medium/regparmcall/libc.a(lib_a-sccl.o)
 .comment       0x0000000000000000       0x12 /usr/lib/x86_64-linux-gnu/gcc/ia16-elf/6.3.0/../../../../../ia16-elf/lib/medium/regparmcall/libc.a(lib_a-sprintr.o)
 .comment       0x0000000000000000       0x12 /usr/lib/x86_64-linux-gnu/gcc/ia16-elf/6.3.0/../../../../../ia16-elf/lib/medium/regparmcall/libc.a(lib_a-ssprintr.o)
 .comment       0x0000000000000000       0x12 /usr/lib/x86_64-linux-gnu/gcc/ia16-elf/6.3.0/../../../../../ia16-elf/lib/medium/regparmcall/libc.a(lib_a-strlcpy.o)
 .comment       0x0000000000000000       0x12 /usr/lib/x86_64-linux-gnu/gcc/ia16-elf/6.3.0/../../../../../ia16-elf/lib/medium/regparmcall/libc.a(lib_a-strtoll_r.o)
 .comment       0x0000000000000000       0x12 /usr/lib/x86_64-linux-gnu/gcc/ia16-elf/6.3.0/../../../../../ia16-elf/lib/medium/regparmcall/libc.a(lib_a-strtoul.o)
 .comment       0x0000000000000000       0x12 /usr/lib/x86_64-linux-gnu/gcc/ia16-elf/6.3.0/../../../../../ia16-elf/lib/medium/regparmcall/libc.a(lib_a-strtoull_r.o)
 .comment       0x0000000000000000       0x12 /usr/lib/x86_64-linux-gnu/gcc/ia16-elf/6.3.0/../../../../../ia16-elf/lib/medium/regparmcall/libc.a(lib_a-wbuf.o)
 .comment       0x0000000000000000       0x12 /usr/lib/x86_64-linux-gnu/gcc/ia16-elf/6.3.0/../../../../../ia16-elf/lib/medium/regparmcall/libc.a(lib_a-wcsnrtombs.o)
 .comment       0x0000000000000000       0x12 /usr/lib/x86_64-linux-gnu/gcc/ia16-elf/6.3.0/../../../../../ia16-elf/lib/medium/regparmcall/libc.a(lib_a-getenv_r.o)
 .comment       0x0000000000000000       0x12 /usr/lib/x86_64-linux-gnu/gcc/ia16-elf/6.3.0/../../../../../ia16-elf/lib/medium/regparmcall/libc.a(lib_a-nano-msizer.o)
 .comment       0x0000000000000000       0x12 /usr/lib/x86_64-linux-gnu/gcc/ia16-elf/6.3.0/../../../../../ia16-elf/lib/medium/regparmcall/libc.a(lib_a-envlock.o)
 .comment       0x0000000000000000       0x12 /usr/lib/x86_64-linux-gnu/gcc/ia16-elf/6.3.0/medium/regparmcall/libgcc.a(_ashrsi3.o)
 .comment       0x0000000000000000       0x12 /usr/lib/x86_64-linux-gnu/gcc/ia16-elf/6.3.0/medium/regparmcall/libgcc.a(_cmpsi2.o)
 .comment       0x0000000000000000       0x12 /usr/lib/x86_64-linux-gnu/gcc/ia16-elf/6.3.0/medium/regparmcall/libgcc.a(_ucmpsi2.o)
 .comment       0x0000000000000000       0x12 /usr/lib/x86_64-linux-gnu/gcc/ia16-elf/6.3.0/medium/regparmcall/libgcc.a(_muldi3.o)
 .comment       0x0000000000000000       0x12 /usr/lib/x86_64-linux-gnu/gcc/ia16-elf/6.3.0/medium/regparmcall/libgcc.a(_lshrdi3.o)
 .comment       0x0000000000000000       0x12 /usr/lib/x86_64-linux-gnu/gcc/ia16-elf/6.3.0/medium/regparmcall/libgcc.a(_ashldi3.o)
 .comment       0x0000000000000000       0x12 /usr/lib/x86_64-linux-gnu/gcc/ia16-elf/6.3.0/medium/regparmcall/libgcc.a(_divdi3.o)
 .comment       0x0000000000000000       0x12 /usr/lib/x86_64-linux-gnu/gcc/ia16-elf/6.3.0/medium/regparmcall/libgcc.a(_udivdi3.o)
 .comment       0x0000000000000000       0x12 /usr/lib/x86_64-linux-gnu/gcc/ia16-elf/6.3.0/medium/regparmcall/libgcc.a(_umoddi3.o)
 .comment       0x0000000000000000       0x12 /usr/lib/x86_64-linux-gnu/gcc/ia16-elf/6.3.0/medium/regparmcall/libgcc.a(_clz.o)
 .comment       0x0000000000000000       0x12 /usr/lib/x86_64-linux-gnu/gcc/ia16-elf/6.3.0/../../../../../ia16-elf/lib/medium/regparmcall/libdos-m.a(dos-access.o)
 .comment       0x0000000000000000       0x12 /usr/lib/x86_64-linux-gnu/gcc/ia16-elf/6.3.0/../../../../../ia16-elf/lib/medium/regparmcall/libdos-m.a(dos-openr.o)
 .comment       0x0000000000000000       0x12 /usr/lib/x86_64-linux-gnu/gcc/ia16-elf/6.3.0/../../../../../ia16-elf/lib/medium/regparmcall/libdos-m.a(dos-sbrkr.o)
 .comment       0x0000000000000000       0x12 /usr/lib/x86_64-linux-gnu/gcc/ia16-elf/6.3.0/../../../../../ia16-elf/lib/medium/regparmcall/libdos-m.a(dos-heaplen.o)
 .comment       0x0000000000000000       0x12 /usr/lib/x86_64-linux-gnu/gcc/ia16-elf/6.3.0/../../../../../ia16-elf/lib/medium/regparmcall/libc.a(lib_a-abort.o)

Memory Configuration

Name             Origin             Length             Attributes
bseglma          0x0000000000000000 0x00000000000a0000 xw
hdrvma           0x0000000000000000 0x0000000000040020 xw
csegvma          0x0000000000000020 0x0000000000010000 xw
ft00segvma       0x0000000000000000 0x0000000000010000 xw
ft01segvma       0x0000000000000000 0x0000000000010000 xw
ft02segvma       0x0000000000000000 0x0000000000010000 xw
ft03segvma       0x0000000000000000 0x0000000000010000 xw
ft04segvma       0x0000000000000000 0x0000000000010000 xw
ft05segvma       0x0000000000000000 0x0000000000010000 xw
ft06segvma       0x0000000000000000 0x0000000000010000 xw
ft07segvma       0x0000000000000000 0x0000000000010000 xw
ft10segvma       0x0000000000000000 0x0000000000010000 xw
ft11segvma       0x0000000000000000 0x0000000000010000 xw
ft12segvma       0x0000000000000000 0x0000000000010000 xw
ft13segvma       0x0000000000000000 0x0000000000010000 xw
ft14segvma       0x0000000000000000 0x0000000000010000 xw
ft15segvma       0x0000000000000000 0x0000000000010000 xw
ft16segvma       0x0000000000000000 0x0000000000010000 xw
ft17segvma       0x0000000000000000 0x0000000000010000 xw
ft20segvma       0x0000000000000000 0x0000000000010000 xw
ft21segvma       0x0000000000000000 0x0000000000010000 xw
ft22segvma       0x0000000000000000 0x0000000000010000 xw
ft23segvma       0x0000000000000000 0x0000000000010000 xw
ft24segvma       0x0000000000000000 0x0000000000010000 xw
ft25segvma       0x0000000000000000 0x0000000000010000 xw
ft26segvma       0x0000000000000000 0x0000000000010000 xw
ft27segvma       0x0000000000000000 0x0000000000010000 xw
ft30segvma       0x0000000000000000 0x0000000000010000 xw
ft31segvma       0x0000000000000000 0x0000000000010000 xw
ft32segvma       0x0000000000000000 0x0000000000010000 xw
ft33segvma       0x0000000000000000 0x0000000000010000 xw
ft34segvma       0x0000000000000000 0x0000000000010000 xw
ft35segvma       0x0000000000000000 0x0000000000010000 xw
ft36segvma       0x0000000000000000 0x0000000000010000 xw
ft37segvma       0x0000000000000000 0x0000000000010000 xw
ft40segvma       0x0000000000000000 0x0000000000010000 xw
ft41segvma       0x0000000000000000 0x0000000000010000 xw
ft42segvma       0x0000000000000000 0x0000000000010000 xw
ft43segvma       0x0000000000000000 0x0000000000010000 xw
ft44segvma       0x0000000000000000 0x0000000000010000 xw
ft45segvma       0x0000000000000000 0x0000000000010000 xw
ft46segvma       0x0000000000000000 0x0000000000010000 xw
ft47segvma       0x0000000000000000 0x0000000000010000 xw
ft50segvma       0x0000000000000000 0x0000000000010000 xw
ft51segvma       0x0000000000000000 0x0000000000010000 xw
ft52segvma       0x0000000000000000 0x0000000000010000 xw
ft53segvma       0x0000000000000000 0x0000000000010000 xw
ft54segvma       0x0000000000000000 0x0000000000010000 xw
ft55segvma       0x0000000000000000 0x0000000000010000 xw
ft56segvma       0x0000000000000000 0x0000000000010000 xw
ft57segvma       0x0000000000000000 0x0000000000010000 xw
ft60segvma       0x0000000000000000 0x0000000000010000 xw
ft61segvma       0x0000000000000000 0x0000000000010000 xw
ft62segvma       0x0000000000000000 0x0000000000010000 xw
ft63segvma       0x0000000000000000 0x0000000000010000 xw
ft64segvma       0x0000000000000000 0x0000000000010000 xw
ft65segvma       0x0000000000000000 0x0000000000010000 xw
ft66segvma       0x0000000000000000 0x0000000000010000 xw
ft67segvma       0x0000000000000000 0x0000000000010000 xw
ft70segvma       0x0000000000000000 0x0000000000010000 xw
ft71segvma       0x0000000000000000 0x0000000000010000 xw
ft72segvma       0x0000000000000000 0x0000000000010000 xw
ft73segvma       0x0000000000000000 0x0000000000010000 xw
ft74segvma       0x0000000000000000 0x0000000000010000 xw
ft75segvma       0x0000000000000000 0x0000000000010000 xw
ft76segvma       0x0000000000000000 0x0000000000010000 xw
ft77segvma       0x0000000000000000 0x0000000000010000 xw
ftXXsegvma       0x0000000000000000 0x0000000000010000 xw
fr00segvma       0x0000000000000000 0x0000000000010000 xw
fr01segvma       0x0000000000000000 0x0000000000010000 xw
fr02segvma       0x0000000000000000 0x0000000000010000 xw
fr03segvma       0x0000000000000000 0x0000000000010000 xw
fr04segvma       0x0000000000000000 0x0000000000010000 xw
fr05segvma       0x0000000000000000 0x0000000000010000 xw
fr06segvma       0x0000000000000000 0x0000000000010000 xw
fr07segvma       0x0000000000000000 0x0000000000010000 xw
fr10segvma       0x0000000000000000 0x0000000000010000 xw
fr11segvma       0x0000000000000000 0x0000000000010000 xw
fr12segvma       0x0000000000000000 0x0000000000010000 xw
fr13segvma       0x0000000000000000 0x0000000000010000 xw
fr14segvma       0x0000000000000000 0x0000000000010000 xw
fr15segvma       0x0000000000000000 0x0000000000010000 xw
fr16segvma       0x0000000000000000 0x0000000000010000 xw
fr17segvma       0x0000000000000000 0x0000000000010000 xw
fr20segvma       0x0000000000000000 0x0000000000010000 xw
fr21segvma       0x0000000000000000 0x0000000000010000 xw
fr22segvma       0x0000000000000000 0x0000000000010000 xw
fr23segvma       0x0000000000000000 0x0000000000010000 xw
fr24segvma       0x0000000000000000 0x0000000000010000 xw
fr25segvma       0x0000000000000000 0x0000000000010000 xw
fr26segvma       0x0000000000000000 0x0000000000010000 xw
fr27segvma       0x0000000000000000 0x0000000000010000 xw
fr30segvma       0x0000000000000000 0x0000000000010000 xw
fr31segvma       0x0000000000000000 0x0000000000010000 xw
fr32segvma       0x0000000000000000 0x0000000000010000 xw
fr33segvma       0x0000000000000000 0x0000000000010000 xw
fr34segvma       0x0000000000000000 0x0000000000010000 xw
fr35segvma       0x0000000000000000 0x0000000000010000 xw
fr36segvma       0x0000000000000000 0x0000000000010000 xw
fr37segvma       0x0000000000000000 0x0000000000010000 xw
fr40segvma       0x0000000000000000 0x0000000000010000 xw
fr41segvma       0x0000000000000000 0x0000000000010000 xw
fr42segvma       0x0000000000000000 0x0000000000010000 xw
fr43segvma       0x0000000000000000 0x0000000000010000 xw
fr44segvma       0x0000000000000000 0x0000000000010000 xw
fr45segvma       0x0000000000000000 0x0000000000010000 xw
fr46segvma       0x0000000000000000 0x0000000000010000 xw
fr47segvma       0x0000000000000000 0x0000000000010000 xw
fr50segvma       0x0000000000000000 0x0000000000010000 xw
fr51segvma       0x0000000000000000 0x0000000000010000 xw
fr52segvma       0x0000000000000000 0x0000000000010000 xw
fr53segvma       0x0000000000000000 0x0000000000010000 xw
fr54segvma       0x0000000000000000 0x0000000000010000 xw
fr55segvma       0x0000000000000000 0x0000000000010000 xw
fr56segvma       0x0000000000000000 0x0000000000010000 xw
fr57segvma       0x0000000000000000 0x0000000000010000 xw
fr60segvma       0x0000000000000000 0x0000000000010000 xw
fr61segvma       0x0000000000000000 0x0000000000010000 xw
fr62segvma       0x0000000000000000 0x0000000000010000 xw
fr63segvma       0x0000000000000000 0x0000000000010000 xw
fr64segvma       0x0000000000000000 0x0000000000010000 xw
fr65segvma       0x0000000000000000 0x0000000000010000 xw
fr66segvma       0x0000000000000000 0x0000000000010000 xw
fr67segvma       0x0000000000000000 0x0000000000010000 xw
fr70segvma       0x0000000000000000 0x0000000000010000 xw
fr71segvma       0x0000000000000000 0x0000000000010000 xw
fr72segvma       0x0000000000000000 0x0000000000010000 xw
fr73segvma       0x0000000000000000 0x0000000000010000 xw
fr74segvma       0x0000000000000000 0x0000000000010000 xw
fr75segvma       0x0000000000000000 0x0000000000010000 xw
fr76segvma       0x0000000000000000 0x0000000000010000 xw
fr77segvma       0x0000000000000000 0x0000000000010000 xw
frXXsegvma       0x0000000000000000 0x0000000000010000 xw
fd00segvma       0x0000000000000000 0x0000000000010000 xw
fd01segvma       0x0000000000000000 0x0000000000010000 xw
fd02segvma       0x0000000000000000 0x0000000000010000 xw
fd03segvma       0x0000000000000000 0x0000000000010000 xw
fd04segvma       0x0000000000000000 0x0000000000010000 xw
fd05segvma       0x0000000000000000 0x0000000000010000 xw
fd06segvma       0x0000000000000000 0x0000000000010000 xw
fd07segvma       0x0000000000000000 0x0000000000010000 xw
fd10segvma       0x0000000000000000 0x0000000000010000 xw
fd11segvma       0x0000000000000000 0x0000000000010000 xw
fd12segvma       0x0000000000000000 0x0000000000010000 xw
fd13segvma       0x0000000000000000 0x0000000000010000 xw
fd14segvma       0x0000000000000000 0x0000000000010000 xw
fd15segvma       0x0000000000000000 0x0000000000010000 xw
fd16segvma       0x0000000000000000 0x0000000000010000 xw
fd17segvma       0x0000000000000000 0x0000000000010000 xw
fd20segvma       0x0000000000000000 0x0000000000010000 xw
fd21segvma       0x0000000000000000 0x0000000000010000 xw
fd22segvma       0x0000000000000000 0x0000000000010000 xw
fd23segvma       0x0000000000000000 0x0000000000010000 xw
fd24segvma       0x0000000000000000 0x0000000000010000 xw
fd25segvma       0x0000000000000000 0x0000000000010000 xw
fd26segvma       0x0000000000000000 0x0000000000010000 xw
fd27segvma       0x0000000000000000 0x0000000000010000 xw
fd30segvma       0x0000000000000000 0x0000000000010000 xw
fd31segvma       0x0000000000000000 0x0000000000010000 xw
fd32segvma       0x0000000000000000 0x0000000000010000 xw
fd33segvma       0x0000000000000000 0x0000000000010000 xw
fd34segvma       0x0000000000000000 0x0000000000010000 xw
fd35segvma       0x0000000000000000 0x0000000000010000 xw
fd36segvma       0x0000000000000000 0x0000000000010000 xw
fd37segvma       0x0000000000000000 0x0000000000010000 xw
fd40segvma       0x0000000000000000 0x0000000000010000 xw
fd41segvma       0x0000000000000000 0x0000000000010000 xw
fd42segvma       0x0000000000000000 0x0000000000010000 xw
fd43segvma       0x0000000000000000 0x0000000000010000 xw
fd44segvma       0x0000000000000000 0x0000000000010000 xw
fd45segvma       0x0000000000000000 0x0000000000010000 xw
fd46segvma       0x0000000000000000 0x0000000000010000 xw
fd47segvma       0x0000000000000000 0x0000000000010000 xw
fd50segvma       0x0000000000000000 0x0000000000010000 xw
fd51segvma       0x0000000000000000 0x0000000000010000 xw
fd52segvma       0x0000000000000000 0x0000000000010000 xw
fd53segvma       0x0000000000000000 0x0000000000010000 xw
fd54segvma       0x0000000000000000 0x0000000000010000 xw
fd55segvma       0x0000000000000000 0x0000000000010000 xw
fd56segvma       0x0000000000000000 0x0000000000010000 xw
fd57segvma       0x0000000000000000 0x0000000000010000 xw
fd60segvma       0x0000000000000000 0x0000000000010000 xw
fd61segvma       0x0000000000000000 0x0000000000010000 xw
fd62segvma       0x0000000000000000 0x0000000000010000 xw
fd63segvma       0x0000000000000000 0x0000000000010000 xw
fd64segvma       0x0000000000000000 0x0000000000010000 xw
fd65segvma       0x0000000000000000 0x0000000000010000 xw
fd66segvma       0x0000000000000000 0x0000000000010000 xw
fd67segvma       0x0000000000000000 0x0000000000010000 xw
fd70segvma       0x0000000000000000 0x0000000000010000 xw
fd71segvma       0x0000000000000000 0x0000000000010000 xw
fd72segvma       0x0000000000000000 0x0000000000010000 xw
fd73segvma       0x0000000000000000 0x0000000000010000 xw
fd74segvma       0x0000000000000000 0x0000000000010000 xw
fd75segvma       0x0000000000000000 0x0000000000010000 xw
fd76segvma       0x0000000000000000 0x0000000000010000 xw
fd77segvma       0x0000000000000000 0x0000000000010000 xw
fdXXsegvma       0x0000000000000000 0x0000000000010000 xw
dsegvma          0x0000000000000020 0x0000000000010000 xw
*default*        0x0000000000000000 0xffffffffffffffff

Linker script and memory map

LOAD /tmp/ccx4UaLN.o
LOAD /tmp/ccxEML8E.o
LOAD /tmp/ccdWvIGc.o
LOAD /tmp/ccr8wAuP.o
LOAD /tmp/ccrVjDZV.o
LOAD /tmp/ccmI9gWq.o
LOAD /tmp/ccWnJyBJ.o
LOAD /tmp/cczAorzb.o
LOAD /tmp/ccRKBTkr.o
LOAD /tmp/ccO3qzw4.o
LOAD /tmp/ccd4J8em.o
LOAD /tmp/ccgwqY45.o
LOAD /tmp/ccdsAyBl.o
LOAD /tmp/ccwCcec4.o
LOAD /tmp/ccRwwzkV.o
LOAD /tmp/ccSifH9N.o
LOAD /tmp/ccwNsiwv.o
LOAD /tmp/cc0OYEm1.o
LOAD /tmp/ccBS9DOf.o
LOAD /tmp/ccMbpb2d.o
LOAD /tmp/cc2FB5MW.o
LOAD /tmp/cczHazkj.o
LOAD /tmp/cc0JoFl7.o
LOAD /tmp/ccUdflWr.o
LOAD /tmp/ccHBg70s.o
LOAD /tmp/ccebu4yL.o
LOAD /tmp/ccHDlBrQ.o
LOAD /tmp/cckU1VC7.o
LOAD /tmp/ccfeytV8.o
LOAD /tmp/ccloZeTM.o
LOAD /tmp/ccyV2yGn.o
LOAD /tmp/ccEwe8Ga.o
LOAD /tmp/ccuOrYlb.o
LOAD /tmp/ccN6UUr8.o
LOAD /tmp/ccrPLpfy.o
LOAD /tmp/ccZiZ62w.o
LOAD /tmp/ccjLIErg.o
LOAD /tmp/ccmCZnzK.o
LOAD /tmp/cctz3Ysd.o
LOAD /tmp/ccMfMEUa.o
LOAD /tmp/ccU4AkX7.o
LOAD /tmp/ccbYhx0K.o
LOAD /tmp/ccnVnEoI.o
LOAD /tmp/ccuVxVXF.o
LOAD /tmp/ccSVQz97.o
LOAD /tmp/ccAji60c.o
LOAD /tmp/cc6ZXgwY.o
LOAD /tmp/ccxkHKx5.o
LOAD /tmp/ccez6CM4.o
LOAD /tmp/ccsVuJZl.o
LOAD /tmp/ccn81c78.o
LOAD /tmp/ccg57Tlx.o
LOAD /tmp/ccmrsGy9.o
LOAD /tmp/ccxi7GyK.o
LOAD /tmp/ccFadrpy.o
LOAD /tmp/ccChX4pF.o
LOAD /tmp/cc1o6kRN.o
LOAD /tmp/ccKXMMCH.o
LOAD /tmp/ccooxdNr.o
LOAD /tmp/cc5KyAj2.o
LOAD /tmp/ccVoZS4i.o
LOAD /tmp/ccQEdboh.o
LOAD /tmp/ccqxWioq.o
LOAD /tmp/ccedHFxF.o
LOAD /tmp/ccCXOkep.o
LOAD /tmp/cc1jrtzy.o
LOAD /usr/lib/x86_64-linux-gnu/gcc/ia16-elf/6.3.0/../../../../../ia16-elf/lib/medium/regparmcall/libi86.a
LOAD /usr/lib/x86_64-linux-gnu/gcc/ia16-elf/6.3.0/../../../../../ia16-elf/lib/medium/regparmcall/libastdio.a
LOAD /usr/lib/x86_64-linux-gnu/gcc/ia16-elf/6.3.0/../../../../../ia16-elf/lib/medium/regparmcall/gprtf-fw.a
LOAD /usr/lib/x86_64-linux-gnu/gcc/ia16-elf/6.3.0/../../../../../ia16-elf/lib/medium/regparmcall/gscnf-fw.a
LOAD /usr/lib/x86_64-linux-gnu/gcc/ia16-elf/6.3.0/../../../../../ia16-elf/lib/medium/regparmcall/tprtf-fw.a
LOAD /usr/lib/x86_64-linux-gnu/gcc/ia16-elf/6.3.0/../../../../../ia16-elf/lib/medium/regparmcall/tscnf-fw.a
LOAD /usr/lib/x86_64-linux-gnu/gcc/ia16-elf/6.3.0/../../../../../ia16-elf/lib/medium/regparmcall/iprtf-fw.a
LOAD /usr/lib/x86_64-linux-gnu/gcc/ia16-elf/6.3.0/../../../../../ia16-elf/lib/medium/regparmcall/iscnf-fw.a
LOAD /usr/lib/x86_64-linux-gnu/gcc/ia16-elf/6.3.0/../../../../../ia16-elf/lib/medium/regparmcall/libfstdio.a
LOAD /usr/lib/x86_64-linux-gnu/gcc/ia16-elf/6.3.0/../../../../../ia16-elf/lib/medium/regparmcall/tprtf-fw.a
LOAD /usr/lib/x86_64-linux-gnu/gcc/ia16-elf/6.3.0/../../../../../ia16-elf/lib/medium/regparmcall/tscnf-fw.a
LOAD /usr/lib/x86_64-linux-gnu/gcc/ia16-elf/6.3.0/../../../../../ia16-elf/lib/medium/regparmcall/gprtf-fw.a
LOAD /usr/lib/x86_64-linux-gnu/gcc/ia16-elf/6.3.0/../../../../../ia16-elf/lib/medium/regparmcall/gscnf-fw.a
LOAD /usr/lib/x86_64-linux-gnu/gcc/ia16-elf/6.3.0/medium/regparmcall/crtbegin.o
LOAD /usr/lib/x86_64-linux-gnu/gcc/ia16-elf/6.3.0/medium/regparmcall/crtend.o
LOAD /usr/lib/x86_64-linux-gnu/gcc/ia16-elf/6.3.0/../../../../../ia16-elf/lib/medium/regparmcall/dos-m-c0.o
START GROUP
LOAD /usr/lib/x86_64-linux-gnu/gcc/ia16-elf/6.3.0/../../../../../ia16-elf/lib/medium/regparmcall/libc.a
LOAD /usr/lib/x86_64-linux-gnu/gcc/ia16-elf/6.3.0/medium/regparmcall/libgcc.a
LOAD /usr/lib/x86_64-linux-gnu/gcc/ia16-elf/6.3.0/../../../../../ia16-elf/lib/medium/regparmcall/libdos-m.a
LOAD /usr/lib/x86_64-linux-gnu/gcc/ia16-elf/6.3.0/../../../../../ia16-elf/lib/medium/regparmcall/libm.a
END GROUP

.head
 *(.head)
 *(.head.*)

.msdos_mz_hdr   0x0000000000000000     0x2510
                0x0000000000000000                __msdos_mz_hdr_start = .
                0x0000000000000000        0x2 SHORT 0x5a4d
                0x0000000000000002        0x2 SHORT 0x140 ((LOADADDR (.data) + SIZEOF (.data)) % 0x200)
                0x0000000000000004        0x2 SHORT 0x176 (((LOADADDR (.data) + SIZEOF (.data)) + 0x1ff) / 0x200)
                0x0000000000000006        0x2 SHORT 0x93d __msdos_mz_rels
                0x0000000000000008        0x2 SHORT 0x251 __msdos_mz_hdr_paras
                0x000000000000000a        0x2 SHORT 0xa15 (((0x10000 - SIZEOF (.data)) - ADDR (.data)) / 0x10)
                0x000000000000000c        0x2 SHORT 0xa15 DEFINED (__msdos_handle_v1)?0xffff:(((0x10000 - SIZEOF (.data)) - ADDR (.data)) / 0x10)
                0x000000000000000e        0x2 SHORT 0x12678 ((((LOADADDR (.data) / 0x10) - __msdos_mz_hdr_paras) - (ADDR (.data) / 0x10)) + 0x10000)
                0x0000000000000010        0x2 SHORT 0x0
                0x0000000000000012        0x2 SHORT 0x0
                0x0000000000000014        0x2 SHORT 0x20 _start
                0x0000000000000016        0x2 SHORT 0xfffe ((((LOADADDR (.text) / 0x10) - __msdos_mz_hdr_paras) - (ADDR (.text) / 0x10)) + 0x10000)
                0x0000000000000018        0x2 SHORT 0x1c (__msdos_mz_rel_start - __msdos_mz_hdr_start)
                0x000000000000001a        0x2 SHORT 0x0
 *(.msdos_mz_hdr .msdos_mz_hdr.*)
                0x000000000000001c                __msdos_mz_rel_start = .
 *(.msdos_mz_reloc .msdos_mz_reloc.*)
 .msdos_mz_reloc.0
                0x000000000000001c       0x30 /tmp/ccx4UaLN.o
 .msdos_mz_reloc.0
                0x000000000000004c       0x58 /tmp/ccxEML8E.o
 .msdos_mz_reloc.0
                0x00000000000000a4        0x4 /tmp/ccdWvIGc.o
 .msdos_mz_reloc.0
                0x00000000000000a8       0x38 /tmp/ccr8wAuP.o
 .msdos_mz_reloc.0
                0x00000000000000e0       0x18 /tmp/ccrVjDZV.o
 .msdos_mz_reloc.0
                0x00000000000000f8      0x1ec /tmp/cczAorzb.o
 .msdos_mz_reloc.0
                0x00000000000002e4       0xb0 /tmp/ccRKBTkr.o
 .msdos_mz_reloc.0
                0x0000000000000394       0x1c /tmp/ccO3qzw4.o
 .msdos_mz_reloc.0
                0x00000000000003b0       0x30 /tmp/ccd4J8em.o
 .msdos_mz_reloc.0
                0x00000000000003e0       0xd8 /tmp/ccgwqY45.o
 .msdos_mz_reloc.0
                0x00000000000004b8      0x258 /tmp/ccdsAyBl.o
 .msdos_mz_reloc.0
                0x0000000000000710       0x18 /tmp/ccwCcec4.o
 .msdos_mz_reloc.0
                0x0000000000000728       0x60 /tmp/ccSifH9N.o
 .msdos_mz_reloc.0
                0x0000000000000788       0x30 /tmp/ccwNsiwv.o
 .msdos_mz_reloc.0
                0x00000000000007b8       0x50 /tmp/cc0OYEm1.o
 .msdos_mz_reloc.0
                0x0000000000000808      0x2fc /tmp/ccBS9DOf.o
 .msdos_mz_reloc.0
                0x0000000000000b04       0x68 /tmp/ccMbpb2d.o
 .msdos_mz_reloc.0
                0x0000000000000b6c       0x60 /tmp/cc2FB5MW.o
 .msdos_mz_reloc.0
                0x0000000000000bcc       0x50 /tmp/cczHazkj.o
 .msdos_mz_reloc.0
                0x0000000000000c1c      0x188 /tmp/cc0JoFl7.o
 .msdos_mz_reloc.0
                0x0000000000000da4       0x40 /tmp/ccUdflWr.o
 .msdos_mz_reloc.0
                0x0000000000000de4       0x40 /tmp/ccHBg70s.o
 .msdos_mz_reloc.0
                0x0000000000000e24       0xd4 /tmp/ccebu4yL.o
 .msdos_mz_reloc.0
                0x0000000000000ef8      0x194 /tmp/ccHDlBrQ.o
 .msdos_mz_reloc.0
                0x000000000000108c       0x34 /tmp/cckU1VC7.o
 .msdos_mz_reloc.0
                0x00000000000010c0       0xa8 /tmp/ccfeytV8.o
 .msdos_mz_reloc.0
                0x0000000000001168       0xd4 /tmp/ccloZeTM.o
 .msdos_mz_reloc.0
                0x000000000000123c      0x188 /tmp/ccyV2yGn.o
 .msdos_mz_reloc.0
                0x00000000000013c4       0x14 /tmp/ccEwe8Ga.o
 .msdos_mz_reloc.0
                0x00000000000013d8       0x34 /tmp/ccN6UUr8.o
 .msdos_mz_reloc.0
                0x000000000000140c       0x2c /tmp/ccrPLpfy.o
 .msdos_mz_reloc.0
                0x0000000000001438       0xb0 /tmp/ccZiZ62w.o
 .msdos_mz_reloc.0
                0x00000000000014e8       0x78 /tmp/ccjLIErg.o
 .msdos_mz_reloc.0
                0x0000000000001560       0x44 /tmp/ccmCZnzK.o
 .msdos_mz_reloc.0
                0x00000000000015a4       0x28 /tmp/cctz3Ysd.o
 .msdos_mz_reloc.0
                0x00000000000015cc       0x54 /tmp/ccMfMEUa.o
 .msdos_mz_reloc.0
                0x0000000000001620       0x78 /tmp/ccU4AkX7.o
 .msdos_mz_reloc.0
                0x0000000000001698       0x44 /tmp/ccbYhx0K.o
 .msdos_mz_reloc.0
                0x00000000000016dc       0x6c /tmp/ccnVnEoI.o
 .msdos_mz_reloc.0
                0x0000000000001748       0x5c /tmp/ccuVxVXF.o
 .msdos_mz_reloc.0
                0x00000000000017a4       0x2c /tmp/ccSVQz97.o
 .msdos_mz_reloc.0
                0x00000000000017d0       0x58 /tmp/ccAji60c.o
 .msdos_mz_reloc.0
                0x0000000000001828       0x18 /tmp/cc6ZXgwY.o
 .msdos_mz_reloc.0
                0x0000000000001840        0xc /tmp/ccxkHKx5.o
 .msdos_mz_reloc.0
                0x000000000000184c       0xe0 /tmp/ccez6CM4.o
 .msdos_mz_reloc.0
                0x000000000000192c       0x40 /tmp/ccsVuJZl.o
 .msdos_mz_reloc.0
                0x000000000000196c       0xf0 /tmp/ccn81c78.o
 .msdos_mz_reloc.0
                0x0000000000001a5c       0x80 /tmp/ccg57Tlx.o
 .msdos_mz_reloc.0
                0x0000000000001adc        0x4 /tmp/ccmrsGy9.o
 .msdos_mz_reloc.0
                0x0000000000001ae0       0x84 /tmp/ccxi7GyK.o
 .msdos_mz_reloc.0
                0x0000000000001b64       0x1c /tmp/ccFadrpy.o
 .msdos_mz_reloc.0
                0x0000000000001b80        0x8 /tmp/ccChX4pF.o
 .msdos_mz_reloc.0
                0x0000000000001b88       0x28 /tmp/cc1o6kRN.o
 .msdos_mz_reloc.0
                0x0000000000001bb0        0xc /tmp/ccKXMMCH.o
 .msdos_mz_reloc.0
                0x0000000000001bbc       0x14 /tmp/cc1jrtzy.o
 .msdos_mz_reloc.0
                0x0000000000001bd0        0x4 /usr/lib/x86_64-linux-gnu/gcc/ia16-elf/6.3.0/../../../../../ia16-elf/lib/medium/regparmcall/libi86.a(ffree.o)
 .msdos_mz_reloc.0
                0x0000000000001bd4        0x4 /usr/lib/x86_64-linux-gnu/gcc/ia16-elf/6.3.0/../../../../../ia16-elf/lib/medium/regparmcall/libi86.a(fmalloc.o)
 .msdos_mz_reloc.0
                0x0000000000001bd8        0x4 /usr/lib/x86_64-linux-gnu/gcc/ia16-elf/6.3.0/../../../../../ia16-elf/lib/medium/regparmcall/libi86.a(dos-allocmem.o)
 .msdos_mz_reloc.0
                0x0000000000001bdc        0x4 /usr/lib/x86_64-linux-gnu/gcc/ia16-elf/6.3.0/../../../../../ia16-elf/lib/medium/regparmcall/libi86.a(dos-freemem.o)
 .msdos_mz_reloc.0
                0x0000000000001be0        0x4 /usr/lib/x86_64-linux-gnu/gcc/ia16-elf/6.3.0/../../../../../ia16-elf/lib/medium/regparmcall/libi86.a(libi86-ret-really-set-errno.o)
 .msdos_mz_reloc.0
                0x0000000000001be4        0x4 /usr/lib/x86_64-linux-gnu/gcc/ia16-elf/6.3.0/../../../../../ia16-elf/lib/medium/regparmcall/iprtf-fw.a(i-sprintf.o)
 .msdos_mz_reloc.0
                0x0000000000001be8        0x4 /usr/lib/x86_64-linux-gnu/gcc/ia16-elf/6.3.0/../../../../../ia16-elf/lib/medium/regparmcall/iprtf-fw.a(i-fprintf.o)
 .msdos_mz_reloc.0
                0x0000000000001bec        0x4 /usr/lib/x86_64-linux-gnu/gcc/ia16-elf/6.3.0/../../../../../ia16-elf/lib/medium/regparmcall/iprtf-fw.a(i-printf.o)
 .msdos_mz_reloc.0
                0x0000000000001bf0        0x4 /usr/lib/x86_64-linux-gnu/gcc/ia16-elf/6.3.0/../../../../../ia16-elf/lib/medium/regparmcall/iprtf-fw.a(i-vprintf.o)
 .msdos_mz_reloc.0
                0x0000000000001bf4        0x4 /usr/lib/x86_64-linux-gnu/gcc/ia16-elf/6.3.0/../../../../../ia16-elf/lib/medium/regparmcall/iscnf-fw.a(i-sscanf.o)
 .msdos_mz_reloc.0
                0x0000000000001bf8        0x4 /usr/lib/x86_64-linux-gnu/gcc/ia16-elf/6.3.0/../../../../../ia16-elf/lib/medium/regparmcall/iscnf-fw.a(i-fscanf.o)
 .msdos_mz_reloc.0
                0x0000000000001bfc        0x8 /usr/lib/x86_64-linux-gnu/gcc/ia16-elf/6.3.0/medium/regparmcall/crtbegin.o
 .msdos_mz_reloc.0
                0x0000000000001c04        0x4 /usr/lib/x86_64-linux-gnu/gcc/ia16-elf/6.3.0/medium/regparmcall/crtend.o
 .msdos_mz_reloc.0
                0x0000000000001c08        0x8 /usr/lib/x86_64-linux-gnu/gcc/ia16-elf/6.3.0/../../../../../ia16-elf/lib/medium/regparmcall/dos-m-c0.o
 .msdos_mz_reloc.0
                0x0000000000001c10        0x8 /usr/lib/x86_64-linux-gnu/gcc/ia16-elf/6.3.0/../../../../../ia16-elf/lib/medium/regparmcall/libc.a(lib_a-atoi.o)
 .msdos_mz_reloc.0
                0x0000000000001c18        0x8 /usr/lib/x86_64-linux-gnu/gcc/ia16-elf/6.3.0/../../../../../ia16-elf/lib/medium/regparmcall/libc.a(lib_a-exit.o)
 .msdos_mz_reloc.0
                0x0000000000001c20       0x14 /usr/lib/x86_64-linux-gnu/gcc/ia16-elf/6.3.0/../../../../../ia16-elf/lib/medium/regparmcall/libc.a(lib_a-fclose.o)
 .msdos_mz_reloc.0
                0x0000000000001c34        0x4 /usr/lib/x86_64-linux-gnu/gcc/ia16-elf/6.3.0/../../../../../ia16-elf/lib/medium/regparmcall/libc.a(lib_a-feof.o)
 .msdos_mz_reloc.0
                0x0000000000001c38       0x10 /usr/lib/x86_64-linux-gnu/gcc/ia16-elf/6.3.0/../../../../../ia16-elf/lib/medium/regparmcall/libc.a(lib_a-fflush.o)
 .msdos_mz_reloc.0
                0x0000000000001c48       0x10 /usr/lib/x86_64-linux-gnu/gcc/ia16-elf/6.3.0/../../../../../ia16-elf/lib/medium/regparmcall/libc.a(lib_a-fgetc.o)
 .msdos_mz_reloc.0
                0x0000000000001c58       0x30 /usr/lib/x86_64-linux-gnu/gcc/ia16-elf/6.3.0/../../../../../ia16-elf/lib/medium/regparmcall/libc.a(lib_a-findfp.o)
 .msdos_mz_reloc.0
                0x0000000000001c88        0x8 /usr/lib/x86_64-linux-gnu/gcc/ia16-elf/6.3.0/../../../../../ia16-elf/lib/medium/regparmcall/libc.a(lib_a-fiprintf.o)
 .msdos_mz_reloc.0
                0x0000000000001c90        0x8 /usr/lib/x86_64-linux-gnu/gcc/ia16-elf/6.3.0/../../../../../ia16-elf/lib/medium/regparmcall/libc.a(lib_a-fiscanf.o)
 .msdos_mz_reloc.0
                0x0000000000001c98       0x24 /usr/lib/x86_64-linux-gnu/gcc/ia16-elf/6.3.0/../../../../../ia16-elf/lib/medium/regparmcall/libc.a(lib_a-fopen.o)
 .msdos_mz_reloc.0
                0x0000000000001cbc       0x1c /usr/lib/x86_64-linux-gnu/gcc/ia16-elf/6.3.0/../../../../../ia16-elf/lib/medium/regparmcall/libc.a(lib_a-fread.o)
 .msdos_mz_reloc.0
                0x0000000000001cd8        0x8 /usr/lib/x86_64-linux-gnu/gcc/ia16-elf/6.3.0/../../../../../ia16-elf/lib/medium/regparmcall/libc.a(lib_a-fseek.o)
 .msdos_mz_reloc.0
                0x0000000000001ce0       0x1c /usr/lib/x86_64-linux-gnu/gcc/ia16-elf/6.3.0/../../../../../ia16-elf/lib/medium/regparmcall/libc.a(lib_a-fseeko.o)
 .msdos_mz_reloc.0
                0x0000000000001cfc        0x8 /usr/lib/x86_64-linux-gnu/gcc/ia16-elf/6.3.0/../../../../../ia16-elf/lib/medium/regparmcall/libc.a(lib_a-fwrite.o)
 .msdos_mz_reloc.0
                0x0000000000001d04       0x14 /usr/lib/x86_64-linux-gnu/gcc/ia16-elf/6.3.0/../../../../../ia16-elf/lib/medium/regparmcall/libc.a(lib_a-getc.o)
 .msdos_mz_reloc.0
                0x0000000000001d18       0x10 /usr/lib/x86_64-linux-gnu/gcc/ia16-elf/6.3.0/../../../../../ia16-elf/lib/medium/regparmcall/libc.a(lib_a-iprintf.o)
 .msdos_mz_reloc.0
                0x0000000000001d28        0xc /usr/lib/x86_64-linux-gnu/gcc/ia16-elf/6.3.0/../../../../../ia16-elf/lib/medium/regparmcall/libc.a(lib_a-makebuf.o)
 .msdos_mz_reloc.0
                0x0000000000001d34        0x8 /usr/lib/x86_64-linux-gnu/gcc/ia16-elf/6.3.0/../../../../../ia16-elf/lib/medium/regparmcall/libc.a(lib_a-malloc.o)
 .msdos_mz_reloc.0
                0x0000000000001d3c       0x10 /usr/lib/x86_64-linux-gnu/gcc/ia16-elf/6.3.0/../../../../../ia16-elf/lib/medium/regparmcall/libc.a(lib_a-nano-freer.o)
 .msdos_mz_reloc.0
                0x0000000000001d4c       0x18 /usr/lib/x86_64-linux-gnu/gcc/ia16-elf/6.3.0/../../../../../ia16-elf/lib/medium/regparmcall/libc.a(lib_a-nano-mallocr.o)
 .msdos_mz_reloc.0
                0x0000000000001d64       0x10 /usr/lib/x86_64-linux-gnu/gcc/ia16-elf/6.3.0/../../../../../ia16-elf/lib/medium/regparmcall/libc.a(lib_a-putchar.o)
 .msdos_mz_reloc.0
                0x0000000000001d74       0x10 /usr/lib/x86_64-linux-gnu/gcc/ia16-elf/6.3.0/../../../../../ia16-elf/lib/medium/regparmcall/libc.a(lib_a-puts.o)
 .msdos_mz_reloc.0
                0x0000000000001d84       0x20 /usr/lib/x86_64-linux-gnu/gcc/ia16-elf/6.3.0/../../../../../ia16-elf/lib/medium/regparmcall/libc.a(lib_a-refill.o)
 .msdos_mz_reloc.0
                0x0000000000001da4        0x8 /usr/lib/x86_64-linux-gnu/gcc/ia16-elf/6.3.0/../../../../../ia16-elf/lib/medium/regparmcall/libc.a(lib_a-rget.o)
 .msdos_mz_reloc.0
                0x0000000000001dac        0x4 /usr/lib/x86_64-linux-gnu/gcc/ia16-elf/6.3.0/../../../../../ia16-elf/lib/medium/regparmcall/libc.a(lib_a-setbuf.o)
 .msdos_mz_reloc.0
                0x0000000000001db0       0x20 /usr/lib/x86_64-linux-gnu/gcc/ia16-elf/6.3.0/../../../../../ia16-elf/lib/medium/regparmcall/libc.a(lib_a-setvbuf.o)
 .msdos_mz_reloc.0
                0x0000000000001dd0        0x8 /usr/lib/x86_64-linux-gnu/gcc/ia16-elf/6.3.0/../../../../../ia16-elf/lib/medium/regparmcall/libc.a(lib_a-siprintf.o)
 .msdos_mz_reloc.0
                0x0000000000001dd8       0x18 /usr/lib/x86_64-linux-gnu/gcc/ia16-elf/6.3.0/../../../../../ia16-elf/lib/medium/regparmcall/libc.a(lib_a-siscanf.o)
 .msdos_mz_reloc.0
                0x0000000000001df0       0x18 /usr/lib/x86_64-linux-gnu/gcc/ia16-elf/6.3.0/../../../../../ia16-elf/lib/medium/regparmcall/libc.a(lib_a-stdio.o)
 .msdos_mz_reloc.0
                0x0000000000001e08        0x8 /usr/lib/x86_64-linux-gnu/gcc/ia16-elf/6.3.0/../../../../../ia16-elf/lib/medium/regparmcall/libc.a(lib_a-strtol.o)
 .msdos_mz_reloc.0
                0x0000000000001e10       0xa4 /usr/lib/x86_64-linux-gnu/gcc/ia16-elf/6.3.0/../../../../../ia16-elf/lib/medium/regparmcall/libc.a(lib_a-svfiprintf.o)
 .msdos_mz_reloc.0
                0x0000000000001eb4       0x64 /usr/lib/x86_64-linux-gnu/gcc/ia16-elf/6.3.0/../../../../../ia16-elf/lib/medium/regparmcall/libc.a(lib_a-svfiscanf.o)
 .msdos_mz_reloc.0
                0x0000000000001f18        0x4 /usr/lib/x86_64-linux-gnu/gcc/ia16-elf/6.3.0/../../../../../ia16-elf/lib/medium/regparmcall/libc.a(lib_a-sysclose.o)
 .msdos_mz_reloc.0
                0x0000000000001f1c        0x4 /usr/lib/x86_64-linux-gnu/gcc/ia16-elf/6.3.0/../../../../../ia16-elf/lib/medium/regparmcall/libc.a(lib_a-sysisatty.o)
 .msdos_mz_reloc.0
                0x0000000000001f20        0x4 /usr/lib/x86_64-linux-gnu/gcc/ia16-elf/6.3.0/../../../../../ia16-elf/lib/medium/regparmcall/libc.a(lib_a-syslseek.o)
 .msdos_mz_reloc.0
                0x0000000000001f24        0x4 /usr/lib/x86_64-linux-gnu/gcc/ia16-elf/6.3.0/../../../../../ia16-elf/lib/medium/regparmcall/libc.a(lib_a-sysopen.o)
 .msdos_mz_reloc.0
                0x0000000000001f28        0x4 /usr/lib/x86_64-linux-gnu/gcc/ia16-elf/6.3.0/../../../../../ia16-elf/lib/medium/regparmcall/libc.a(lib_a-sysread.o)
 .msdos_mz_reloc.0
                0x0000000000001f2c        0x4 /usr/lib/x86_64-linux-gnu/gcc/ia16-elf/6.3.0/../../../../../ia16-elf/lib/medium/regparmcall/libc.a(lib_a-syswrite.o)
 .msdos_mz_reloc.0
                0x0000000000001f30       0x14 /usr/lib/x86_64-linux-gnu/gcc/ia16-elf/6.3.0/../../../../../ia16-elf/lib/medium/regparmcall/libc.a(lib_a-ungetc.o)
 .msdos_mz_reloc.0
                0x0000000000001f44       0xa8 /usr/lib/x86_64-linux-gnu/gcc/ia16-elf/6.3.0/../../../../../ia16-elf/lib/medium/regparmcall/libc.a(lib_a-vfiprintf.o)
 .msdos_mz_reloc.0
                0x0000000000001fec       0x98 /usr/lib/x86_64-linux-gnu/gcc/ia16-elf/6.3.0/../../../../../ia16-elf/lib/medium/regparmcall/libc.a(lib_a-vfiscanf.o)
 .msdos_mz_reloc.0
                0x0000000000002084       0x10 /usr/lib/x86_64-linux-gnu/gcc/ia16-elf/6.3.0/../../../../../ia16-elf/lib/medium/regparmcall/libc.a(lib_a-viprintf.o)
 .msdos_mz_reloc.0
                0x0000000000002094        0xc /usr/lib/x86_64-linux-gnu/gcc/ia16-elf/6.3.0/../../../../../ia16-elf/lib/medium/regparmcall/libc.a(lib_a-wcrtomb.o)
 .msdos_mz_reloc.0
                0x00000000000020a0        0x8 /usr/lib/x86_64-linux-gnu/gcc/ia16-elf/6.3.0/../../../../../ia16-elf/lib/medium/regparmcall/libc.a(lib_a-wcsrtombs.o)
 .msdos_mz_reloc.0
                0x00000000000020a8        0x8 /usr/lib/x86_64-linux-gnu/gcc/ia16-elf/6.3.0/../../../../../ia16-elf/lib/medium/regparmcall/libc.a(lib_a-wctomb_r.o)
 .msdos_mz_reloc.0
                0x00000000000020b0        0xc /usr/lib/x86_64-linux-gnu/gcc/ia16-elf/6.3.0/../../../../../ia16-elf/lib/medium/regparmcall/libc.a(lib_a-wsetup.o)
 .msdos_mz_reloc.0
                0x00000000000020bc        0xc /usr/lib/x86_64-linux-gnu/gcc/ia16-elf/6.3.0/../../../../../ia16-elf/lib/medium/regparmcall/libc.a(lib_a-__call_atexit.o)
 .msdos_mz_reloc.0
                0x00000000000020c8       0x38 /usr/lib/x86_64-linux-gnu/gcc/ia16-elf/6.3.0/../../../../../ia16-elf/lib/medium/regparmcall/libc.a(lib_a-fvwrite.o)
 .msdos_mz_reloc.0
                0x0000000000002100        0x4 /usr/lib/x86_64-linux-gnu/gcc/ia16-elf/6.3.0/../../../../../ia16-elf/lib/medium/regparmcall/libc.a(lib_a-iswspace.o)
 .msdos_mz_reloc.0
                0x0000000000002104       0x18 /usr/lib/x86_64-linux-gnu/gcc/ia16-elf/6.3.0/../../../../../ia16-elf/lib/medium/regparmcall/libc.a(lib_a-jp2uc.o)
 .msdos_mz_reloc.0
                0x000000000000211c      0x144 /usr/lib/x86_64-linux-gnu/gcc/ia16-elf/6.3.0/../../../../../ia16-elf/lib/medium/regparmcall/libc.a(lib_a-locale.o)
 .msdos_mz_reloc.0
                0x0000000000002260        0xc /usr/lib/x86_64-linux-gnu/gcc/ia16-elf/6.3.0/../../../../../ia16-elf/lib/medium/regparmcall/libc.a(lib_a-mbrtowc.o)
 .msdos_mz_reloc.0
                0x000000000000226c        0x8 /usr/lib/x86_64-linux-gnu/gcc/ia16-elf/6.3.0/../../../../../ia16-elf/lib/medium/regparmcall/libc.a(lib_a-mbtowc_r.o)
 .msdos_mz_reloc.0
                0x0000000000002274       0x18 /usr/lib/x86_64-linux-gnu/gcc/ia16-elf/6.3.0/../../../../../ia16-elf/lib/medium/regparmcall/libc.a(lib_a-nano-reallocr.o)
 .msdos_mz_reloc.0
                0x000000000000228c        0x8 /usr/lib/x86_64-linux-gnu/gcc/ia16-elf/6.3.0/../../../../../ia16-elf/lib/medium/regparmcall/libc.a(lib_a-putc.o)
 .msdos_mz_reloc.0
                0x0000000000002294        0x4 /usr/lib/x86_64-linux-gnu/gcc/ia16-elf/6.3.0/../../../../../ia16-elf/lib/medium/regparmcall/libc.a(lib_a-sprintr.o)
 .msdos_mz_reloc.0
                0x0000000000002298       0x14 /usr/lib/x86_64-linux-gnu/gcc/ia16-elf/6.3.0/../../../../../ia16-elf/lib/medium/regparmcall/libc.a(lib_a-ssprintr.o)
 .msdos_mz_reloc.0
                0x00000000000022ac       0x10 /usr/lib/x86_64-linux-gnu/gcc/ia16-elf/6.3.0/../../../../../ia16-elf/lib/medium/regparmcall/libc.a(lib_a-strtoll_r.o)
 .msdos_mz_reloc.0
                0x00000000000022bc        0x8 /usr/lib/x86_64-linux-gnu/gcc/ia16-elf/6.3.0/../../../../../ia16-elf/lib/medium/regparmcall/libc.a(lib_a-strtoul.o)
 .msdos_mz_reloc.0
                0x00000000000022c4       0x10 /usr/lib/x86_64-linux-gnu/gcc/ia16-elf/6.3.0/../../../../../ia16-elf/lib/medium/regparmcall/libc.a(lib_a-strtoull_r.o)
 .msdos_mz_reloc.0
                0x00000000000022d4       0x10 /usr/lib/x86_64-linux-gnu/gcc/ia16-elf/6.3.0/../../../../../ia16-elf/lib/medium/regparmcall/libc.a(lib_a-wbuf.o)
 .msdos_mz_reloc.0
                0x00000000000022e4        0x8 /usr/lib/x86_64-linux-gnu/gcc/ia16-elf/6.3.0/../../../../../ia16-elf/lib/medium/regparmcall/libc.a(lib_a-wcsnrtombs.o)
 .msdos_mz_reloc.0
                0x00000000000022ec       0x10 /usr/lib/x86_64-linux-gnu/gcc/ia16-elf/6.3.0/../../../../../ia16-elf/lib/medium/regparmcall/libc.a(lib_a-getenv_r.o)
 .msdos_mz_reloc.0
                0x00000000000022fc       0x10 /usr/lib/x86_64-linux-gnu/gcc/ia16-elf/6.3.0/medium/regparmcall/libgcc.a(_lshrdi3.o)
 .msdos_mz_reloc.0
                0x000000000000230c       0x10 /usr/lib/x86_64-linux-gnu/gcc/ia16-elf/6.3.0/medium/regparmcall/libgcc.a(_ashldi3.o)
 .msdos_mz_reloc.0
                0x000000000000231c       0x90 /usr/lib/x86_64-linux-gnu/gcc/ia16-elf/6.3.0/medium/regparmcall/libgcc.a(_divdi3.o)
 .msdos_mz_reloc.0
                0x00000000000023ac       0x90 /usr/lib/x86_64-linux-gnu/gcc/ia16-elf/6.3.0/medium/regparmcall/libgcc.a(_udivdi3.o)
 .msdos_mz_reloc.0
                0x000000000000243c       0xa0 /usr/lib/x86_64-linux-gnu/gcc/ia16-elf/6.3.0/medium/regparmcall/libgcc.a(_umoddi3.o)
 .msdos_mz_reloc.0
                0x00000000000024dc        0xc /usr/lib/x86_64-linux-gnu/gcc/ia16-elf/6.3.0/../../../../../ia16-elf/lib/medium/regparmcall/libdos-m.a(dos-access.o)
 .msdos_mz_reloc.0
                0x00000000000024e8        0xc /usr/lib/x86_64-linux-gnu/gcc/ia16-elf/6.3.0/../../../../../ia16-elf/lib/medium/regparmcall/libdos-m.a(dos-openr.o)
 .msdos_mz_reloc.0
                0x00000000000024f4        0x4 /usr/lib/x86_64-linux-gnu/gcc/ia16-elf/6.3.0/../../../../../ia16-elf/lib/medium/regparmcall/libdos-m.a(dos-sbrkr.o)
 .msdos_mz_reloc.0
                0x00000000000024f8        0x4 /usr/lib/x86_64-linux-gnu/gcc/ia16-elf/6.3.0/../../../../../ia16-elf/lib/medium/regparmcall/libdos-m.a(dos-msmmabort.o)
 .msdos_mz_reloc.0
                0x00000000000024fc        0x4 /usr/lib/x86_64-linux-gnu/gcc/ia16-elf/6.3.0/../../../../../ia16-elf/lib/medium/regparmcall/libdos-m.a(dos-near-data-segment.o)
 .msdos_mz_reloc.0
                0x0000000000002500       0x10 /usr/lib/x86_64-linux-gnu/gcc/ia16-elf/6.3.0/../../../../../ia16-elf/lib/medium/regparmcall/libc.a(lib_a-abort.o)
                0x0000000000002510                __msdos_mz_rel_end = .
                0x000000000000093d                __msdos_mz_rels = ((. - __msdos_mz_rel_start) / 0x4)
                0x0000000000002510                . = DEFINED (__msdos_handle_v1)?ALIGN (0x200):.
                0x0000000000000251                __msdos_mz_hdr_paras = (((. - __msdos_mz_hdr_start) + 0xf) / 0x10)
                0x0000000000002510                . = ALIGN (0x10)
                0x0000000000000001                ASSERT ((((__msdos_mz_rel_end - __msdos_mz_rel_start) % 0x4) == 0x0), Error: MZ relocations are not 4-byte aligned)
                0x0000000000000001                ASSERT ((__msdos_mz_rels <= 0xffff), Error: too many MZ relocations)

.text           0x0000000000000020      0x230 load address 0x0000000000002510
                0x0000000000000020                __stext = .
 *(.startupA)
 .startupA      0x0000000000000020        0x0 /usr/lib/x86_64-linux-gnu/gcc/ia16-elf/6.3.0/../../../../../ia16-elf/lib/medium/regparmcall/dos-m-c0.o
                0x0000000000000020                _start
 *(.startupB)
 *(.startupC)
 .startupC      0x0000000000000020        0x8 /usr/lib/x86_64-linux-gnu/gcc/ia16-elf/6.3.0/../../../../../ia16-elf/lib/medium/regparmcall/dos-m-c0.o
 *(.msdos_init)
 *(.msdos_init.*)
 *(.msdos_initA)
 *(.msdos_initA.*)
 *(.startupD)
 .startupD      0x0000000000000028        0xf /usr/lib/x86_64-linux-gnu/gcc/ia16-elf/6.3.0/../../../../../ia16-elf/lib/medium/regparmcall/dos-m-c0.o
 *(.msdos_initB)
 *(.msdos_initB.*)
 *(.startupE)
 .startupE      0x0000000000000037       0xab /usr/lib/x86_64-linux-gnu/gcc/ia16-elf/6.3.0/../../../../../ia16-elf/lib/medium/regparmcall/dos-m-c0.o
 *(.preinit)
 .preinit       0x00000000000000e2        0x4 /usr/lib/x86_64-linux-gnu/gcc/ia16-elf/6.3.0/../../../../../ia16-elf/lib/medium/regparmcall/libdos-m.a(dos-environ.o)
 *(.preinit.*)
 *(.init)
 .init          0x00000000000000e6        0x5 /usr/lib/x86_64-linux-gnu/gcc/ia16-elf/6.3.0/medium/regparmcall/crtbegin.o
 .init          0x00000000000000eb        0x5 /usr/lib/x86_64-linux-gnu/gcc/ia16-elf/6.3.0/medium/regparmcall/crtend.o
 *(.startupF)
 .startupF      0x00000000000000f0       0x7a /usr/lib/x86_64-linux-gnu/gcc/ia16-elf/6.3.0/../../../../../ia16-elf/lib/medium/regparmcall/dos-m-c0.o
 *(.exitA)
 .exitA         0x000000000000016a        0x1 /usr/lib/x86_64-linux-gnu/gcc/ia16-elf/6.3.0/../../../../../ia16-elf/lib/medium/regparmcall/dos-m-c0.o
                0x000000000000016a                _exit
 *(.fini)
 .fini          0x000000000000016b        0x5 /usr/lib/x86_64-linux-gnu/gcc/ia16-elf/6.3.0/medium/regparmcall/crtbegin.o
 *(.exitB)
 .exitB         0x0000000000000170        0x5 /usr/lib/x86_64-linux-gnu/gcc/ia16-elf/6.3.0/../../../../../ia16-elf/lib/medium/regparmcall/dos-m-c0.o
                0x0000000000000171                __msdos_crt_exit
 *(.text)
 .text          0x0000000000000175        0x0 /tmp/ccx4UaLN.o
 .text          0x0000000000000175        0x0 /tmp/ccxEML8E.o
 .text          0x0000000000000175        0x0 /tmp/ccdWvIGc.o
 .text          0x0000000000000175        0x0 /tmp/ccr8wAuP.o
 .text          0x0000000000000175        0x0 /tmp/ccrVjDZV.o
 .text          0x0000000000000175        0x0 /tmp/ccmI9gWq.o
 .text          0x0000000000000175        0x0 /tmp/ccWnJyBJ.o
 .text          0x0000000000000175        0x0 /tmp/cczAorzb.o
 .text          0x0000000000000175        0x0 /tmp/ccRKBTkr.o
 .text          0x0000000000000175        0x0 /tmp/ccO3qzw4.o
 .text          0x0000000000000175        0x0 /tmp/ccd4J8em.o
 .text          0x0000000000000175        0x0 /tmp/ccgwqY45.o
 .text          0x0000000000000175        0x0 /tmp/ccdsAyBl.o
 .text          0x0000000000000175        0x0 /tmp/ccwCcec4.o
 .text          0x0000000000000175        0x0 /tmp/ccRwwzkV.o
 .text          0x0000000000000175        0x0 /tmp/ccSifH9N.o
 .text          0x0000000000000175        0x0 /tmp/ccwNsiwv.o
 .text          0x0000000000000175        0x0 /tmp/cc0OYEm1.o
 .text          0x0000000000000175        0x0 /tmp/ccBS9DOf.o
 .text          0x0000000000000175        0x0 /tmp/ccMbpb2d.o
 .text          0x0000000000000175        0x0 /tmp/cc2FB5MW.o
 .text          0x0000000000000175        0x0 /tmp/cczHazkj.o
 .text          0x0000000000000175        0x0 /tmp/cc0JoFl7.o
 .text          0x0000000000000175        0x0 /tmp/ccUdflWr.o
 .text          0x0000000000000175        0x0 /tmp/ccHBg70s.o
 .text          0x0000000000000175        0x0 /tmp/ccebu4yL.o
 .text          0x0000000000000175        0x0 /tmp/ccHDlBrQ.o
 .text          0x0000000000000175        0x0 /tmp/cckU1VC7.o
 .text          0x0000000000000175        0x0 /tmp/ccfeytV8.o
 .text          0x0000000000000175        0x0 /tmp/ccloZeTM.o
 .text          0x0000000000000175        0x0 /tmp/ccyV2yGn.o
 .text          0x0000000000000175        0x0 /tmp/ccEwe8Ga.o
 .text          0x0000000000000175        0x0 /tmp/ccuOrYlb.o
 .text          0x0000000000000175        0x0 /tmp/ccN6UUr8.o
 .text          0x0000000000000175        0x0 /tmp/ccrPLpfy.o
 .text          0x0000000000000175        0x0 /tmp/ccZiZ62w.o
 .text          0x0000000000000175        0x0 /tmp/ccjLIErg.o
 .text          0x0000000000000175        0x0 /tmp/ccmCZnzK.o
 .text          0x0000000000000175        0x0 /tmp/cctz3Ysd.o
 .text          0x0000000000000175        0x0 /tmp/ccMfMEUa.o
 .text          0x0000000000000175        0x0 /tmp/ccU4AkX7.o
 .text          0x0000000000000175        0x0 /tmp/ccbYhx0K.o
 .text          0x0000000000000175        0x0 /tmp/ccnVnEoI.o
 .text          0x0000000000000175        0x0 /tmp/ccuVxVXF.o
 .text          0x0000000000000175        0x0 /tmp/ccSVQz97.o
 .text          0x0000000000000175        0x0 /tmp/ccAji60c.o
 .text          0x0000000000000175        0x0 /tmp/cc6ZXgwY.o
 .text          0x0000000000000175        0x0 /tmp/ccxkHKx5.o
 .text          0x0000000000000175        0x0 /tmp/ccez6CM4.o
 .text          0x0000000000000175        0x0 /tmp/ccsVuJZl.o
 .text          0x0000000000000175        0x0 /tmp/ccn81c78.o
 .text          0x0000000000000175        0x0 /tmp/ccg57Tlx.o
 .text          0x0000000000000175        0x0 /tmp/ccmrsGy9.o
 .text          0x0000000000000175        0x0 /tmp/ccxi7GyK.o
 .text          0x0000000000000175        0x0 /tmp/ccFadrpy.o
 .text          0x0000000000000175        0x0 /tmp/ccChX4pF.o
 .text          0x0000000000000175        0x0 /tmp/cc1o6kRN.o
 .text          0x0000000000000175        0x0 /tmp/ccKXMMCH.o
 .text          0x0000000000000175        0x0 /tmp/ccooxdNr.o
 .text          0x0000000000000175        0x0 /tmp/cc5KyAj2.o
 .text          0x0000000000000175        0x0 /tmp/ccVoZS4i.o
 .text          0x0000000000000175        0x0 /tmp/ccQEdboh.o
 .text          0x0000000000000175        0x0 /tmp/ccqxWioq.o
 .text          0x0000000000000175        0x0 /tmp/ccedHFxF.o
 .text          0x0000000000000175        0x0 /tmp/ccCXOkep.o
 .text          0x0000000000000175        0x0 /tmp/cc1jrtzy.o
 .text          0x0000000000000175       0x54 /usr/lib/x86_64-linux-gnu/gcc/ia16-elf/6.3.0/../../../../../ia16-elf/lib/medium/regparmcall/libi86.a(libi86-int86-do.o)
                0x0000000000000175                __libi86_int86_do
 .text          0x00000000000001c9       0x6f /usr/lib/x86_64-linux-gnu/gcc/ia16-elf/6.3.0/../../../../../ia16-elf/lib/medium/regparmcall/libi86.a(libi86-int86x-do.o)
                0x00000000000001c9                __libi86_int86x_do
 .text          0x0000000000000238        0x3 /usr/lib/x86_64-linux-gnu/gcc/ia16-elf/6.3.0/../../../../../ia16-elf/lib/medium/regparmcall/libi86.a(libi86-intr-call-0020.o)
                0x0000000000000238                __libi86_intr_call_0020
 .text          0x000000000000023b        0x3 /usr/lib/x86_64-linux-gnu/gcc/ia16-elf/6.3.0/../../../../../ia16-elf/lib/medium/regparmcall/libi86.a(libi86-intr-call-0041.o)
                0x000000000000023b                __libi86_intr_call_0041
 .text          0x000000000000023e        0x3 /usr/lib/x86_64-linux-gnu/gcc/ia16-elf/6.3.0/../../../../../ia16-elf/lib/medium/regparmcall/libi86.a(libi86-intr-call-0063.o)
                0x000000000000023e                __libi86_intr_call_0063
 .text          0x0000000000000241        0x3 /usr/lib/x86_64-linux-gnu/gcc/ia16-elf/6.3.0/../../../../../ia16-elf/lib/medium/regparmcall/libi86.a(libi86-intr-call-0147.o)
                0x0000000000000241                __libi86_intr_call_0147
 .text          0x0000000000000244        0x0 /usr/lib/x86_64-linux-gnu/gcc/ia16-elf/6.3.0/../../../../../ia16-elf/lib/medium/regparmcall/libi86.a(fmemcpy.o)
 .text          0x0000000000000244        0x0 /usr/lib/x86_64-linux-gnu/gcc/ia16-elf/6.3.0/../../../../../ia16-elf/lib/medium/regparmcall/libi86.a(fmemset.o)
 .text          0x0000000000000244        0x0 /usr/lib/x86_64-linux-gnu/gcc/ia16-elf/6.3.0/../../../../../ia16-elf/lib/medium/regparmcall/libi86.a(dos-getvect.o)
 .text          0x0000000000000244        0x0 /usr/lib/x86_64-linux-gnu/gcc/ia16-elf/6.3.0/../../../../../ia16-elf/lib/medium/regparmcall/libi86.a(dos-setvect.o)
 .text          0x0000000000000244        0x0 /usr/lib/x86_64-linux-gnu/gcc/ia16-elf/6.3.0/../../../../../ia16-elf/lib/medium/regparmcall/libi86.a(ffree.o)
 .text          0x0000000000000244        0x0 /usr/lib/x86_64-linux-gnu/gcc/ia16-elf/6.3.0/../../../../../ia16-elf/lib/medium/regparmcall/libi86.a(fmalloc.o)
 .text          0x0000000000000244        0x0 /usr/lib/x86_64-linux-gnu/gcc/ia16-elf/6.3.0/../../../../../ia16-elf/lib/medium/regparmcall/libi86.a(dos-allocmem.o)
 .text          0x0000000000000244        0x0 /usr/lib/x86_64-linux-gnu/gcc/ia16-elf/6.3.0/../../../../../ia16-elf/lib/medium/regparmcall/libi86.a(dos-freemem.o)
 .text          0x0000000000000244        0x0 /usr/lib/x86_64-linux-gnu/gcc/ia16-elf/6.3.0/../../../../../ia16-elf/lib/medium/regparmcall/libi86.a(libi86-ret-really-set-errno.o)
 .text          0x0000000000000244        0x0 /usr/lib/x86_64-linux-gnu/gcc/ia16-elf/6.3.0/../../../../../ia16-elf/lib/medium/regparmcall/tprtf-fw.a(t-sprintf.o)
 .text          0x0000000000000244        0x0 /usr/lib/x86_64-linux-gnu/gcc/ia16-elf/6.3.0/../../../../../ia16-elf/lib/medium/regparmcall/tprtf-fw.a(t-fprintf.o)
 .text          0x0000000000000244        0x0 /usr/lib/x86_64-linux-gnu/gcc/ia16-elf/6.3.0/../../../../../ia16-elf/lib/medium/regparmcall/tprtf-fw.a(t-printf.o)
 .text          0x0000000000000244        0x0 /usr/lib/x86_64-linux-gnu/gcc/ia16-elf/6.3.0/../../../../../ia16-elf/lib/medium/regparmcall/tprtf-fw.a(t-vprintf.o)
 .text          0x0000000000000244        0x0 /usr/lib/x86_64-linux-gnu/gcc/ia16-elf/6.3.0/../../../../../ia16-elf/lib/medium/regparmcall/tscnf-fw.a(t-sscanf.o)
 .text          0x0000000000000244        0x0 /usr/lib/x86_64-linux-gnu/gcc/ia16-elf/6.3.0/../../../../../ia16-elf/lib/medium/regparmcall/tscnf-fw.a(t-fscanf.o)
 .text          0x0000000000000244        0x0 /usr/lib/x86_64-linux-gnu/gcc/ia16-elf/6.3.0/../../../../../ia16-elf/lib/medium/regparmcall/iprtf-fw.a(i-sprintf.o)
 .text          0x0000000000000244        0x0 /usr/lib/x86_64-linux-gnu/gcc/ia16-elf/6.3.0/../../../../../ia16-elf/lib/medium/regparmcall/iprtf-fw.a(i-fprintf.o)
 .text          0x0000000000000244        0x0 /usr/lib/x86_64-linux-gnu/gcc/ia16-elf/6.3.0/../../../../../ia16-elf/lib/medium/regparmcall/iprtf-fw.a(i-printf.o)
 .text          0x0000000000000244        0x0 /usr/lib/x86_64-linux-gnu/gcc/ia16-elf/6.3.0/../../../../../ia16-elf/lib/medium/regparmcall/iprtf-fw.a(i-vprintf.o)
 .text          0x0000000000000244        0x0 /usr/lib/x86_64-linux-gnu/gcc/ia16-elf/6.3.0/../../../../../ia16-elf/lib/medium/regparmcall/iscnf-fw.a(i-sscanf.o)
 .text          0x0000000000000244        0x0 /usr/lib/x86_64-linux-gnu/gcc/ia16-elf/6.3.0/../../../../../ia16-elf/lib/medium/regparmcall/iscnf-fw.a(i-fscanf.o)
 .text          0x0000000000000244        0x0 /usr/lib/x86_64-linux-gnu/gcc/ia16-elf/6.3.0/medium/regparmcall/crtbegin.o
 .text          0x0000000000000244        0x0 /usr/lib/x86_64-linux-gnu/gcc/ia16-elf/6.3.0/medium/regparmcall/crtend.o
 .text          0x0000000000000244        0x0 /usr/lib/x86_64-linux-gnu/gcc/ia16-elf/6.3.0/../../../../../ia16-elf/lib/medium/regparmcall/dos-m-c0.o
 .text          0x0000000000000244        0x0 /usr/lib/x86_64-linux-gnu/gcc/ia16-elf/6.3.0/../../../../../ia16-elf/lib/medium/regparmcall/libc.a(lib_a-atoi.o)
 .text          0x0000000000000244        0x0 /usr/lib/x86_64-linux-gnu/gcc/ia16-elf/6.3.0/../../../../../ia16-elf/lib/medium/regparmcall/libc.a(lib_a-ctype_.o)
 .text          0x0000000000000244        0x0 /usr/lib/x86_64-linux-gnu/gcc/ia16-elf/6.3.0/../../../../../ia16-elf/lib/medium/regparmcall/libc.a(lib_a-errno.o)
 .text          0x0000000000000244        0x0 /usr/lib/x86_64-linux-gnu/gcc/ia16-elf/6.3.0/../../../../../ia16-elf/lib/medium/regparmcall/libc.a(lib_a-exit.o)
 .text          0x0000000000000244        0x0 /usr/lib/x86_64-linux-gnu/gcc/ia16-elf/6.3.0/../../../../../ia16-elf/lib/medium/regparmcall/libc.a(lib_a-fclose.o)
 .text          0x0000000000000244        0x0 /usr/lib/x86_64-linux-gnu/gcc/ia16-elf/6.3.0/../../../../../ia16-elf/lib/medium/regparmcall/libc.a(lib_a-feof.o)
 .text          0x0000000000000244        0x0 /usr/lib/x86_64-linux-gnu/gcc/ia16-elf/6.3.0/../../../../../ia16-elf/lib/medium/regparmcall/libc.a(lib_a-fflush.o)
 .text          0x0000000000000244        0x0 /usr/lib/x86_64-linux-gnu/gcc/ia16-elf/6.3.0/../../../../../ia16-elf/lib/medium/regparmcall/libc.a(lib_a-fgetc.o)
 .text          0x0000000000000244        0x0 /usr/lib/x86_64-linux-gnu/gcc/ia16-elf/6.3.0/../../../../../ia16-elf/lib/medium/regparmcall/libc.a(lib_a-findfp.o)
 .text          0x0000000000000244        0x0 /usr/lib/x86_64-linux-gnu/gcc/ia16-elf/6.3.0/../../../../../ia16-elf/lib/medium/regparmcall/libc.a(lib_a-fiprintf.o)
 .text          0x0000000000000244        0x0 /usr/lib/x86_64-linux-gnu/gcc/ia16-elf/6.3.0/../../../../../ia16-elf/lib/medium/regparmcall/libc.a(lib_a-fiscanf.o)
 .text          0x0000000000000244        0x0 /usr/lib/x86_64-linux-gnu/gcc/ia16-elf/6.3.0/../../../../../ia16-elf/lib/medium/regparmcall/libc.a(lib_a-fopen.o)
 .text          0x0000000000000244        0x0 /usr/lib/x86_64-linux-gnu/gcc/ia16-elf/6.3.0/../../../../../ia16-elf/lib/medium/regparmcall/libc.a(lib_a-fread.o)
 .text          0x0000000000000244        0x0 /usr/lib/x86_64-linux-gnu/gcc/ia16-elf/6.3.0/../../../../../ia16-elf/lib/medium/regparmcall/libc.a(lib_a-fseek.o)
 .text          0x0000000000000244        0x0 /usr/lib/x86_64-linux-gnu/gcc/ia16-elf/6.3.0/../../../../../ia16-elf/lib/medium/regparmcall/libc.a(lib_a-fseeko.o)
 .text          0x0000000000000244        0x0 /usr/lib/x86_64-linux-gnu/gcc/ia16-elf/6.3.0/../../../../../ia16-elf/lib/medium/regparmcall/libc.a(lib_a-fwalk.o)
 .text          0x0000000000000244        0x0 /usr/lib/x86_64-linux-gnu/gcc/ia16-elf/6.3.0/../../../../../ia16-elf/lib/medium/regparmcall/libc.a(lib_a-fwrite.o)
 .text          0x0000000000000244        0x0 /usr/lib/x86_64-linux-gnu/gcc/ia16-elf/6.3.0/../../../../../ia16-elf/lib/medium/regparmcall/libc.a(lib_a-getc.o)
 .text          0x0000000000000244        0x0 /usr/lib/x86_64-linux-gnu/gcc/ia16-elf/6.3.0/../../../../../ia16-elf/lib/medium/regparmcall/libc.a(lib_a-impure.o)
 .text          0x0000000000000244        0x0 /usr/lib/x86_64-linux-gnu/gcc/ia16-elf/6.3.0/../../../../../ia16-elf/lib/medium/regparmcall/libc.a(lib_a-iprintf.o)
 .text          0x0000000000000244        0x0 /usr/lib/x86_64-linux-gnu/gcc/ia16-elf/6.3.0/../../../../../ia16-elf/lib/medium/regparmcall/libc.a(lib_a-makebuf.o)
 .text          0x0000000000000244        0x0 /usr/lib/x86_64-linux-gnu/gcc/ia16-elf/6.3.0/../../../../../ia16-elf/lib/medium/regparmcall/libc.a(lib_a-malloc.o)
 .text          0x0000000000000244        0x0 /usr/lib/x86_64-linux-gnu/gcc/ia16-elf/6.3.0/../../../../../ia16-elf/lib/medium/regparmcall/libc.a(lib_a-memcpy.o)
 .text          0x0000000000000244        0x0 /usr/lib/x86_64-linux-gnu/gcc/ia16-elf/6.3.0/../../../../../ia16-elf/lib/medium/regparmcall/libc.a(lib_a-memmove.o)
 .text          0x0000000000000244        0x0 /usr/lib/x86_64-linux-gnu/gcc/ia16-elf/6.3.0/../../../../../ia16-elf/lib/medium/regparmcall/libc.a(lib_a-memset.o)
 .text          0x0000000000000244        0x0 /usr/lib/x86_64-linux-gnu/gcc/ia16-elf/6.3.0/../../../../../ia16-elf/lib/medium/regparmcall/libc.a(lib_a-nano-freer.o)
 .text          0x0000000000000244        0x0 /usr/lib/x86_64-linux-gnu/gcc/ia16-elf/6.3.0/../../../../../ia16-elf/lib/medium/regparmcall/libc.a(lib_a-nano-mallocr.o)
 .text          0x0000000000000244        0x0 /usr/lib/x86_64-linux-gnu/gcc/ia16-elf/6.3.0/../../../../../ia16-elf/lib/medium/regparmcall/libc.a(lib_a-putchar.o)
 .text          0x0000000000000244        0x0 /usr/lib/x86_64-linux-gnu/gcc/ia16-elf/6.3.0/../../../../../ia16-elf/lib/medium/regparmcall/libc.a(lib_a-puts.o)
 .text          0x0000000000000244        0x0 /usr/lib/x86_64-linux-gnu/gcc/ia16-elf/6.3.0/../../../../../ia16-elf/lib/medium/regparmcall/libc.a(lib_a-refill.o)
 .text          0x0000000000000244        0x0 /usr/lib/x86_64-linux-gnu/gcc/ia16-elf/6.3.0/../../../../../ia16-elf/lib/medium/regparmcall/libc.a(lib_a-rget.o)
 .text          0x0000000000000244        0x0 /usr/lib/x86_64-linux-gnu/gcc/ia16-elf/6.3.0/../../../../../ia16-elf/lib/medium/regparmcall/libc.a(lib_a-setbuf.o)
 .text          0x0000000000000244        0x0 /usr/lib/x86_64-linux-gnu/gcc/ia16-elf/6.3.0/../../../../../ia16-elf/lib/medium/regparmcall/libc.a(lib_a-setvbuf.o)
 .text          0x0000000000000244        0x0 /usr/lib/x86_64-linux-gnu/gcc/ia16-elf/6.3.0/../../../../../ia16-elf/lib/medium/regparmcall/libc.a(lib_a-siprintf.o)
 .text          0x0000000000000244        0x0 /usr/lib/x86_64-linux-gnu/gcc/ia16-elf/6.3.0/../../../../../ia16-elf/lib/medium/regparmcall/libc.a(lib_a-siscanf.o)
 .text          0x0000000000000244        0x0 /usr/lib/x86_64-linux-gnu/gcc/ia16-elf/6.3.0/../../../../../ia16-elf/lib/medium/regparmcall/libc.a(lib_a-stdio.o)
 .text          0x0000000000000244        0x0 /usr/lib/x86_64-linux-gnu/gcc/ia16-elf/6.3.0/../../../../../ia16-elf/lib/medium/regparmcall/libc.a(lib_a-strcasecmp.o)
 .text          0x0000000000000244        0x0 /usr/lib/x86_64-linux-gnu/gcc/ia16-elf/6.3.0/../../../../../ia16-elf/lib/medium/regparmcall/libc.a(lib_a-strcat.o)
 .text          0x0000000000000244        0x0 /usr/lib/x86_64-linux-gnu/gcc/ia16-elf/6.3.0/../../../../../ia16-elf/lib/medium/regparmcall/libc.a(lib_a-strcmp.o)
 .text          0x0000000000000244        0x0 /usr/lib/x86_64-linux-gnu/gcc/ia16-elf/6.3.0/../../../../../ia16-elf/lib/medium/regparmcall/libc.a(lib_a-strcpy.o)
 .text          0x0000000000000244        0x0 /usr/lib/x86_64-linux-gnu/gcc/ia16-elf/6.3.0/../../../../../ia16-elf/lib/medium/regparmcall/libc.a(lib_a-strlen.o)
 .text          0x0000000000000244        0x0 /usr/lib/x86_64-linux-gnu/gcc/ia16-elf/6.3.0/../../../../../ia16-elf/lib/medium/regparmcall/libc.a(lib_a-strncasecmp.o)
 .text          0x0000000000000244        0x0 /usr/lib/x86_64-linux-gnu/gcc/ia16-elf/6.3.0/../../../../../ia16-elf/lib/medium/regparmcall/libc.a(lib_a-strncmp.o)
 .text          0x0000000000000244        0x0 /usr/lib/x86_64-linux-gnu/gcc/ia16-elf/6.3.0/../../../../../ia16-elf/lib/medium/regparmcall/libc.a(lib_a-strncpy.o)
 .text          0x0000000000000244        0x0 /usr/lib/x86_64-linux-gnu/gcc/ia16-elf/6.3.0/../../../../../ia16-elf/lib/medium/regparmcall/libc.a(lib_a-strtol.o)
 .text          0x0000000000000244        0x0 /usr/lib/x86_64-linux-gnu/gcc/ia16-elf/6.3.0/../../../../../ia16-elf/lib/medium/regparmcall/libc.a(lib_a-strupr.o)
 .text          0x0000000000000244        0x0 /usr/lib/x86_64-linux-gnu/gcc/ia16-elf/6.3.0/../../../../../ia16-elf/lib/medium/regparmcall/libc.a(lib_a-svfiprintf.o)
 .text          0x0000000000000244        0x0 /usr/lib/x86_64-linux-gnu/gcc/ia16-elf/6.3.0/../../../../../ia16-elf/lib/medium/regparmcall/libc.a(lib_a-svfiscanf.o)
 .text          0x0000000000000244        0x0 /usr/lib/x86_64-linux-gnu/gcc/ia16-elf/6.3.0/../../../../../ia16-elf/lib/medium/regparmcall/libc.a(lib_a-sysclose.o)
 .text          0x0000000000000244        0x0 /usr/lib/x86_64-linux-gnu/gcc/ia16-elf/6.3.0/../../../../../ia16-elf/lib/medium/regparmcall/libc.a(lib_a-sysisatty.o)
 .text          0x0000000000000244        0x0 /usr/lib/x86_64-linux-gnu/gcc/ia16-elf/6.3.0/../../../../../ia16-elf/lib/medium/regparmcall/libc.a(lib_a-syslseek.o)
 .text          0x0000000000000244        0x0 /usr/lib/x86_64-linux-gnu/gcc/ia16-elf/6.3.0/../../../../../ia16-elf/lib/medium/regparmcall/libc.a(lib_a-sysopen.o)
 .text          0x0000000000000244        0x0 /usr/lib/x86_64-linux-gnu/gcc/ia16-elf/6.3.0/../../../../../ia16-elf/lib/medium/regparmcall/libc.a(lib_a-sysread.o)
 .text          0x0000000000000244        0x0 /usr/lib/x86_64-linux-gnu/gcc/ia16-elf/6.3.0/../../../../../ia16-elf/lib/medium/regparmcall/libc.a(lib_a-syswrite.o)
 .text          0x0000000000000244        0x0 /usr/lib/x86_64-linux-gnu/gcc/ia16-elf/6.3.0/../../../../../ia16-elf/lib/medium/regparmcall/libc.a(lib_a-ungetc.o)
 .text          0x0000000000000244        0x0 /usr/lib/x86_64-linux-gnu/gcc/ia16-elf/6.3.0/../../../../../ia16-elf/lib/medium/regparmcall/libc.a(lib_a-vfiprintf.o)
 .text          0x0000000000000244        0x0 /usr/lib/x86_64-linux-gnu/gcc/ia16-elf/6.3.0/../../../../../ia16-elf/lib/medium/regparmcall/libc.a(lib_a-vfiscanf.o)
 .text          0x0000000000000244        0x0 /usr/lib/x86_64-linux-gnu/gcc/ia16-elf/6.3.0/../../../../../ia16-elf/lib/medium/regparmcall/libc.a(lib_a-viprintf.o)
 .text          0x0000000000000244        0x0 /usr/lib/x86_64-linux-gnu/gcc/ia16-elf/6.3.0/../../../../../ia16-elf/lib/medium/regparmcall/libc.a(lib_a-wcrtomb.o)
 .text          0x0000000000000244        0x0 /usr/lib/x86_64-linux-gnu/gcc/ia16-elf/6.3.0/../../../../../ia16-elf/lib/medium/regparmcall/libc.a(lib_a-wcsrtombs.o)
 .text          0x0000000000000244        0x0 /usr/lib/x86_64-linux-gnu/gcc/ia16-elf/6.3.0/../../../../../ia16-elf/lib/medium/regparmcall/libc.a(lib_a-wctomb_r.o)
 .text          0x0000000000000244        0x0 /usr/lib/x86_64-linux-gnu/gcc/ia16-elf/6.3.0/../../../../../ia16-elf/lib/medium/regparmcall/libc.a(lib_a-wsetup.o)
 .text          0x0000000000000244        0x0 /usr/lib/x86_64-linux-gnu/gcc/ia16-elf/6.3.0/../../../../../ia16-elf/lib/medium/regparmcall/libc.a(lib_a-__call_atexit.o)
 .text          0x0000000000000244        0x0 /usr/lib/x86_64-linux-gnu/gcc/ia16-elf/6.3.0/../../../../../ia16-elf/lib/medium/regparmcall/libc.a(lib_a-flags.o)
 .text          0x0000000000000244        0x0 /usr/lib/x86_64-linux-gnu/gcc/ia16-elf/6.3.0/../../../../../ia16-elf/lib/medium/regparmcall/libc.a(lib_a-fvwrite.o)
 .text          0x0000000000000244        0x0 /usr/lib/x86_64-linux-gnu/gcc/ia16-elf/6.3.0/../../../../../ia16-elf/lib/medium/regparmcall/libc.a(lib_a-iswspace.o)
 .text          0x0000000000000244        0x0 /usr/lib/x86_64-linux-gnu/gcc/ia16-elf/6.3.0/../../../../../ia16-elf/lib/medium/regparmcall/libc.a(lib_a-jp2uc.o)
 .text          0x0000000000000244        0x0 /usr/lib/x86_64-linux-gnu/gcc/ia16-elf/6.3.0/../../../../../ia16-elf/lib/medium/regparmcall/libc.a(lib_a-locale.o)
 .text          0x0000000000000244        0x0 /usr/lib/x86_64-linux-gnu/gcc/ia16-elf/6.3.0/../../../../../ia16-elf/lib/medium/regparmcall/libc.a(lib_a-mbrtowc.o)
 .text          0x0000000000000244        0x0 /usr/lib/x86_64-linux-gnu/gcc/ia16-elf/6.3.0/../../../../../ia16-elf/lib/medium/regparmcall/libc.a(lib_a-mbtowc_r.o)
 .text          0x0000000000000244        0x0 /usr/lib/x86_64-linux-gnu/gcc/ia16-elf/6.3.0/../../../../../ia16-elf/lib/medium/regparmcall/libc.a(lib_a-memchr.o)
 .text          0x0000000000000244        0x0 /usr/lib/x86_64-linux-gnu/gcc/ia16-elf/6.3.0/../../../../../ia16-elf/lib/medium/regparmcall/libc.a(lib_a-nano-reallocr.o)
 .text          0x0000000000000244        0x0 /usr/lib/x86_64-linux-gnu/gcc/ia16-elf/6.3.0/../../../../../ia16-elf/lib/medium/regparmcall/libc.a(lib_a-putc.o)
 .text          0x0000000000000244        0x0 /usr/lib/x86_64-linux-gnu/gcc/ia16-elf/6.3.0/../../../../../ia16-elf/lib/medium/regparmcall/libc.a(lib_a-sccl.o)
 .text          0x0000000000000244        0x0 /usr/lib/x86_64-linux-gnu/gcc/ia16-elf/6.3.0/../../../../../ia16-elf/lib/medium/regparmcall/libc.a(lib_a-sprintr.o)
 .text          0x0000000000000244        0x0 /usr/lib/x86_64-linux-gnu/gcc/ia16-elf/6.3.0/../../../../../ia16-elf/lib/medium/regparmcall/libc.a(lib_a-ssprintr.o)
 .text          0x0000000000000244        0x0 /usr/lib/x86_64-linux-gnu/gcc/ia16-elf/6.3.0/../../../../../ia16-elf/lib/medium/regparmcall/libc.a(lib_a-strchr.o)
 .text          0x0000000000000244        0x0 /usr/lib/x86_64-linux-gnu/gcc/ia16-elf/6.3.0/../../../../../ia16-elf/lib/medium/regparmcall/libc.a(lib_a-strlcpy.o)
 .text          0x0000000000000244        0x0 /usr/lib/x86_64-linux-gnu/gcc/ia16-elf/6.3.0/../../../../../ia16-elf/lib/medium/regparmcall/libc.a(lib_a-strtoll_r.o)
 .text          0x0000000000000244        0x0 /usr/lib/x86_64-linux-gnu/gcc/ia16-elf/6.3.0/../../../../../ia16-elf/lib/medium/regparmcall/libc.a(lib_a-strtoul.o)
 .text          0x0000000000000244        0x0 /usr/lib/x86_64-linux-gnu/gcc/ia16-elf/6.3.0/../../../../../ia16-elf/lib/medium/regparmcall/libc.a(lib_a-strtoull_r.o)
 .text          0x0000000000000244        0x0 /usr/lib/x86_64-linux-gnu/gcc/ia16-elf/6.3.0/../../../../../ia16-elf/lib/medium/regparmcall/libc.a(lib_a-wbuf.o)
 .text          0x0000000000000244        0x0 /usr/lib/x86_64-linux-gnu/gcc/ia16-elf/6.3.0/../../../../../ia16-elf/lib/medium/regparmcall/libc.a(lib_a-wcsnrtombs.o)
 .text          0x0000000000000244        0x0 /usr/lib/x86_64-linux-gnu/gcc/ia16-elf/6.3.0/../../../../../ia16-elf/lib/medium/regparmcall/libc.a(lib_a-getenv_r.o)
 .text          0x0000000000000244        0x0 /usr/lib/x86_64-linux-gnu/gcc/ia16-elf/6.3.0/../../../../../ia16-elf/lib/medium/regparmcall/libc.a(lib_a-nano-msizer.o)
 .text          0x0000000000000244        0x0 /usr/lib/x86_64-linux-gnu/gcc/ia16-elf/6.3.0/../../../../../ia16-elf/lib/medium/regparmcall/libc.a(lib_a-envlock.o)
 .text          0x0000000000000244        0x0 /usr/lib/x86_64-linux-gnu/gcc/ia16-elf/6.3.0/medium/regparmcall/libgcc.a(_ashrsi3.o)
 .text          0x0000000000000244        0x0 /usr/lib/x86_64-linux-gnu/gcc/ia16-elf/6.3.0/medium/regparmcall/libgcc.a(_cmpsi2.o)
 .text          0x0000000000000244        0x0 /usr/lib/x86_64-linux-gnu/gcc/ia16-elf/6.3.0/medium/regparmcall/libgcc.a(_ucmpsi2.o)
 .text          0x0000000000000244        0x0 /usr/lib/x86_64-linux-gnu/gcc/ia16-elf/6.3.0/medium/regparmcall/libgcc.a(_muldi3.o)
 .text          0x0000000000000244        0x0 /usr/lib/x86_64-linux-gnu/gcc/ia16-elf/6.3.0/medium/regparmcall/libgcc.a(_lshrdi3.o)
 .text          0x0000000000000244        0x0 /usr/lib/x86_64-linux-gnu/gcc/ia16-elf/6.3.0/medium/regparmcall/libgcc.a(_ashldi3.o)
 .text          0x0000000000000244        0x0 /usr/lib/x86_64-linux-gnu/gcc/ia16-elf/6.3.0/medium/regparmcall/libgcc.a(_divdi3.o)
 .text          0x0000000000000244        0x0 /usr/lib/x86_64-linux-gnu/gcc/ia16-elf/6.3.0/medium/regparmcall/libgcc.a(_udivdi3.o)
 .text          0x0000000000000244        0x0 /usr/lib/x86_64-linux-gnu/gcc/ia16-elf/6.3.0/medium/regparmcall/libgcc.a(_umoddi3.o)
 .text          0x0000000000000244        0x0 /usr/lib/x86_64-linux-gnu/gcc/ia16-elf/6.3.0/medium/regparmcall/libgcc.a(udivsi3.o)
 .text          0x0000000000000244        0x0 /usr/lib/x86_64-linux-gnu/gcc/ia16-elf/6.3.0/medium/regparmcall/libgcc.a(umodsi3.o)
 .text          0x0000000000000244        0x0 /usr/lib/x86_64-linux-gnu/gcc/ia16-elf/6.3.0/medium/regparmcall/libgcc.a(ia16-ldivmodu.o)
 .text          0x0000000000000244        0x0 /usr/lib/x86_64-linux-gnu/gcc/ia16-elf/6.3.0/medium/regparmcall/libgcc.a(divsi3.o)
 .text          0x0000000000000244        0x0 /usr/lib/x86_64-linux-gnu/gcc/ia16-elf/6.3.0/medium/regparmcall/libgcc.a(ia16-ldivmods.o)
 .text          0x0000000000000244        0x0 /usr/lib/x86_64-linux-gnu/gcc/ia16-elf/6.3.0/medium/regparmcall/libgcc.a(ashlsi3.o)
 .text          0x0000000000000244        0x0 /usr/lib/x86_64-linux-gnu/gcc/ia16-elf/6.3.0/medium/regparmcall/libgcc.a(lshrsi3.o)
 .text          0x0000000000000244        0x0 /usr/lib/x86_64-linux-gnu/gcc/ia16-elf/6.3.0/medium/regparmcall/libgcc.a(_clz.o)
 .text          0x0000000000000244        0x0 /usr/lib/x86_64-linux-gnu/gcc/ia16-elf/6.3.0/../../../../../ia16-elf/lib/medium/regparmcall/libdos-m.a(dos-access.o)
 .text          0x0000000000000244        0x0 /usr/lib/x86_64-linux-gnu/gcc/ia16-elf/6.3.0/../../../../../ia16-elf/lib/medium/regparmcall/libdos-m.a(dos-closer.o)
 .text          0x0000000000000244        0x0 /usr/lib/x86_64-linux-gnu/gcc/ia16-elf/6.3.0/../../../../../ia16-elf/lib/medium/regparmcall/libdos-m.a(dos-environ.o)
 .text          0x0000000000000244        0x0 /usr/lib/x86_64-linux-gnu/gcc/ia16-elf/6.3.0/../../../../../ia16-elf/lib/medium/regparmcall/libdos-m.a(dos-isattyr.o)
 .text          0x0000000000000244        0x0 /usr/lib/x86_64-linux-gnu/gcc/ia16-elf/6.3.0/../../../../../ia16-elf/lib/medium/regparmcall/libdos-m.a(dos-lseekr.o)
 .text          0x0000000000000244        0x0 /usr/lib/x86_64-linux-gnu/gcc/ia16-elf/6.3.0/../../../../../ia16-elf/lib/medium/regparmcall/libdos-m.a(dos-openr.o)
 .text          0x0000000000000244        0x0 /usr/lib/x86_64-linux-gnu/gcc/ia16-elf/6.3.0/../../../../../ia16-elf/lib/medium/regparmcall/libdos-m.a(dos-readr.o)
 .text          0x0000000000000244        0x0 /usr/lib/x86_64-linux-gnu/gcc/ia16-elf/6.3.0/../../../../../ia16-elf/lib/medium/regparmcall/libdos-m.a(dos-sbrkr.o)
 .text          0x0000000000000244        0x0 /usr/lib/x86_64-linux-gnu/gcc/ia16-elf/6.3.0/../../../../../ia16-elf/lib/medium/regparmcall/libdos-m.a(dos-writer.o)
 .text          0x0000000000000244        0x0 /usr/lib/x86_64-linux-gnu/gcc/ia16-elf/6.3.0/../../../../../ia16-elf/lib/medium/regparmcall/libdos-m.a(dos-msmmabort.o)
 .text          0x0000000000000244        0x0 /usr/lib/x86_64-linux-gnu/gcc/ia16-elf/6.3.0/../../../../../ia16-elf/lib/medium/regparmcall/libdos-m.a(dos-heaplen.o)
 .text          0x0000000000000244        0x2 /usr/lib/x86_64-linux-gnu/gcc/ia16-elf/6.3.0/../../../../../ia16-elf/lib/medium/regparmcall/libdos-m.a(dos-near-data-segment.o)
                0x0000000000000244                __ia16_near_data_segment
 .text          0x0000000000000246        0x0 /usr/lib/x86_64-linux-gnu/gcc/ia16-elf/6.3.0/../../../../../ia16-elf/lib/medium/regparmcall/libc.a(lib_a-abort.o)
 *(.text.*)
                0x0000000000000246                __etext = .
                0x0000000000000250                . = ALIGN (0x10)
 *fill*         0x0000000000000246        0xa 
                0x0000000000000250                __etext_padded = .
                0x0000000000000001                ASSERT ((. <= 0x10000), Error: too large for a small or medium model .exe file.)
                0x0000000000000226                __ltext = (__etext - __stext)
                0x0000000000000230                __ltext_padded = (__etext_padded - __stext)

.fartext.00$    0x0000000000000000      0x2f0 load address 0x0000000000002740
 *(.fartext.*00 .fartext.*00$)
 .fartext.f.strtoull_r.c.33100$
                0x0000000000000000      0x2e3 /usr/lib/x86_64-linux-gnu/gcc/ia16-elf/6.3.0/../../../../../ia16-elf/lib/medium/regparmcall/libc.a(lib_a-strtoull_r.o)
                0x0000000000000000                _strtoull_r
                0x00000000000002f0                . = ALIGN (0x10)
 *fill*         0x00000000000002e3        0xd 

.fartext.01$    0x0000000000000000      0x8b0 load address 0x0000000000002a30
 *(.fartext.*01 .fartext.*01$)
 .fartext.f.d_main.c.43201$
                0x0000000000000000      0x5d7 /tmp/ccRKBTkr.o
                0x0000000000000000                D_PostEvent
                0x000000000000003b                D_ProcessEvents
                0x000000000000007a                getStringByIndex
                0x00000000000000b6                FixedMul
                0x00000000000000e4                FixedMul1632
                0x000000000000010e                FixedMul16u32
                0x0000000000000137                FixedMulBig1632
                0x0000000000000162                FixedMul1616
                0x0000000000000167                FixedDiv2
                0x00000000000001ab                FixedDiv
                0x000000000000024f                D_PageTicker
                0x0000000000000260                D_PageDrawer
                0x0000000000000272                D_Display
                0x0000000000000483                D_AdvanceDemo
                0x0000000000000489                D_DoAdvanceDemo
                0x000000000000053b                D_DoomLoop
                0x00000000000005ce                D_DoomMain
 .fartext.f.fgetc.c.77701$
                0x00000000000005d7       0xad /usr/lib/x86_64-linux-gnu/gcc/ia16-elf/6.3.0/../../../../../ia16-elf/lib/medium/regparmcall/libc.a(lib_a-fgetc.o)
                0x00000000000005d7                _fgetc_r
                0x000000000000067d                fgetc
 .fartext.f.strtoul.c.07601$
                0x0000000000000684      0x21f /usr/lib/x86_64-linux-gnu/gcc/ia16-elf/6.3.0/../../../../../ia16-elf/lib/medium/regparmcall/libc.a(lib_a-strtoul.o)
                0x0000000000000684                _strtoul_r
                0x0000000000000897                strtoul
                0x00000000000008b0                . = ALIGN (0x10)
 *fill*         0x00000000000008a3        0xd 

.fartext.02$    0x0000000000000000     0x1310 load address 0x00000000000032e0
 *(.fartext.*02 .fartext.*02$)
 .fartext.f.p_pspr.c.27602$
                0x0000000000000000      0xbad /tmp/ccebu4yL.o
                0x0000000000000000                A_Punch
                0x00000000000000be                A_Saw
                0x00000000000001ee                A_FireMissile
                0x0000000000000210                A_FireBFG
                0x0000000000000233                P_BulletSlope
                0x00000000000002a8                P_GunShot
                0x0000000000000311                A_Light0
                0x0000000000000317                A_Light1
                0x000000000000031d                A_Light2
                0x0000000000000323                A_BFGSpray
                0x000000000000040e                A_BFGsound
                0x000000000000041b                P_SetPsprite
                0x0000000000000571                P_MovePsprites
                0x00000000000005df                A_FireCGun
                0x000000000000067c                A_FireShotgun2
                0x000000000000074a                A_FireShotgun
                0x00000000000007a8                A_FirePistol
                0x0000000000000807                A_FirePlasma
                0x000000000000084f                A_GunFlash
                0x000000000000086e                A_Raise
                0x00000000000008aa                P_DropWeapon
                0x00000000000008bb                P_CheckAmmo
                0x00000000000009c5                A_CheckReload
                0x00000000000009c8                P_FireWeapon
                0x00000000000009f6                A_ReFire
                0x0000000000000a18                A_WeaponReady
                0x0000000000000b26                P_BringUpWeapon
                0x0000000000000b6c                A_Lower
 .fartext.f.r_plane.c.44502$
                0x0000000000000bad      0x75d /tmp/ccbYhx0K.o
                0x0000000000000bad                R_MapPlane
                0x0000000000000db0                R_ClearPlanes
                0x0000000000000e66                R_FindPlane
                0x0000000000000f29                R_CheckPlane
                0x0000000000001010                R_DrawPlanes
                0x0000000000001310                . = ALIGN (0x10)
 *fill*         0x000000000000130a        0x6 

.fartext.03$    0x0000000000000000      0x430 load address 0x00000000000045f0
 *(.fartext.*03 .fartext.*03$)
 .fartext.f.p_saveg.c.74603$
                0x0000000000000000        0x8 /tmp/ccuOrYlb.o
                0x0000000000000000                P_ArchivePlayers
                0x0000000000000001                P_UnArchivePlayers
                0x0000000000000002                P_ArchiveWorld
                0x0000000000000003                P_UnArchiveWorld
                0x0000000000000004                P_ArchiveThinkers
                0x0000000000000005                P_UnArchiveThinkers
                0x0000000000000006                P_ArchiveSpecials
                0x0000000000000007                P_UnArchiveSpecials
 .fartext.f.v_extra.c.11503$
                0x0000000000000008      0x1c9 /tmp/cc6ZXgwY.o
                0x0000000000000008                V_DrawFullscreenPatch
 .fartext.f.puts.c.61303$
                0x00000000000001d1       0x9a /usr/lib/x86_64-linux-gnu/gcc/ia16-elf/6.3.0/../../../../../ia16-elf/lib/medium/regparmcall/libc.a(lib_a-puts.o)
                0x00000000000001d1                _puts_r
                0x0000000000000264                puts
 .fartext.f.setvbuf.c.34603$
                0x000000000000026b      0x199 /usr/lib/x86_64-linux-gnu/gcc/ia16-elf/6.3.0/../../../../../ia16-elf/lib/medium/regparmcall/libc.a(lib_a-setvbuf.o)
                0x000000000000026b                setvbuf
 .fartext.s.__cmpsi2.11003$
                0x0000000000000404       0x23 /usr/lib/x86_64-linux-gnu/gcc/ia16-elf/6.3.0/medium/regparmcall/libgcc.a(_cmpsi2.o)
                0x0000000000000404                __cmpsi2
                0x0000000000000430                . = ALIGN (0x10)
 *fill*         0x0000000000000427        0x9 

.fartext.04$    0x0000000000000000       0x60 load address 0x0000000000004a20
 *(.fartext.*04 .fartext.*04$)
 .fartext.f.rget.c.75004$
                0x0000000000000000       0x5c /usr/lib/x86_64-linux-gnu/gcc/ia16-elf/6.3.0/../../../../../ia16-elf/lib/medium/regparmcall/libc.a(lib_a-rget.o)
                0x0000000000000000                __srget_r
                0x0000000000000056                __srget
                0x0000000000000060                . = ALIGN (0x10)
 *fill*         0x000000000000005c        0x4 

.fartext.05$    0x0000000000000000      0x3a0 load address 0x0000000000004a80
 *(.fartext.*05 .fartext.*05$)
 .fartext.f.viprintf.c.45605$
                0x0000000000000000       0x66 /usr/lib/x86_64-linux-gnu/gcc/ia16-elf/6.3.0/../../../../../ia16-elf/lib/medium/regparmcall/libc.a(lib_a-viprintf.o)
                0x0000000000000000                viprintf
                0x0000000000000035                _viprintf_r
 .fartext.f.strtoll_r.c.45205$
                0x0000000000000066      0x32d /usr/lib/x86_64-linux-gnu/gcc/ia16-elf/6.3.0/../../../../../ia16-elf/lib/medium/regparmcall/libc.a(lib_a-strtoll_r.o)
                0x0000000000000066                _strtoll_r
                0x00000000000003a0                . = ALIGN (0x10)
 *fill*         0x0000000000000393        0xd 

.fartext.06$    0x0000000000000000      0x370 load address 0x0000000000004e20
 *(.fartext.*06 .fartext.*06$)
 .fartext.f.dmx.c.47106$
                0x0000000000000000      0x234 /tmp/cc1jrtzy.o
                0x0000000000000000                TS_ServiceScheduleIntEnabled
                0x000000000000011b                TS_FreeTaskList
                0x000000000000011c                TS_SetClockSpeed
                0x0000000000000163                TS_SetTimer
                0x000000000000018e                TS_SetTimerToMaxTaskRate
                0x000000000000019a                TS_Startup
                0x00000000000001e8                TS_ScheduleTask
                0x000000000000022b                TS_Dispatch
 .fartext.f.flags.c.47406$
                0x0000000000000234       0x72 /usr/lib/x86_64-linux-gnu/gcc/ia16-elf/6.3.0/../../../../../ia16-elf/lib/medium/regparmcall/libc.a(lib_a-flags.o)
                0x0000000000000234                __sflags
 .fartext.f.putc.c.11706$
                0x00000000000002a6       0xbe /usr/lib/x86_64-linux-gnu/gcc/ia16-elf/6.3.0/../../../../../ia16-elf/lib/medium/regparmcall/libc.a(lib_a-putc.o)
                0x0000000000000312                _putc_r
                0x000000000000035c                putc
                0x0000000000000370                . = ALIGN (0x10)
 *fill*         0x0000000000000364        0xc 

.fartext.07$    0x0000000000000000       0xb0 load address 0x0000000000005190
 *(.fartext.*07 .fartext.*07$)
 .fartext.f.fwalk.c.72007$
                0x0000000000000000       0xa6 /usr/lib/x86_64-linux-gnu/gcc/ia16-elf/6.3.0/../../../../../ia16-elf/lib/medium/regparmcall/libc.a(lib_a-fwalk.o)
                0x0000000000000000                _fwalk
                0x0000000000000050                _fwalk_reent
                0x00000000000000b0                . = ALIGN (0x10)
 *fill*         0x00000000000000a6        0xa 

.fartext.10$    0x0000000000000000      0x290 load address 0x0000000000005240
 *(.fartext.*10 .fartext.*10$)
 .fartext.f.fiprintf.c.23210$
                0x0000000000000000       0x32 /usr/lib/x86_64-linux-gnu/gcc/ia16-elf/6.3.0/../../../../../ia16-elf/lib/medium/regparmcall/libc.a(lib_a-fiprintf.o)
                0x0000000000000000                _fiprintf_r
                0x0000000000000016                fiprintf
 .fartext.f.strtol.c.60110$
                0x0000000000000032      0x249 /usr/lib/x86_64-linux-gnu/gcc/ia16-elf/6.3.0/../../../../../ia16-elf/lib/medium/regparmcall/libc.a(lib_a-strtol.o)
                0x0000000000000032                _strtol_r
                0x000000000000026f                strtol
 .fartext.f.sysisatty.c.27010$
                0x000000000000027b        0x9 /usr/lib/x86_64-linux-gnu/gcc/ia16-elf/6.3.0/../../../../../ia16-elf/lib/medium/regparmcall/libc.a(lib_a-sysisatty.o)
                0x000000000000027b                isatty
                0x0000000000000290                . = ALIGN (0x10)
 *fill*         0x0000000000000284        0xc 

.fartext.11$    0x0000000000000000        0x0 load address 0x00000000000054d0
 *(.fartext.*11 .fartext.*11$)
                0x0000000000000000                . = ALIGN (0x10)

.fartext.12$    0x0000000000000000      0x680 load address 0x00000000000054d0
 *(.fartext.*12 .fartext.*12$)
 .fartext.f.w_init.c.54412$
                0x0000000000000000      0x1f2 /tmp/ccSVQz97.o
                0x0000000000000000                W_AddFile
                0x00000000000001d9                W_InitMultipleFiles
 .fartext.f.s_sound.c.50112$
                0x00000000000001f2       0x23 /tmp/cc5KyAj2.o
                0x00000000000001f2                S_SetMusicVolume
                0x00000000000001f3                S_StopMusic
                0x00000000000001f4                S_ChangeMusic
                0x00000000000001f5                S_StartMusic
                0x00000000000001f6                S_StopChannel
                0x00000000000001f7                S_AdjustSoundParams
                0x0000000000000201                S_SetSfxVolume
                0x0000000000000202                S_PauseSound
                0x0000000000000203                S_ResumeSound
                0x0000000000000204                S_StopSound
                0x0000000000000205                S_getChannel
                0x0000000000000208                S_StartSoundAtVolume
                0x0000000000000210                S_StartSoundFromRef
                0x0000000000000211                S_StartSound
                0x0000000000000212                S_StartSoundWithParams
                0x0000000000000213                S_UpdateSounds
                0x0000000000000214                S_Start
 .fartext.f.malloc.c.71312$
                0x0000000000000215       0x12 /usr/lib/x86_64-linux-gnu/gcc/ia16-elf/6.3.0/../../../../../ia16-elf/lib/medium/regparmcall/libc.a(lib_a-malloc.o)
                0x0000000000000215                malloc
                0x000000000000021e                free
 .fartext.f.sysread.c.55712$
                0x0000000000000227        0xd /usr/lib/x86_64-linux-gnu/gcc/ia16-elf/6.3.0/../../../../../ia16-elf/lib/medium/regparmcall/libc.a(lib_a-sysread.o)
                0x0000000000000227                read
 .fartext.f.fvwrite.c.65612$
                0x0000000000000234      0x3fe /usr/lib/x86_64-linux-gnu/gcc/ia16-elf/6.3.0/../../../../../ia16-elf/lib/medium/regparmcall/libc.a(lib_a-fvwrite.o)
                0x00000000000002a0                __sfvwrite_r
 .fartext.f.dos_sbrkr.c.64512$
                0x0000000000000632       0x4c /usr/lib/x86_64-linux-gnu/gcc/ia16-elf/6.3.0/../../../../../ia16-elf/lib/medium/regparmcall/libdos-m.a(dos-sbrkr.o)
                0x0000000000000632                _sbrk_r
                0x0000000000000680                . = ALIGN (0x10)
 *fill*         0x000000000000067e        0x2 

.fartext.13$    0x0000000000000000     0x1600 load address 0x0000000000005b50
 *(.fartext.*13 .fartext.*13$)
 .fartext.f.p_lights.c.13613$
                0x0000000000000000      0x572 /tmp/cczHazkj.o
                0x0000000000000000                T_FireFlicker
                0x000000000000006d                P_SpawnFireFlicker
                0x00000000000000c9                T_LightFlash
                0x000000000000013b                P_SpawnLightFlash
                0x00000000000001bf                T_StrobeFlash
                0x0000000000000215                P_SpawnStrobeFlash
                0x00000000000002b0                EV_StartLightStrobing
                0x00000000000002e1                EV_TurnTagLightsOff
                0x00000000000003ae                EV_LightTurnOn
                0x0000000000000494                T_Glow
                0x0000000000000510                P_SpawnGlowingLight
 .fartext.f.p_maputl.c.17313$
                0x0000000000000572      0xe2a /tmp/ccUdflWr.o
                0x0000000000000572                P_AproxDistance
                0x00000000000005cf                P_PointOnLineSide
                0x0000000000000680                P_BoxOnLineSide
                0x00000000000007a4                P_PointOnDivlineSide
                0x00000000000008f1                P_InterceptVector
                0x00000000000009d0                PIT_AddThingIntercepts
                0x0000000000000add                PIT_AddLineIntercepts
                0x0000000000000c68                P_LineOpening
                0x0000000000000cbe                P_UnsetThingPosition
                0x0000000000000dba                P_SetThingPosition
                0x0000000000000ef8                P_BlockLinesIterator
                0x0000000000000f97                P_BlockThingsIterator
                0x0000000000001026                P_TraverseIntercepts
                0x00000000000010cb                P_PathTraverse
 .fartext.f.wbuf.c.15113$
                0x000000000000139c       0xe4 /usr/lib/x86_64-linux-gnu/gcc/ia16-elf/6.3.0/../../../../../ia16-elf/lib/medium/regparmcall/libc.a(lib_a-wbuf.o)
                0x000000000000139c                __swbuf_r
                0x0000000000001477                __swbuf
 .fartext.f.wcsnrtombs.c.27213$
                0x0000000000001480      0x17a /usr/lib/x86_64-linux-gnu/gcc/ia16-elf/6.3.0/../../../../../ia16-elf/lib/medium/regparmcall/libc.a(lib_a-wcsnrtombs.o)
                0x0000000000001480                _wcsnrtombs_r
                0x00000000000015e0                wcsnrtombs
                0x0000000000001600                . = ALIGN (0x10)
 *fill*         0x00000000000015fa        0x6 

.fartext.14$    0x0000000000000000       0xb0 load address 0x0000000000007150
 *(.fartext.*14 .fartext.*14$)
 .fartext.f.f_finale.c.00014$
                0x0000000000000000        0x4 /tmp/ccWnJyBJ.o
                0x0000000000000000                F_Drawer
                0x0000000000000001                F_Ticker
                0x0000000000000002                F_Responder
                0x0000000000000003                F_StartFinale
 .fartext.f.siscanf.c.63714$
                0x0000000000000004       0xa9 /usr/lib/x86_64-linux-gnu/gcc/ia16-elf/6.3.0/../../../../../ia16-elf/lib/medium/regparmcall/libc.a(lib_a-siscanf.o)
                0x0000000000000004                siscanf
                0x0000000000000058                _siscanf_r
                0x00000000000000b0                . = ALIGN (0x10)
 *fill*         0x00000000000000ad        0x3 

.fartext.15$    0x0000000000000000      0x120 load address 0x0000000000007200
 *(.fartext.*15 .fartext.*15$)
 .fartext.s.__muldi3.27315$
                0x0000000000000000      0x113 /usr/lib/x86_64-linux-gnu/gcc/ia16-elf/6.3.0/medium/regparmcall/libgcc.a(_muldi3.o)
                0x0000000000000000                __muldi3
                0x0000000000000120                . = ALIGN (0x10)
 *fill*         0x0000000000000113        0xd 

.fartext.16$    0x0000000000000000        0x0 load address 0x0000000000007320
 *(.fartext.*16 .fartext.*16$)
                0x0000000000000000                . = ALIGN (0x10)

.fartext.17$    0x0000000000000000      0x280 load address 0x0000000000007320
 *(.fartext.*17 .fartext.*17$)
 .fartext.f.p_tick.c.74517$
                0x0000000000000000      0x237 /tmp/ccN6UUr8.o
                0x0000000000000000                P_GetNextThinkerRef
                0x000000000000002f                P_CreateThinker
                0x0000000000000068                P_UpdateThinkerFunc
                0x000000000000007c                P_RemoveThinker
                0x0000000000000091                P_RunThinkers
                0x00000000000001f0                P_Ticker
 .fartext.f.sysopen.c.46517$
                0x0000000000000237       0x1e /usr/lib/x86_64-linux-gnu/gcc/ia16-elf/6.3.0/../../../../../ia16-elf/lib/medium/regparmcall/libc.a(lib_a-sysopen.o)
                0x0000000000000237                open
 .fartext.s.__ucmpsi2.41017$
                0x0000000000000255       0x23 /usr/lib/x86_64-linux-gnu/gcc/ia16-elf/6.3.0/medium/regparmcall/libgcc.a(_ucmpsi2.o)
                0x0000000000000255                __ucmpsi2
                0x0000000000000280                . = ALIGN (0x10)
 *fill*         0x0000000000000278        0x8 

.fartext.20$    0x0000000000000000     0x1600 load address 0x00000000000075a0
 *(.fartext.*20 .fartext.*20$)
 .fartext.f.i_ibm.c.66620$
                0x0000000000000000      0x569 /tmp/ccr8wAuP.o
                0x0000000000000000                I_WaitVBL
                0x0000000000000031                I_SetPalette
                0x0000000000000098                I_UpdateBox
                0x000000000000018d                I_UpdateNoBlit
                0x0000000000000279                I_FinishUpdate
                0x000000000000029c                I_ReadScreen
                0x00000000000002e5                I_TimerISR
                0x00000000000002fa                I_KeyboardISR
                0x0000000000000321                I_ResetMouse
                0x0000000000000339                I_ReadMouse
                0x0000000000000391                I_StartTic
                0x000000000000047e                I_Error
                0x00000000000004b1                I_BeginRead
                0x00000000000004b2                I_EndRead
                0x00000000000004b3                I_InitDiskFlash
                0x00000000000004b4                I_InitGraphics
 .fartext.f.p_doors.c.66620$
                0x0000000000000569      0x706 /tmp/cc0OYEm1.o
                0x0000000000000569                T_VerticalDoor
                0x0000000000000768                EV_DoDoor
                0x0000000000000927                EV_DoLockedDoor
                0x00000000000009aa                EV_VerticalDoor
                0x0000000000000ba9                P_SpawnDoorCloseIn30
                0x0000000000000bf8                P_SpawnDoorRaiseIn5Mins
 .fartext.s.__divdi3.34720$
                0x0000000000000c6f      0x98c /usr/lib/x86_64-linux-gnu/gcc/ia16-elf/6.3.0/medium/regparmcall/libgcc.a(_divdi3.o)
                0x0000000000000c6f                __divdi3
                0x0000000000001600                . = ALIGN (0x10)
 *fill*         0x00000000000015fb        0x5 

.fartext.21$    0x0000000000000000      0x310 load address 0x0000000000008ba0
 *(.fartext.*21 .fartext.*21$)
 .fartext.f.st_setup.c.53421$
                0x0000000000000000      0x2e0 /tmp/ccmrsGy9.o
                0x0000000000000000                STlib_initNum
                0x000000000000001f                STlib_initPercent
                0x0000000000000043                STlib_initMultIcon
                0x000000000000005c                ST_createWidgets
                0x000000000000026f                ST_Stop
                0x0000000000000283                ST_Start
 .fartext.f.fmalloc.c.50021$
                0x00000000000002e0       0x2f /usr/lib/x86_64-linux-gnu/gcc/ia16-elf/6.3.0/../../../../../ia16-elf/lib/medium/regparmcall/libi86.a(fmalloc.o)
                0x00000000000002e0                _fmalloc
                0x0000000000000310                . = ALIGN (0x10)
 *fill*         0x000000000000030f        0x1 

.fartext.22$    0x0000000000000000      0x600 load address 0x0000000000008eb0
 *(.fartext.*22 .fartext.*22$)
 .fartext.f.errno.c.71122$
                0x0000000000000000        0x4 /usr/lib/x86_64-linux-gnu/gcc/ia16-elf/6.3.0/../../../../../ia16-elf/lib/medium/regparmcall/libc.a(lib_a-errno.o)
                0x0000000000000000                __errno
 .fartext.f.wctomb_r.c.40322$
                0x0000000000000004      0x2fa /usr/lib/x86_64-linux-gnu/gcc/ia16-elf/6.3.0/../../../../../ia16-elf/lib/medium/regparmcall/libc.a(lib_a-wctomb_r.o)
                0x0000000000000004                __ascii_wctomb
                0x0000000000000024                _wctomb_r
                0x0000000000000053                __utf8_wctomb
                0x0000000000000180                __sjis_wctomb
                0x00000000000001f4                __eucjp_wctomb
                0x0000000000000277                __jis_wctomb
 .fartext.f.__call_atexit.c.64322$
                0x00000000000002fe      0x141 /usr/lib/x86_64-linux-gnu/gcc/ia16-elf/6.3.0/../../../../../ia16-elf/lib/medium/regparmcall/libc.a(lib_a-__call_atexit.o)
                0x00000000000002fe                __call_exitprocs
 .fartext.f.jp2uc.c.11722$
                0x000000000000043f      0x1b7 /usr/lib/x86_64-linux-gnu/gcc/ia16-elf/6.3.0/../../../../../ia16-elf/lib/medium/regparmcall/libc.a(lib_a-jp2uc.o)
                0x00000000000005ac                _jp2uc
                0x0000000000000600                . = ALIGN (0x10)
 *fill*         0x00000000000005f6        0xa 

.fartext.23$    0x0000000000000000      0x100 load address 0x00000000000094b0
 *(.fartext.*23 .fartext.*23$)
 .fartext.f.crtstuff.c.43723$
                0x0000000000000000       0x3c /usr/lib/x86_64-linux-gnu/gcc/ia16-elf/6.3.0/medium/regparmcall/crtbegin.o
 .fartext.f.crtstuff.c.43723$
                0x000000000000003c       0x42 /usr/lib/x86_64-linux-gnu/gcc/ia16-elf/6.3.0/medium/regparmcall/crtend.o
 .fartext.f.siprintf.c.66223$
                0x000000000000007e       0x7b /usr/lib/x86_64-linux-gnu/gcc/ia16-elf/6.3.0/../../../../../ia16-elf/lib/medium/regparmcall/libc.a(lib_a-siprintf.o)
                0x000000000000007e                _siprintf_r
                0x00000000000000b9                siprintf
                0x0000000000000100                . = ALIGN (0x10)
 *fill*         0x00000000000000f9        0x7 

.fartext.24$    0x0000000000000000      0xae0 load address 0x00000000000095b0
 *(.fartext.*24 .fartext.*24$)
 .fartext.f.d_init.c.40224$
                0x0000000000000000      0xab3 /tmp/cczAorzb.o
                0x0000000000000000                D_InitStrings
                0x00000000000000aa                D_StartTitle
                0x00000000000000b9                D_GetCursorColumn
                0x00000000000000d9                D_GetCursorRow
                0x00000000000000f9                D_SetCursorPosition
                0x000000000000011a                D_DrawTitle
                0x0000000000000180                D_RedrawTitle
                0x00000000000001a5                D_AddFile
                0x00000000000001e0                IdentifyVersion
                0x000000000000023b                M_LoadDefaults
                0x00000000000003d3                HU_Init
                0x0000000000000414                S_Init
                0x0000000000000415                M_Init
                0x00000000000004aa                D_InitGraphicCounts
                0x0000000000000558                D_DoomMain2
 .fartext.f.fseek.c.26324$
                0x0000000000000ab3       0x1c /usr/lib/x86_64-linux-gnu/gcc/ia16-elf/6.3.0/../../../../../ia16-elf/lib/medium/regparmcall/libc.a(lib_a-fseek.o)
                0x0000000000000ab3                _fseek_r
                0x0000000000000ab8                fseek
 .fartext.f.sysclose.c.64224$
                0x0000000000000acf        0x9 /usr/lib/x86_64-linux-gnu/gcc/ia16-elf/6.3.0/../../../../../ia16-elf/lib/medium/regparmcall/libc.a(lib_a-sysclose.o)
                0x0000000000000acf                close
                0x0000000000000ae0                . = ALIGN (0x10)
 *fill*         0x0000000000000ad8        0x8 

.fartext.25$    0x0000000000000000      0x340 load address 0x000000000000a090
 *(.fartext.*25 .fartext.*25$)
 .fartext.f.st_init.c.61625$
                0x0000000000000000      0x250 /tmp/ccg57Tlx.o
                0x0000000000000000                ST_loadGraphics
                0x000000000000021d                ST_loadData
                0x0000000000000247                ST_Init
 .fartext.f.wcrtomb.c.02225$
                0x0000000000000250       0xe7 /usr/lib/x86_64-linux-gnu/gcc/ia16-elf/6.3.0/../../../../../ia16-elf/lib/medium/regparmcall/libc.a(lib_a-wcrtomb.o)
                0x0000000000000250                _wcrtomb_r
                0x000000000000032b                wcrtomb
                0x0000000000000340                . = ALIGN (0x10)
 *fill*         0x0000000000000337        0x9 

.fartext.26$    0x0000000000000000      0x150 load address 0x000000000000a3d0
 *(.fartext.*26 .fartext.*26$)
 .fartext.f.d_net.c.33426$
                0x0000000000000000      0x14b /tmp/ccO3qzw4.o
                0x0000000000000000                NetUpdate
                0x0000000000000088                TryRunTics
                0x0000000000000150                . = ALIGN (0x10)
 *fill*         0x000000000000014b        0x5 

.fartext.27$    0x0000000000000000     0x1290 load address 0x000000000000a520
 *(.fartext.*27 .fartext.*27$)
 .fartext.f.p_sight.c.25027$
                0x0000000000000000      0x85b /tmp/cckU1VC7.o
                0x0000000000000000                P_DivlineSide
                0x0000000000000104                P_DivlineSide16
                0x00000000000001eb                P_DivlineSideNode
                0x00000000000002dd                P_InterceptVector2
                0x00000000000003bf                P_CrossSubsector
                0x0000000000000645                P_CrossBSPNode
                0x00000000000006ec                P_CheckSight
 .fartext.f.v_video.c.40027$
                0x000000000000085b      0x2ee /tmp/ccxkHKx5.o
                0x000000000000085b                V_MarkRect
                0x0000000000000890                V_CopyRect
                0x00000000000008f3                V_DrawPatch
                0x0000000000000a73                V_DrawPatchDirect
 .fartext.f.dos_freemem.c.52527$
                0x0000000000000b49       0x11 /usr/lib/x86_64-linux-gnu/gcc/ia16-elf/6.3.0/../../../../../ia16-elf/lib/medium/regparmcall/libi86.a(dos-freemem.o)
                0x0000000000000b49                _dos_freemem
 .fartext.f.syslseek.c.31427$
                0x0000000000000b5a       0x17 /usr/lib/x86_64-linux-gnu/gcc/ia16-elf/6.3.0/../../../../../ia16-elf/lib/medium/regparmcall/libc.a(lib_a-syslseek.o)
                0x0000000000000b5a                lseek
 .fartext.f.mbtowc_r.c.11727$
                0x0000000000000b71      0x718 /usr/lib/x86_64-linux-gnu/gcc/ia16-elf/6.3.0/../../../../../ia16-elf/lib/medium/regparmcall/libc.a(lib_a-mbtowc_r.o)
                0x0000000000000b71                __ascii_mbtowc
                0x0000000000000ba5                _mbtowc_r
                0x0000000000000bd7                __utf8_mbtowc
                0x0000000000000f30                __sjis_mbtowc
                0x0000000000000ff6                __eucjp_mbtowc
                0x000000000000111b                __jis_mbtowc
                0x0000000000001290                . = ALIGN (0x10)
 *fill*         0x0000000000001289        0x7 

.fartext.30$    0x0000000000000000      0x190 load address 0x000000000000b7b0
 *(.fartext.*30 .fartext.*30$)
 .fartext.f.hu_lib.c.67630$
                0x0000000000000000      0x189 /tmp/ccKXMMCH.o
                0x0000000000000000                HUlib_addCharToTextLine
                0x000000000000002b                HUlib_drawTextLine
                0x00000000000000ae                HUlib_eraseTextLine
                0x000000000000012e                HUlib_addMessageToSText
                0x0000000000000190                . = ALIGN (0x10)
 *fill*         0x0000000000000189        0x7 

.fartext.31$    0x0000000000000000     0x1150 load address 0x000000000000b940
 *(.fartext.*31 .fartext.*31$)
 .fartext.f.r_bsp.c.42231$
                0x0000000000000000      0x7ce /tmp/ccmCZnzK.o
                0x0000000000000000                R_ClearDrawSegs
                0x000000000000000d                R_ClipSolidWallSegment
                0x00000000000000ec                R_ClipPassWallSegment
                0x0000000000000145                R_ClearClipSegs
                0x0000000000000163                R_AddLine
                0x00000000000003c1                R_CheckBBox
                0x00000000000005b9                R_Subsector
                0x000000000000069b                R_RenderBSPNode
 .fartext.f.r_data.c.33331$
                0x00000000000007ce      0x940 /tmp/cctz3Ysd.o
                0x00000000000007ce                R_DrawColumnInCache
                0x0000000000000835                R_GetNextCompositeBlock
                0x0000000000000922                R_GetNextPatchBlock
                0x0000000000000a18                R_GetNextSpriteBlock
                0x0000000000000b0e                R_GenerateComposite
                0x0000000000000c4c                gettexturepage
                0x0000000000000ee1                getpatchtexture
                0x0000000000000f87                getcompositetexture
                0x0000000000001027                getspritetexture
                0x00000000000010cd                R_GetColumn
 .fartext.f.ffree.c.07731$
                0x000000000000110e        0x6 /usr/lib/x86_64-linux-gnu/gcc/ia16-elf/6.3.0/../../../../../ia16-elf/lib/medium/regparmcall/libi86.a(ffree.o)
                0x000000000000110e                _ffree
 .fartext.f.fiscanf.c.57431$
                0x0000000000001114       0x32 /usr/lib/x86_64-linux-gnu/gcc/ia16-elf/6.3.0/../../../../../ia16-elf/lib/medium/regparmcall/libc.a(lib_a-fiscanf.o)
                0x0000000000001114                fiscanf
                0x0000000000001130                _fiscanf_r
                0x0000000000001150                . = ALIGN (0x10)
 *fill*         0x0000000000001146        0xa 

.fartext.32$    0x0000000000000000      0xc50 load address 0x000000000000ca90
 *(.fartext.*32 .fartext.*32$)
 .fartext.f.p_switch.c.05432$
                0x0000000000000000      0x76f /tmp/ccloZeTM.o
                0x0000000000000000                P_StartButton
                0x0000000000000084                P_ChangeSwitchTexture
                0x00000000000001ff                P_UseSpecialLine
 .fartext.f.findfp.c.32632$
                0x000000000000076f      0x1df /usr/lib/x86_64-linux-gnu/gcc/ia16-elf/6.3.0/../../../../../ia16-elf/lib/medium/regparmcall/libc.a(lib_a-findfp.o)
                0x000000000000076f                _cleanup_r
                0x00000000000007f2                __sfmoreglue
                0x0000000000000838                _cleanup
                0x000000000000083e                __sinit
                0x00000000000008b5                __sfp
 .fartext.f.nano_mallocr.c.47332$
                0x000000000000094e       0xce /usr/lib/x86_64-linux-gnu/gcc/ia16-elf/6.3.0/../../../../../ia16-elf/lib/medium/regparmcall/libc.a(lib_a-nano-freer.o)
                0x000000000000094e                _free_r
 .fartext.f.nano_mallocr.c.47332$
                0x0000000000000a1c      0x147 /usr/lib/x86_64-linux-gnu/gcc/ia16-elf/6.3.0/../../../../../ia16-elf/lib/medium/regparmcall/libc.a(lib_a-nano-mallocr.o)
                0x0000000000000a1c                _malloc_r
 .fartext.f.nano_mallocr.c.47332$
                0x0000000000000b63       0x69 /usr/lib/x86_64-linux-gnu/gcc/ia16-elf/6.3.0/../../../../../ia16-elf/lib/medium/regparmcall/libc.a(lib_a-nano-reallocr.o)
                0x0000000000000b63                _realloc_r
 .fartext.f.nano_mallocr.c.47332$
                0x0000000000000bcc       0x1a /usr/lib/x86_64-linux-gnu/gcc/ia16-elf/6.3.0/../../../../../ia16-elf/lib/medium/regparmcall/libc.a(lib_a-nano-msizer.o)
                0x0000000000000bcc                _malloc_usable_size_r
 .fartext.f.dos_access.c.21632$
                0x0000000000000be6       0x68 /usr/lib/x86_64-linux-gnu/gcc/ia16-elf/6.3.0/../../../../../ia16-elf/lib/medium/regparmcall/libdos-m.a(dos-access.o)
                0x0000000000000be6                access
                0x0000000000000c50                . = ALIGN (0x10)
 *fill*         0x0000000000000c4e        0x2 

.fartext.33$    0x0000000000000000     0x1540 load address 0x000000000000d6e0
 *(.fartext.*33 .fartext.*33$)
 .fartext.f.r_segs.c.70233$
                0x0000000000000000     0x1381 /tmp/ccnVnEoI.o
                0x0000000000000000                R_RenderMaskedSegRange
                0x000000000000040d                R_RenderSegLoop
                0x000000000000085d                R_StoreWallRange
 .fartext.f.st_lib.c.40633$
                0x0000000000001381      0x1b0 /tmp/ccFadrpy.o
                0x0000000000001381                STlib_updateflag
                0x0000000000001393                STlib_drawNum
                0x0000000000001473                STlib_updatePercent
                0x00000000000014a5                STlib_updateMultIcon
                0x0000000000001540                . = ALIGN (0x10)
 *fill*         0x0000000000001531        0xf 

.fartext.34$    0x0000000000000000      0xcf0 load address 0x000000000000ec20
 *(.fartext.*34 .fartext.*34$)
 .fartext.f.w_wad.c.51634$
                0x0000000000000000      0x376 /tmp/ccAji60c.o
                0x0000000000000000                _far_fread
                0x0000000000000066                _far_read
                0x00000000000000c3                _far_fwrite
                0x0000000000000126                _fstrncpy
                0x0000000000000130                W_CheckNumForName
                0x00000000000001bd                W_GetNumForName
                0x00000000000001c0                W_LumpLength5000
                0x00000000000001eb                W_LumpLength4000
                0x0000000000000216                W_LumpLength
                0x000000000000023c                W_ReadLump
                0x0000000000000330                W_CacheLumpNameDirect
                0x0000000000000352                W_CacheLumpNumDirect
                0x000000000000035f                W_CacheLumpNumDirectFragment
 .fartext.f.hu_setup.c.72434$
                0x0000000000000376       0xc2 /tmp/ccChX4pF.o
                0x0000000000000376                HU_Start
 .fartext.s.__udivdi3.64734$
                0x0000000000000438      0x8af /usr/lib/x86_64-linux-gnu/gcc/ia16-elf/6.3.0/medium/regparmcall/libgcc.a(_udivdi3.o)
                0x0000000000000438                __udivdi3
                0x0000000000000cf0                . = ALIGN (0x10)
 *fill*         0x0000000000000ce7        0x9 

.fartext.35$    0x0000000000000000       0x20 load address 0x000000000000f910
 *(.fartext.*35 .fartext.*35$)
 .fartext.f.wi_stuff.c.45435$
                0x0000000000000000        0x5 /tmp/ccooxdNr.o
                0x0000000000000000                WI_Start
                0x0000000000000001                WI_Init
                0x0000000000000002                WI_Drawer
                0x0000000000000003                WI_End
                0x0000000000000004                WI_Ticker
 .fartext.f.dos_allocmem.c.10035$
                0x0000000000000005       0x1b /usr/lib/x86_64-linux-gnu/gcc/ia16-elf/6.3.0/../../../../../ia16-elf/lib/medium/regparmcall/libi86.a(dos-allocmem.o)
                0x0000000000000005                _dos_allocmem
                0x0000000000000020                . = ALIGN (0x10)

.fartext.36$    0x0000000000000000     0x1660 load address 0x000000000000f930
 *(.fartext.*36 .fartext.*36$)
 .fartext.f.p_init.c.27136$
                0x0000000000000000      0x3c6 /tmp/ccSifH9N.o
                0x0000000000000000                P_InitSwitchList
                0x00000000000000b2                P_InitPicAnims
                0x0000000000000164                R_InstallSpriteLump
                0x00000000000001d1                R_InitSpriteDefs
                0x000000000000038e                R_InitSprites
                0x00000000000003ab                P_Init
 .fartext.f.p_setup.c.63536$
                0x00000000000003c6     0x121e /tmp/ccHDlBrQ.o
                0x00000000000003c6                Z_GetNext0x6000Address
                0x00000000000003e3                Z_GetNext0x7000Address
                0x0000000000000429                Z_Subtract0x7000Address
                0x000000000000043f                P_LoadVertexes
                0x00000000000004b2                P_LoadSegs
                0x00000000000006c2                P_LoadSubsectors
                0x0000000000000753                R_FlatNumForName
                0x000000000000075d                P_LoadSectors
                0x00000000000008f3                P_LoadNodes
                0x0000000000000a31                P_SetupPsprites
                0x0000000000000a53                P_SpawnPlayer
                0x0000000000000b1c                getDoomEdNum
                0x0000000000000b31                P_SpawnMapThing
                0x0000000000000cbf                P_SpawnSpecials
                0x0000000000000de0                P_LoadThings
                0x0000000000000e8e                P_LoadLineDefs
                0x00000000000010d4                R_TextureNumForName
                0x00000000000010fd                P_LoadSideDefs
                0x000000000000120b                P_LoadBlockMap
                0x000000000000126f                P_GroupLines
                0x00000000000014b0                P_InitThinkers
                0x00000000000014db                P_SetupLevel
 .fartext.f.iprintf.c.35236$
                0x00000000000015e4       0x70 /usr/lib/x86_64-linux-gnu/gcc/ia16-elf/6.3.0/../../../../../ia16-elf/lib/medium/regparmcall/libc.a(lib_a-iprintf.o)
                0x00000000000015e4                iprintf
                0x000000000000161e                _iprintf_r
                0x0000000000001660                . = ALIGN (0x10)
 *fill*         0x0000000000001654        0xc 

.fartext.37$    0x0000000000000000       0x10 load address 0x0000000000010f90
 *(.fartext.*37 .fartext.*37$)
 .fartext.f.i_main.c.04637$
                0x0000000000000000        0xf /tmp/ccdWvIGc.o
                0x0000000000000000                main
                0x0000000000000010                . = ALIGN (0x10)
 *fill*         0x000000000000000f        0x1 

.fartext.40$    0x0000000000000000     0x23b0 load address 0x0000000000010fa0
 *(.fartext.*40 .fartext.*40$)
 .fartext.f.vfscanf.c.75240$
                0x0000000000000000      0xd7e /usr/lib/x86_64-linux-gnu/gcc/ia16-elf/6.3.0/../../../../../ia16-elf/lib/medium/regparmcall/libc.a(lib_a-svfiscanf.o)
                0x0000000000000000                _sungetc_r
                0x0000000000000091                __ssrefill_r
                0x00000000000000d2                _sfread_r
                0x000000000000014c                __ssvfiscanf_r
 .fartext.f.vfscanf.c.75240$
                0x0000000000000d7e      0xcf7 /usr/lib/x86_64-linux-gnu/gcc/ia16-elf/6.3.0/../../../../../ia16-elf/lib/medium/regparmcall/libc.a(lib_a-vfiscanf.o)
                0x0000000000000d7e                __svfiscanf_r
                0x00000000000019bf                vfiscanf
                0x0000000000001a17                __svfiscanf
                0x0000000000001a23                _vfiscanf_r
 .fartext.f.locale.c.25340$
                0x0000000000001a75      0x931 /usr/lib/x86_64-linux-gnu/gcc/ia16-elf/6.3.0/../../../../../ia16-elf/lib/medium/regparmcall/libc.a(lib_a-locale.o)
                0x000000000000213c                _setlocale_r
                0x0000000000002385                __locale_charset
                0x0000000000002389                __locale_mb_cur_max
                0x000000000000238d                __locale_msgcharset
                0x0000000000002391                __locale_cjk_lang
                0x0000000000002395                _localeconv_r
                0x0000000000002399                setlocale
                0x00000000000023a2                localeconv
                0x00000000000023b0                . = ALIGN (0x10)
 *fill*         0x00000000000023a6        0xa 

.fartext.41$    0x0000000000000000     0x1ab0 load address 0x0000000000013350
 *(.fartext.*41 .fartext.*41$)
 .fartext.f.p_spec.c.26441$
                0x0000000000000000      0xdbb /tmp/ccfeytV8.o
                0x0000000000000000                getSideNum
                0x0000000000000035                getSector
                0x0000000000000078                twoSided
                0x00000000000000ad                getNextSectorList
                0x0000000000000127                P_FindLowestFloorSurrounding
                0x00000000000001ba                P_FindHighestFloorSurrounding
                0x000000000000024e                P_FindNextHighestFloor
                0x0000000000000335                P_FindLowestCeilingSurrounding
                0x00000000000003ca                P_FindHighestCeilingSurrounding
                0x000000000000045e                P_FindSectorsFromLineTag
                0x00000000000004c1                P_FindMinSurroundingLight
                0x0000000000000557                P_CrossSpecialLine
                0x0000000000000837                P_ShootSpecialLine
                0x00000000000008e7                P_PlayerInSpecialSector
                0x00000000000009d3                P_UpdateSpecials
                0x0000000000000b77                EV_DoDonut
 .fartext.f.z_umb.c.15141$
                0x0000000000000dbb      0x18e /tmp/ccsVuJZl.o
                0x0000000000000dbb                Z_InitUMBDOS
                0x0000000000000f0f                Z_InitUMB
 .fartext.f.fflush.c.15641$
                0x0000000000000f49      0x270 /usr/lib/x86_64-linux-gnu/gcc/ia16-elf/6.3.0/../../../../../ia16-elf/lib/medium/regparmcall/libc.a(lib_a-fflush.o)
                0x0000000000000f49                __sflush_r
                0x0000000000001143                _fflush_r
                0x00000000000011a1                fflush
 .fartext.s.__umoddi3.16641$
                0x00000000000011b9      0x8e8 /usr/lib/x86_64-linux-gnu/gcc/ia16-elf/6.3.0/medium/regparmcall/libgcc.a(_umoddi3.o)
                0x00000000000011b9                __umoddi3
                0x0000000000001ab0                . = ALIGN (0x10)
 *fill*         0x0000000000001aa1        0xf 

.fartext.42$    0x0000000000000000     0x3170 load address 0x0000000000014e00
 *(.fartext.*42 .fartext.*42$)
 .fartext.f.i_init.c.01642$
                0x0000000000000000       0x9c /tmp/ccx4UaLN.o
                0x0000000000000000                I_StartupMouse
                0x0000000000000042                I_StartupKeyboard
                0x000000000000006c                I_Init
 .fartext.f.p_map.c.35342$
                0x000000000000009c     0x21e6 /tmp/cc0JoFl7.o
                0x000000000000009c                PIT_StompThing
                0x0000000000000196                PIT_CheckLine
                0x0000000000000240                PIT_CheckThing
                0x000000000000052a                PTR_SlideTraverse
                0x000000000000066a                PTR_AimTraverse
                0x000000000000092b                PTR_ShootTraverse
                0x0000000000000d91                PTR_UseTraverse
                0x0000000000000e59                PIT_RadiusAttack
                0x0000000000000f7e                P_TeleportMove
                0x0000000000001174                P_CheckPosition
                0x00000000000013fe                P_TryMove
                0x0000000000001684                P_ThingHeightClip
                0x000000000000176e                PIT_ChangeSector
                0x00000000000018c9                P_HitSlideLine
                0x0000000000001a20                P_SlideMove
                0x0000000000001e02                P_AimLineAttack
                0x0000000000001f55                P_LineAttack
                0x0000000000002079                P_UseLines
                0x0000000000002115                P_RadiusAttack
                0x00000000000021e5                P_ChangeSector
 .fartext.f.p_user.c.63442$
                0x0000000000002282      0x663 /tmp/ccrPLpfy.o
                0x0000000000002282                P_Thrust
                0x0000000000002304                P_CalcHeight
                0x00000000000024e0                P_MovePlayer
                0x00000000000025bf                P_DeathThink
                0x00000000000026ee                P_PlayerThink
 .fartext.f.st_stuff.c.05642$
                0x00000000000028e5      0x849 /tmp/ccxi7GyK.o
                0x00000000000028e5                ST_refreshBackground
                0x0000000000002912                ST_Responder
                0x0000000000002c76                ST_calcPainOffset
                0x0000000000002ca4                ST_updateFaceWidget
                0x0000000000002eeb                ST_updateWidgets
                0x0000000000002f3c                ST_Ticker
                0x0000000000002f4f                ST_doPaletteStuff
                0x0000000000002fcf                ST_drawWidgets
                0x00000000000030cb                ST_Drawer
                0x000000000000312d                ST_unloadGraphics
 .fartext.f.strlcpy.c.64742$
                0x000000000000312e       0x41 /usr/lib/x86_64-linux-gnu/gcc/ia16-elf/6.3.0/../../../../../ia16-elf/lib/medium/regparmcall/libc.a(lib_a-strlcpy.o)
                0x000000000000312e                strlcpy
                0x0000000000003170                . = ALIGN (0x10)
 *fill*         0x000000000000316f        0x1 

.fartext.43$    0x0000000000000000      0x210 load address 0x0000000000017f70
 *(.fartext.*43 .fartext.*43$)
 .fartext.f.refill.c.22143$
                0x0000000000000000      0x140 /usr/lib/x86_64-linux-gnu/gcc/ia16-elf/6.3.0/../../../../../ia16-elf/lib/medium/regparmcall/libc.a(lib_a-refill.o)
                0x0000000000000015                __srefill_r
 .fartext.f.stdio.c.43743$
                0x0000000000000140       0xcb /usr/lib/x86_64-linux-gnu/gcc/ia16-elf/6.3.0/../../../../../ia16-elf/lib/medium/regparmcall/libc.a(lib_a-stdio.o)
                0x0000000000000140                __sread
                0x0000000000000175                __seofread
                0x000000000000017a                __swrite
                0x00000000000001bd                __sseek
                0x00000000000001fc                __sclose
                0x0000000000000206                __stextmode
                0x0000000000000210                . = ALIGN (0x10)
 *fill*         0x000000000000020b        0x5 

.fartext.44$    0x0000000000000000        0x0 load address 0x0000000000018180
 *(.fartext.*44 .fartext.*44$)
                0x0000000000000000                . = ALIGN (0x10)

.fartext.45$    0x0000000000000000       0xc0 load address 0x0000000000018180
 *(.fartext.*45 .fartext.*45$)
 .fartext.f.ctype_.c.03145$
                0x0000000000000000        0x7 /usr/lib/x86_64-linux-gnu/gcc/ia16-elf/6.3.0/../../../../../ia16-elf/lib/medium/regparmcall/libc.a(lib_a-ctype_.o)
                0x0000000000000000                __set_ctype
 .fartext.f.exit.c.23645$
                0x0000000000000007       0x32 /usr/lib/x86_64-linux-gnu/gcc/ia16-elf/6.3.0/../../../../../ia16-elf/lib/medium/regparmcall/libc.a(lib_a-exit.o)
                0x0000000000000007                exit
 .fartext.f.feof.c.14145$
                0x0000000000000039       0x44 /usr/lib/x86_64-linux-gnu/gcc/ia16-elf/6.3.0/../../../../../ia16-elf/lib/medium/regparmcall/libc.a(lib_a-feof.o)
                0x0000000000000039                feof
 .fartext.s.__ashrsi3.44445$
                0x000000000000007d       0x36 /usr/lib/x86_64-linux-gnu/gcc/ia16-elf/6.3.0/medium/regparmcall/libgcc.a(_ashrsi3.o)
                0x000000000000007d                __ashrsi3
                0x00000000000000c0                . = ALIGN (0x10)
 *fill*         0x00000000000000b3        0xd 

.fartext.46$    0x0000000000000000      0xcc0 load address 0x0000000000018240
 *(.fartext.*46 .fartext.*46$)
 .fartext.f.g_game.c.50346$
                0x0000000000000000      0xcb6 /tmp/ccgwqY45.o
                0x0000000000000000                G_BuildTiccmd
                0x000000000000045b                G_Responder
                0x0000000000000606                G_PlayerFinishLevel
                0x0000000000000645                G_PlayerReborn
                0x00000000000006a5                G_ExitLevel
                0x00000000000006b0                G_SecretExitLevel
                0x00000000000006d5                G_DoCompleted
                0x000000000000084e                G_WorldDone
                0x000000000000088e                G_LoadGame
                0x000000000000088f                G_DoLoadGame
                0x0000000000000890                G_SaveGame
                0x00000000000008a1                G_DoSaveGame
                0x00000000000008a2                G_DeferedInitNew
                0x00000000000008b3                G_RecordDemo
                0x00000000000008f8                G_BeginRecording
                0x0000000000000962                G_DeferedPlayDemo
                0x000000000000096b                G_DoPlayDemo
                0x00000000000009e6                G_TimeDemo
                0x0000000000000a13                G_CheckDemoStatus
                0x0000000000000ad0                G_ReadDemoTiccmd
                0x0000000000000b22                G_WriteDemoTiccmd
                0x0000000000000b7d                G_Ticker
                0x0000000000000cc0                . = ALIGN (0x10)
 *fill*         0x0000000000000cb6        0xa 

.fartext.47$    0x0000000000000000       0xb0 load address 0x0000000000018f00
 *(.fartext.*47 .fartext.*47$)
 .fartext.s.__lshrdi3.77147$
                0x0000000000000000       0xad /usr/lib/x86_64-linux-gnu/gcc/ia16-elf/6.3.0/medium/regparmcall/libgcc.a(_lshrdi3.o)
                0x0000000000000000                __lshrdi3
                0x00000000000000b0                . = ALIGN (0x10)
 *fill*         0x00000000000000ad        0x3 

.fartext.50$    0x0000000000000000      0x7a0 load address 0x0000000000018fb0
 *(.fartext.*50 .fartext.*50$)
 .fartext.f.g_setup.c.16150$
                0x0000000000000000      0x2ca /tmp/ccd4J8em.o
                0x0000000000000000                R_CheckTextureNumForName
                0x000000000000005c                G_DoLoadLevel
                0x00000000000000d5                G_InitNew
                0x0000000000000280                G_DoNewGame
                0x00000000000002ae                G_DoWorldDone
 .fartext.f.p_plats.c.30150$
                0x00000000000002ca      0x4c0 /tmp/ccHBg70s.o
                0x00000000000002ca                P_ActivateInStasis
                0x0000000000000310                EV_StopPlat
                0x0000000000000362                P_AddActivePlat
                0x000000000000037d                EV_DoPlat
                0x00000000000005c1                P_RemoveActivePlat
                0x0000000000000611                T_PlatRaise
 .fartext.f.syswrite.c.23550$
                0x000000000000078a        0xd /usr/lib/x86_64-linux-gnu/gcc/ia16-elf/6.3.0/../../../../../ia16-elf/lib/medium/regparmcall/libc.a(lib_a-syswrite.o)
                0x000000000000078a                write
                0x00000000000007a0                . = ALIGN (0x10)
 *fill*         0x0000000000000797        0x9 

.fartext.51$    0x0000000000000000      0x3b0 load address 0x0000000000019750
 *(.fartext.*51 .fartext.*51$)
 .fartext.f.i_sound.c.32751$
                0x0000000000000000       0x7a /tmp/ccrVjDZV.o
                0x0000000000000000                I_StartupTimer
                0x000000000000001b                I_PauseSong
                0x000000000000001c                I_ResumeSong
                0x000000000000001d                I_SetMusicVolume
                0x0000000000000021                I_SetSfxVolume
                0x0000000000000025                I_RegisterSong
                0x0000000000000029                I_UnRegisterSong
                0x000000000000002a                I_QrySongPlaying
                0x000000000000002e                I_StopSong
                0x000000000000002f                I_PlaySong
                0x0000000000000030                I_GetSfxLumpNum
                0x000000000000005f                I_StartSound
                0x000000000000006a                I_StopSound
                0x000000000000006b                I_SoundIsPlaying
                0x000000000000006e                I_UpdateSoundParams
                0x0000000000000076                I_sndArbitrateCards
                0x0000000000000077                I_StartupSound
                0x0000000000000079                I_SetChannels
 .fartext.f.fclose.c.11151$
                0x000000000000007a       0xeb /usr/lib/x86_64-linux-gnu/gcc/ia16-elf/6.3.0/../../../../../ia16-elf/lib/medium/regparmcall/libc.a(lib_a-fclose.o)
                0x000000000000007a                _fclose_r
                0x000000000000015e                fclose
 .fartext.f.makebuf.c.17751$
                0x0000000000000165       0xbd /usr/lib/x86_64-linux-gnu/gcc/ia16-elf/6.3.0/../../../../../ia16-elf/lib/medium/regparmcall/libc.a(lib_a-makebuf.o)
                0x0000000000000165                __swhatbuf_r
                0x0000000000000195                __smakebuf_r
 .fartext.f.wsetup.c.45451$
                0x0000000000000222       0xec /usr/lib/x86_64-linux-gnu/gcc/ia16-elf/6.3.0/../../../../../ia16-elf/lib/medium/regparmcall/libc.a(lib_a-wsetup.o)
                0x0000000000000222                __swsetup_r
 .fartext.f.getenv_r.c.52551$
                0x000000000000030e       0x95 /usr/lib/x86_64-linux-gnu/gcc/ia16-elf/6.3.0/../../../../../ia16-elf/lib/medium/regparmcall/libc.a(lib_a-getenv_r.o)
                0x000000000000030e                _findenv_r
                0x0000000000000394                _getenv_r
                0x00000000000003b0                . = ALIGN (0x10)
 *fill*         0x00000000000003a3        0xd 

.fartext.52$    0x0000000000000000     0x3860 load address 0x0000000000019b00
 *(.fartext.*52 .fartext.*52$)
 .fartext.f.p_enemy.c.23552$
                0x0000000000000000     0x2e34 /tmp/ccBS9DOf.o
                0x0000000000000000                PIT_VileCheck
                0x0000000000000173                P_RecursiveSound
                0x000000000000026b                P_NoiseAlert
                0x000000000000027f                P_CheckMeleeRange
                0x000000000000035e                P_CheckMissileRange
                0x00000000000004b8                P_Move
                0x0000000000000674                P_TryWalk
                0x00000000000006a1                P_NewChaseDir
                0x0000000000000970                P_LookForPlayers
                0x0000000000000a8e                A_KeenDie
                0x0000000000000b02                A_Look
                0x0000000000000c12                A_Chase
                0x0000000000000e25                A_FaceTarget
                0x0000000000000ecc                A_PosAttack
                0x0000000000000f74                A_SPosAttack
                0x000000000000102e                A_CPosAttack
                0x00000000000010dc                A_CPosRefire
                0x0000000000001168                A_SpidRefire
                0x00000000000011f4                A_BspiAttack
                0x0000000000001235                A_TroopAttack
                0x00000000000012be                A_SargAttack
                0x000000000000130b                A_HeadAttack
                0x0000000000001386                A_CyberAttack
                0x00000000000013c7                A_BruisAttack
                0x000000000000143e                A_SkelMissile
                0x0000000000001508                A_Tracer
                0x0000000000001854                A_SkelWhoosh
                0x0000000000001879                A_SkelFist
                0x00000000000018d4                A_VileChase
                0x0000000000001b11                A_VileStart
                0x0000000000001b18                A_Fire
                0x0000000000001c57                A_FireCrackle
                0x0000000000001c85                A_StartFire
                0x0000000000001cb3                A_VileTarget
                0x0000000000001d4f                A_VileAttack
                0x0000000000001ee7                A_FatRaise
                0x0000000000001efe                A_FatAttack1
                0x0000000000002047                A_FatAttack2
                0x000000000000218c                A_FatAttack3
                0x000000000000232a                A_SkullAttack
                0x00000000000024af                A_PainShootSkull
                0x000000000000265d                A_PainAttack
                0x00000000000026a0                A_PainDie
                0x00000000000026f8                A_Scream
                0x0000000000002773                A_XScream
                0x000000000000277a                A_Pain
                0x000000000000279c                A_Fall
                0x00000000000027b3                A_Explode
                0x00000000000027da                A_BossDeath
                0x00000000000028cf                A_Hoof
                0x00000000000028fd                A_Metal
                0x000000000000292b                A_BabyMetal
                0x0000000000002959                A_OpenShotgun2
                0x0000000000002966                A_LoadShotgun2
                0x0000000000002973                A_CloseShotgun2
                0x0000000000002989                A_BrainAwake
                0x00000000000029fb                A_BrainPain
                0x0000000000002a06                A_BrainScream
                0x0000000000002ada                A_BrainExplode
                0x0000000000002b86                A_BrainDie
                0x0000000000002b8b                A_BrainSpit
                0x0000000000002c80                A_SpawnFly
                0x0000000000002de1                A_SpawnSound
                0x0000000000002e0f                A_PlayerScream
 .fartext.f.r_main.c.15752$
                0x0000000000002e34      0x90c /tmp/ccU4AkX7.o
                0x0000000000002e34                R_PointOnSide
                0x0000000000002f0f                R_PointOnSegSide
                0x0000000000002fe6                R_PointToAngle
                0x0000000000003396                R_PointToAngle16
                0x00000000000033a2                R_PointToAngle2
                0x00000000000033cd                R_PointToAngle2_16
                0x00000000000033f1                R_PointToDist
                0x0000000000003492                R_ScaleFromGlobalAngle
                0x0000000000003538                R_SetViewSize
                0x0000000000003545                R_PointInSubsector
                0x000000000000359f                R_SetupFrame
                0x000000000000366f                R_RenderPlayerView
 .fartext.f.strupr.c.66452$
                0x0000000000003740       0x30 /usr/lib/x86_64-linux-gnu/gcc/ia16-elf/6.3.0/../../../../../ia16-elf/lib/medium/regparmcall/libc.a(lib_a-strupr.o)
                0x0000000000003740                strupr
 .fartext.f.dos_openr.c.71252$
                0x0000000000003770       0xe6 /usr/lib/x86_64-linux-gnu/gcc/ia16-elf/6.3.0/../../../../../ia16-elf/lib/medium/regparmcall/libdos-m.a(dos-openr.o)
                0x0000000000003770                _open_r
                0x0000000000003860                . = ALIGN (0x10)
 *fill*         0x0000000000003856        0xa 

.fartext.53$    0x0000000000000000       0x60 load address 0x000000000001d360
 *(.fartext.*53 .fartext.*53$)
 .fartext.f.putchar.c.26353$
                0x0000000000000000       0x58 /usr/lib/x86_64-linux-gnu/gcc/ia16-elf/6.3.0/../../../../../ia16-elf/lib/medium/regparmcall/libc.a(lib_a-putchar.o)
                0x0000000000000000                _putchar_r
                0x0000000000000029                putchar
                0x0000000000000060                . = ALIGN (0x10)
 *fill*         0x0000000000000058        0x8 

.fartext.54$    0x0000000000000000     0x1660 load address 0x000000000001d3c0
 *(.fartext.*54 .fartext.*54$)
 .fartext.f.p_floor.c.32054$
                0x0000000000000000      0x895 /tmp/ccMbpb2d.o
                0x0000000000000000                T_MovePlane
                0x0000000000000139                T_MoveFloor
                0x0000000000000217                EV_DoFloor
                0x00000000000006c9                EV_BuildStairs
 .fartext.f.p_inter.c.40254$
                0x0000000000000895      0xcbe /tmp/cc2FB5MW.o
                0x0000000000000895                P_GiveAmmo
                0x0000000000000992                P_GiveWeapon
                0x00000000000009e4                P_GiveBody
                0x0000000000000a16                P_GiveArmor
                0x0000000000000a2e                P_GiveCard
                0x0000000000000a43                P_GivePower
                0x0000000000000abe                P_TouchSpecialThing
                0x0000000000000f84                P_KillMobj
                0x0000000000001143                P_DamageMobj
 .fartext.f.info.c.63554$
                0x0000000000001553      0x106 /tmp/ccedHFxF.o
                0x0000000000001553                getPainChance
                0x0000000000001565                getRaiseState
                0x0000000000001579                getXDeathState
                0x000000000000158b                getMeleeState
                0x000000000000159f                getMobjMass
                0x00000000000015bb                getActiveSound
                0x00000000000015cc                getPainSound
                0x00000000000015dc                getAttackSound
                0x00000000000015ed                getDamage
                0x00000000000015fe                getSeeState
                0x0000000000001610                getMissileState
                0x0000000000001622                getDeathState
                0x0000000000001634                getPainState
                0x0000000000001646                getSpawnHealth
                0x0000000000001660                . = ALIGN (0x10)
 *fill*         0x0000000000001659        0x7 

.fartext.55$    0x0000000000000000        0x0 load address 0x000000000001ea20
 *(.fartext.*55 .fartext.*55$)
                0x0000000000000000                . = ALIGN (0x10)

.fartext.56$    0x0000000000000000     0x13f0 load address 0x000000000001ea20
 *(.fartext.*56 .fartext.*56$)
 .fartext.f.m_misc.c.45056$
                0x0000000000000000      0x115 /tmp/ccwCcec4.o
                0x0000000000000000                M_CheckParm
                0x0000000000000037                P_Random
                0x0000000000000047                M_Random
                0x0000000000000057                M_ClearRandom
                0x0000000000000064                M_AddToBox16
                0x000000000000008e                M_WriteFile
                0x00000000000000ba                M_SaveDefaults
 .fartext.f.r_things.c.65556$
                0x0000000000000115     0x114e /tmp/ccuVxVXF.o
                0x0000000000000115                R_ClearSprites
                0x0000000000000122                R_DrawMaskedColumn
                0x000000000000024e                R_DrawVisSprite
                0x0000000000000365                R_ProjectSprite
                0x0000000000000815                R_AddSprites
                0x00000000000008a0                R_DrawPSprite
                0x0000000000000be1                R_DrawPlayerSprites
                0x0000000000000ca6                R_SortVisSprites
                0x0000000000000e32                R_DrawSprite
                0x00000000000011cf                R_DrawMasked
 .fartext.f.hu_stuff.c.24656$
                0x0000000000001263      0x17e /tmp/cc1o6kRN.o
                0x0000000000001263                HU_Drawer
                0x00000000000012c1                HU_Erase
                0x0000000000001304                HU_Ticker
                0x0000000000001397                HU_Responder
                0x00000000000013f0                . = ALIGN (0x10)
 *fill*         0x00000000000013e1        0xf 

.fartext.57$    0x0000000000000000      0x210 load address 0x000000000001fe10
 *(.fartext.*57 .fartext.*57$)
 .fartext.f.strncasecmp.c.45257$
                0x0000000000000000       0x76 /usr/lib/x86_64-linux-gnu/gcc/ia16-elf/6.3.0/../../../../../ia16-elf/lib/medium/regparmcall/libc.a(lib_a-strncasecmp.o)
                0x0000000000000000                strncasecmp
 .fartext.f.ungetc.c.44357$
                0x0000000000000076      0x191 /usr/lib/x86_64-linux-gnu/gcc/ia16-elf/6.3.0/../../../../../ia16-elf/lib/medium/regparmcall/libc.a(lib_a-ungetc.o)
                0x0000000000000076                __submore
                0x0000000000000101                _ungetc_r
                0x00000000000001fe                ungetc
                0x0000000000000210                . = ALIGN (0x10)
 *fill*         0x0000000000000207        0x9 

.fartext.60$    0x0000000000000000        0x0 load address 0x0000000000020020
 *(.fartext.*60 .fartext.*60$)
                0x0000000000000000                . = ALIGN (0x10)

.fartext.61$    0x0000000000000000      0x9d0 load address 0x0000000000020020
 *(.fartext.*61 .fartext.*61$)
 .fartext.f.z_zone.c.01461$
                0x0000000000000000      0x9ac /tmp/ccn81c78.o
                0x0000000000000000                Z_MallocConventional
                0x000000000000003a                Z_QuickmapPhysics
                0x00000000000000d0                Z_QuickmapDemo
                0x0000000000000109                Z_QuickmapRender7000to6000
                0x000000000000013d                Z_QuickmapRender
                0x00000000000001d6                Z_FreeConventionalAllocations
                0x000000000000035a                Z_QuickmapRender_NoTex
                0x00000000000003ee                Z_QuickmapRenderTexture
                0x0000000000000427                Z_QuickmapStatus
                0x000000000000045b                Z_QuickmapScratch_5000
                0x000000000000048e                Z_QuickmapScratch_4000
                0x00000000000004cb                Z_QuickmapScreen0
                0x00000000000004f8                Z_PushScratchFrame
                0x0000000000000546                Z_PopScratchFrame
                0x00000000000005a1                Z_QuickMapFlatPage
                0x00000000000005e5                Z_QuickMapTextureInfoPage
                0x0000000000000612                Z_RemapScratchFrame
                0x0000000000000676                Z_QuickmapTrig
                0x00000000000006a9                Z_QuickmapLumpInfo
                0x000000000000070a                Z_UnmapLumpInfo
                0x000000000000071c                Z_QuickmapLumpInfo5000
                0x000000000000077d                Z_UnmapLumpInfo5000
                0x00000000000007aa                Z_QuickmapPalette
                0x00000000000007de                Z_QuickmapMenu
                0x0000000000000812                Z_QuickmapIntermission
                0x0000000000000877                Z_QuickmapWipe
                0x00000000000008dc                Z_QuickmapByTaskNum
                0x0000000000000910                Z_ClearDeadCode
                0x0000000000000924                DUMP_4000_TO_FILE
                0x0000000000000967                DUMP_MEMORY_TO_FILE
 .fartext.f.atoi.c.71461$
                0x00000000000009ac       0x17 /usr/lib/x86_64-linux-gnu/gcc/ia16-elf/6.3.0/../../../../../ia16-elf/lib/medium/regparmcall/libc.a(lib_a-atoi.o)
                0x00000000000009ac                atoi
                0x00000000000009b7                _atoi_r
                0x00000000000009d0                . = ALIGN (0x10)
 *fill*         0x00000000000009c3        0xd 

.fartext.62$    0x0000000000000000     0x1a50 load address 0x00000000000209f0
 *(.fartext.*62 .fartext.*62$)
 .fartext.f.p_mobj.c.15362$
                0x0000000000000000     0x189f /tmp/ccyV2yGn.o
                0x0000000000000000                P_SpawnMobj
                0x0000000000000215                P_RemoveMobj
                0x000000000000024d                P_NightmareRespawn
                0x00000000000003fd                P_SetMobjState
                0x000000000000081e                P_SpawnBlood
                0x00000000000008c9                P_SpawnPuff
                0x000000000000096c                P_ExplodeMissile
                0x0000000000000a17                P_CheckMissileSpawn
                0x0000000000000af3                P_SpawnPlayerMissile
                0x0000000000000cbc                P_SpawnMissile
                0x0000000000000f39                P_ZMovement
                0x0000000000001325                P_XYMovement
                0x0000000000001778                P_MobjThinker
 .fartext.f.fread.c.12662$
                0x000000000000189f      0x1a5 /usr/lib/x86_64-linux-gnu/gcc/ia16-elf/6.3.0/../../../../../ia16-elf/lib/medium/regparmcall/libc.a(lib_a-fread.o)
                0x000000000000194e                _fread_r
                0x0000000000001a2d                fread
                0x0000000000001a50                . = ALIGN (0x10)
 *fill*         0x0000000000001a44        0xc 

.fartext.63$    0x0000000000000000     0x2410 load address 0x0000000000022440
 *(.fartext.*63 .fartext.*63$)
 .fartext.f.vfprintf.c.56463$
                0x0000000000000000     0x1124 /usr/lib/x86_64-linux-gnu/gcc/ia16-elf/6.3.0/../../../../../ia16-elf/lib/medium/regparmcall/libc.a(lib_a-svfiprintf.o)
                0x0000000000000000                _svfiprintf_r
 .fartext.f.vfprintf.c.56463$
                0x0000000000001124     0x1175 /usr/lib/x86_64-linux-gnu/gcc/ia16-elf/6.3.0/../../../../../ia16-elf/lib/medium/regparmcall/libc.a(lib_a-vfiprintf.o)
                0x0000000000001124                _vfiprintf_r
                0x000000000000228d                vfiprintf
 .fartext.f.vfprintf.c.56463$
                0x0000000000002299       0x23 /usr/lib/x86_64-linux-gnu/gcc/ia16-elf/6.3.0/../../../../../ia16-elf/lib/medium/regparmcall/libc.a(lib_a-sprintr.o)
                0x0000000000002299                __sprint_r
 .fartext.f.vfprintf.c.56463$
                0x00000000000022bc      0x14d /usr/lib/x86_64-linux-gnu/gcc/ia16-elf/6.3.0/../../../../../ia16-elf/lib/medium/regparmcall/libc.a(lib_a-ssprintr.o)
                0x00000000000022bc                __ssprint_r
                0x0000000000002410                . = ALIGN (0x10)
 *fill*         0x0000000000002409        0x7 

.fartext.64$    0x0000000000000000       0x20 load address 0x0000000000024850
 *(.fartext.*64 .fartext.*64$)
 .fartext.f.setbuf.c.67464$
                0x0000000000000000       0x13 /usr/lib/x86_64-linux-gnu/gcc/ia16-elf/6.3.0/../../../../../ia16-elf/lib/medium/regparmcall/libc.a(lib_a-setbuf.o)
                0x0000000000000000                setbuf
                0x0000000000000020                . = ALIGN (0x10)
 *fill*         0x0000000000000013        0xd 

.fartext.65$    0x0000000000000000      0x7c0 load address 0x0000000000024870
 *(.fartext.*65 .fartext.*65$)
 .fartext.f.r_setup.c.03065$
                0x0000000000000000      0x787 /tmp/ccjLIErg.o
                0x0000000000000000                R_InitBuffer
                0x0000000000000069                R_InitTextureMapping
                0x000000000000039e                R_ExecuteSetViewSize
                0x0000000000000493                R_PrecacheLevel
 .fartext.f.wcsrtombs.c.76065$
                0x0000000000000787       0x34 /usr/lib/x86_64-linux-gnu/gcc/ia16-elf/6.3.0/../../../../../ia16-elf/lib/medium/regparmcall/libc.a(lib_a-wcsrtombs.o)
                0x0000000000000787                _wcsrtombs_r
                0x000000000000079f                wcsrtombs
                0x00000000000007c0                . = ALIGN (0x10)
 *fill*         0x00000000000007bb        0x5 

.fartext.66$    0x0000000000000000       0xc0 load address 0x0000000000025030
 *(.fartext.*66 .fartext.*66$)
 .fartext.f.fopen.c.03466$
                0x0000000000000000       0xb7 /usr/lib/x86_64-linux-gnu/gcc/ia16-elf/6.3.0/../../../../../ia16-elf/lib/medium/regparmcall/libc.a(lib_a-fopen.o)
                0x0000000000000000                _fopen_r
                0x00000000000000ae                fopen
                0x00000000000000c0                . = ALIGN (0x10)
 *fill*         0x00000000000000b7        0x9 

.fartext.67$    0x0000000000000000       0xd0 load address 0x00000000000250f0
 *(.fartext.*67 .fartext.*67$)
 .fartext.f.libi86_ret_really_set_errno.c.30767$
                0x0000000000000000        0xd /usr/lib/x86_64-linux-gnu/gcc/ia16-elf/6.3.0/../../../../../ia16-elf/lib/medium/regparmcall/libi86.a(libi86-ret-really-set-errno.o)
                0x0000000000000000                __libi86_ret_really_set_errno
 .fartext.f.strcat.c.76367$
                0x000000000000000d       0x1c /usr/lib/x86_64-linux-gnu/gcc/ia16-elf/6.3.0/../../../../../ia16-elf/lib/medium/regparmcall/libc.a(lib_a-strcat.o)
                0x000000000000000d                strcat
 .fartext.f.sccl.c.46167$
                0x0000000000000029       0x9e /usr/lib/x86_64-linux-gnu/gcc/ia16-elf/6.3.0/../../../../../ia16-elf/lib/medium/regparmcall/libc.a(lib_a-sccl.o)
                0x0000000000000029                __sccl
                0x00000000000000d0                . = ALIGN (0x10)
 *fill*         0x00000000000000c7        0x9 

.fartext.70$    0x0000000000000000      0x5a0 load address 0x00000000000251c0
 *(.fartext.*70 .fartext.*70$)
 .fartext.f.z_init.c.32170$
                0x0000000000000000      0x48e /tmp/ccez6CM4.o
                0x0000000000000000                I_ZoneBaseEMS
                0x000000000000016e                Z_GetEMSPageMap
                0x0000000000000263                Z_LinkEMSVariables
                0x0000000000000332                Z_InitEMS
                0x0000000000000341                Z_LoadBinaries
                0x000000000000045e                Z_LinkConventionalVariables
 .fartext.f.iswspace.c.76470$
                0x000000000000048e       0x61 /usr/lib/x86_64-linux-gnu/gcc/ia16-elf/6.3.0/../../../../../ia16-elf/lib/medium/regparmcall/libc.a(lib_a-iswspace.o)
                0x000000000000048e                iswspace
 .fartext.s.__ashldi3.73070$
                0x00000000000004ef       0xb0 /usr/lib/x86_64-linux-gnu/gcc/ia16-elf/6.3.0/medium/regparmcall/libgcc.a(_ashldi3.o)
                0x00000000000004ef                __ashldi3
                0x00000000000005a0                . = ALIGN (0x10)
 *fill*         0x000000000000059f        0x1 

.fartext.71$    0x0000000000000000       0xa0 load address 0x0000000000025760
 *(.fartext.*71 .fartext.*71$)
 .fartext.f.dutils.c.15371$
                0x0000000000000000       0x91 /tmp/ccQEdboh.o
                0x0000000000000000                cht_CheckCheat
                0x0000000000000060                cht_GetParam
                0x00000000000000a0                . = ALIGN (0x10)
 *fill*         0x0000000000000091        0xf 

.fartext.72$    0x0000000000000000      0x700 load address 0x0000000000025800
 *(.fartext.*72 .fartext.*72$)
 .fartext.f.p_ceilng.c.46672$
                0x0000000000000000      0x401 /tmp/ccwNsiwv.o
                0x0000000000000000                P_AddActiveCeiling
                0x000000000000001b                P_RemoveActiveCeiling
                0x0000000000000057                T_MoveCeiling
                0x00000000000001c7                P_ActivateInStasisCeiling
                0x0000000000000213                EV_DoCeiling
                0x000000000000039f                EV_CeilingCrushStop
 .fartext.f.p_telept.c.34472$
                0x0000000000000401      0x28a /tmp/ccEwe8Ga.o
                0x0000000000000401                EV_Teleport
 .fartext.f.strcasecmp.c.77372$
                0x000000000000068b       0x6f /usr/lib/x86_64-linux-gnu/gcc/ia16-elf/6.3.0/../../../../../ia16-elf/lib/medium/regparmcall/libc.a(lib_a-strcasecmp.o)
                0x000000000000068b                strcasecmp
                0x0000000000000700                . = ALIGN (0x10)
 *fill*         0x00000000000006fa        0x6 

.fartext.73$    0x0000000000000000     0x1320 load address 0x0000000000025f00
 *(.fartext.*73 .fartext.*73$)
 .fartext.f.m_menu.c.11473$
                0x0000000000000000     0x1318 /tmp/ccdsAyBl.o
                0x0000000000000000                M_ChangeMessages
                0x000000000000001a                M_ChangeSensitivity
                0x000000000000003d                M_DrawEpisode
                0x0000000000000050                M_DrawNewGame
                0x000000000000007a                M_DrawMainMenu
                0x000000000000008d                M_LoadSelect
                0x00000000000000c6                M_SaveSelect
                0x0000000000000114                M_QuickLoadResponse
                0x000000000000012d                M_DrawReadThis2
                0x000000000000013c                M_DrawReadThis1
                0x000000000000014b                M_SfxVol
                0x000000000000017c                M_MusicVol
                0x00000000000001ad                M_VerifyNightmare
                0x00000000000001c7                M_EndGameResponse
                0x00000000000001e1                M_QuitResponse
                0x0000000000000220                M_SizeDisplay
                0x0000000000000262                M_ChangeDetail
                0x0000000000000282                M_GetMenuPatch
                0x000000000000029f                M_ReadSaveStrings
                0x0000000000000332                M_DrawSaveLoadBorder
                0x0000000000000393                M_DoSave
                0x00000000000003bd                M_QuickSaveResponse
                0x00000000000003d6                M_DrawReadThisRetail
                0x00000000000003e5                M_DrawThermo
                0x0000000000000469                M_DrawOptions
                0x000000000000051f                M_DrawSound
                0x000000000000057e                M_StartMessage
                0x00000000000005bb                M_QuitDOOM
                0x000000000000065c                M_EndGame
                0x0000000000000694                M_ChooseSkill
                0x00000000000006d1                M_QuickLoad
                0x000000000000072c                M_StringWidth
                0x0000000000000799                M_StringHeight
                0x00000000000007c0                M_WriteText
                0x0000000000000832                M_DrawSave
                0x00000000000008bb                M_DrawLoad
                0x000000000000090c                M_StartControlPanel
                0x0000000000000925                M_Drawer
                0x0000000000000a8e                M_ClearMenus
                0x0000000000000a94                M_SetupNextMenu
                0x0000000000000a9f                M_FinishReadThis
                0x0000000000000aa4                M_ReadThis2
                0x0000000000000aa9                M_ReadThis
                0x0000000000000aae                M_Options
                0x0000000000000ab3                M_Episode
                0x0000000000000aef                M_NewGame
                0x0000000000000b00                M_Sound
                0x0000000000000b05                M_QuickSave
                0x0000000000000b79                M_SaveGame
                0x0000000000000bb6                M_LoadGame
                0x0000000000000bc0                M_Responder
                0x000000000000126d                M_Ticker
                0x0000000000001284                M_Reload
                0x0000000000001320                . = ALIGN (0x10)
 *fill*         0x0000000000001318        0x8 

.fartext.74$    0x0000000000000000      0x1a0 load address 0x0000000000027220
 *(.fartext.*74 .fartext.*74$)
 .fartext.f.am_map.c.40174$
                0x0000000000000000        0x4 /tmp/ccRwwzkV.o
                0x0000000000000000                AM_Drawer
                0x0000000000000001                AM_Ticker
                0x0000000000000002                AM_Responder
                0x0000000000000003                AM_Stop
 .fartext.f.fwrite.c.50474$
                0x0000000000000004       0x97 /usr/lib/x86_64-linux-gnu/gcc/ia16-elf/6.3.0/../../../../../ia16-elf/lib/medium/regparmcall/libc.a(lib_a-fwrite.o)
                0x0000000000000004                _fwrite_r
                0x0000000000000084                fwrite
 .fartext.f.getc.c.50374$
                0x000000000000009b      0x103 /usr/lib/x86_64-linux-gnu/gcc/ia16-elf/6.3.0/../../../../../ia16-elf/lib/medium/regparmcall/libc.a(lib_a-getc.o)
                0x0000000000000112                _getc_r
                0x0000000000000155                getc
 .fartext.f.envlock.c.53074$
                0x000000000000019e        0x2 /usr/lib/x86_64-linux-gnu/gcc/ia16-elf/6.3.0/../../../../../ia16-elf/lib/medium/regparmcall/libc.a(lib_a-envlock.o)
                0x000000000000019e                __env_lock
                0x000000000000019f                __env_unlock
                0x00000000000001a0                . = ALIGN (0x10)

.fartext.75$    0x0000000000000000     0x1240 load address 0x00000000000273c0
 *(.fartext.*75 .fartext.*75$)
 .fartext.f.i_quit.c.52475$
                0x0000000000000000      0x267 /tmp/ccxEML8E.o
                0x0000000000000000                I_ShutdownSound
                0x0000000000000001                I_ShutdownGraphics
                0x0000000000000025                TS_Terminate
                0x000000000000002a                TS_Shutdown
                0x0000000000000055                I_ShutdownTimer
                0x000000000000005c                I_ShutdownKeyboard
                0x0000000000000081                I_ShutdownMouse
                0x000000000000008e                Z_ShutdownUMB
                0x00000000000000f0                Z_QuickmapUnmapAll
                0x00000000000001b8                Z_ShutdownEMS
                0x00000000000001f4                I_Shutdown
                0x000000000000020b                I_Quit
 .fartext.f.r_init.c.12775$
                0x0000000000000267      0x6ce /tmp/ccZiZ62w.o
                0x0000000000000267                R_InitSkyMap
                0x0000000000000273                R_InitPlanes
                0x0000000000000278                R_InitLightTables
                0x000000000000031c                R_InitSpriteLumps
                0x0000000000000393                R_GenerateLookup
                0x0000000000000560                R_InitTextures
                0x000000000000089a                R_InitData
                0x00000000000008e8                R_Init
 .fartext.f.r_draw.c.20575$
                0x0000000000000935      0x901 /tmp/ccMfMEUa.o
                0x0000000000000935                R_DrawColumn
                0x00000000000009fa                R_DrawColumnLow
                0x0000000000000abf                R_DrawFuzzColumn
                0x0000000000000ba1                R_DrawSpan
                0x0000000000000d25                R_DrawSpanLow
                0x0000000000000e95                R_FillBackScreen
                0x000000000000113d                R_VideoErase
                0x00000000000011b9                R_DrawViewBorder
                0x0000000000001240                . = ALIGN (0x10)
 *fill*         0x0000000000001236        0xa 

.fartext.76$    0x0000000000000000      0x1b0 load address 0x0000000000028600
 *(.fartext.*76 .fartext.*76$)
 .fartext.f.mbrtowc.c.17576$
                0x0000000000000000       0xef /usr/lib/x86_64-linux-gnu/gcc/ia16-elf/6.3.0/../../../../../ia16-elf/lib/medium/regparmcall/libc.a(lib_a-mbrtowc.o)
                0x0000000000000000                _mbrtowc_r
                0x00000000000000d8                mbrtowc
 .fartext.f.abort.c.72076$
                0x00000000000000ef       0xbb /usr/lib/x86_64-linux-gnu/gcc/ia16-elf/6.3.0/../../../../../ia16-elf/lib/medium/regparmcall/libc.a(lib_a-abort.o)
                0x0000000000000162                __ia16_abort_impl
                0x00000000000001b0                . = ALIGN (0x10)
 *fill*         0x00000000000001aa        0x6 

.fartext.77$    0x0000000000000000      0x1b0 load address 0x00000000000287b0
 *(.fartext.*77 .fartext.*77$)
 .fartext.f.fseeko.c.43277$
                0x0000000000000000      0x1ac /usr/lib/x86_64-linux-gnu/gcc/ia16-elf/6.3.0/../../../../../ia16-elf/lib/medium/regparmcall/libc.a(lib_a-fseeko.o)
                0x0000000000000000                _fseeko_r
                0x0000000000000196                fseeko
                0x00000000000001b0                . = ALIGN (0x10)
 *fill*         0x00000000000001ac        0x4 

.fartext.XX$    0x0000000000000000      0x350 load address 0x0000000000028960
 *(.fartext .fartext$ .fartext.*)
 .fartext.f.fmemcpy.S.LIBI86$
                0x0000000000000000       0x1f /usr/lib/x86_64-linux-gnu/gcc/ia16-elf/6.3.0/../../../../../ia16-elf/lib/medium/regparmcall/libi86.a(fmemcpy.o)
                0x0000000000000000                _fmemcpy
                0x0000000000000000                __libi86_fmemmove_forward
 .fartext.f.fmemset.S.LIBI86$
                0x000000000000001f       0x1d /usr/lib/x86_64-linux-gnu/gcc/ia16-elf/6.3.0/../../../../../ia16-elf/lib/medium/regparmcall/libi86.a(fmemset.o)
                0x000000000000001f                _fmemset
 .fartext.f.dos_getvect.S.LIBI86$
                0x000000000000003c        0xa /usr/lib/x86_64-linux-gnu/gcc/ia16-elf/6.3.0/../../../../../ia16-elf/lib/medium/regparmcall/libi86.a(dos-getvect.o)
                0x000000000000003c                __libi86_bc_getvect
                0x000000000000003c                _dos_getvect
 .fartext.f.dos_setvect.S.LIBI86$
                0x0000000000000046        0x9 /usr/lib/x86_64-linux-gnu/gcc/ia16-elf/6.3.0/../../../../../ia16-elf/lib/medium/regparmcall/libi86.a(dos-setvect.o)
                0x0000000000000046                _dos_setvect
                0x0000000000000046                __libi86_bc_setvect
 .fartext.f.autofloat_stdio.S.LIBGLOSS$
                0x000000000000004f        0x3 /usr/lib/x86_64-linux-gnu/gcc/ia16-elf/6.3.0/../../../../../ia16-elf/lib/medium/regparmcall/tprtf-fw.a(t-sprintf.o)
                0x000000000000004f                sprintf
 .fartext.f.autofloat_stdio.S.LIBGLOSS$
                0x0000000000000052        0x3 /usr/lib/x86_64-linux-gnu/gcc/ia16-elf/6.3.0/../../../../../ia16-elf/lib/medium/regparmcall/tprtf-fw.a(t-fprintf.o)
                0x0000000000000052                fprintf
 .fartext.f.autofloat_stdio.S.LIBGLOSS$
                0x0000000000000055        0x3 /usr/lib/x86_64-linux-gnu/gcc/ia16-elf/6.3.0/../../../../../ia16-elf/lib/medium/regparmcall/tprtf-fw.a(t-printf.o)
                0x0000000000000055                printf
 .fartext.f.autofloat_stdio.S.LIBGLOSS$
                0x0000000000000058        0x3 /usr/lib/x86_64-linux-gnu/gcc/ia16-elf/6.3.0/../../../../../ia16-elf/lib/medium/regparmcall/tprtf-fw.a(t-vprintf.o)
                0x0000000000000058                vprintf
 .fartext.f.autofloat_stdio.S.LIBGLOSS$
                0x000000000000005b        0x3 /usr/lib/x86_64-linux-gnu/gcc/ia16-elf/6.3.0/../../../../../ia16-elf/lib/medium/regparmcall/tscnf-fw.a(t-sscanf.o)
                0x000000000000005b                sscanf
 .fartext.f.autofloat_stdio.S.LIBGLOSS$
                0x000000000000005e        0x3 /usr/lib/x86_64-linux-gnu/gcc/ia16-elf/6.3.0/../../../../../ia16-elf/lib/medium/regparmcall/tscnf-fw.a(t-fscanf.o)
                0x000000000000005e                fscanf
 .fartext.f.autofloat_stdio.S.LIBGLOSS$
                0x0000000000000061        0x5 /usr/lib/x86_64-linux-gnu/gcc/ia16-elf/6.3.0/../../../../../ia16-elf/lib/medium/regparmcall/iprtf-fw.a(i-sprintf.o)
                0x0000000000000061                sprintf.impl
 .fartext.f.autofloat_stdio.S.LIBGLOSS$
                0x0000000000000066        0x5 /usr/lib/x86_64-linux-gnu/gcc/ia16-elf/6.3.0/../../../../../ia16-elf/lib/medium/regparmcall/iprtf-fw.a(i-fprintf.o)
                0x0000000000000066                fprintf.impl
 .fartext.f.autofloat_stdio.S.LIBGLOSS$
                0x000000000000006b        0x5 /usr/lib/x86_64-linux-gnu/gcc/ia16-elf/6.3.0/../../../../../ia16-elf/lib/medium/regparmcall/iprtf-fw.a(i-printf.o)
                0x000000000000006b                printf.impl
 .fartext.f.autofloat_stdio.S.LIBGLOSS$
                0x0000000000000070        0x5 /usr/lib/x86_64-linux-gnu/gcc/ia16-elf/6.3.0/../../../../../ia16-elf/lib/medium/regparmcall/iprtf-fw.a(i-vprintf.o)
                0x0000000000000070                vprintf.impl
 .fartext.f.autofloat_stdio.S.LIBGLOSS$
                0x0000000000000075        0x5 /usr/lib/x86_64-linux-gnu/gcc/ia16-elf/6.3.0/../../../../../ia16-elf/lib/medium/regparmcall/iscnf-fw.a(i-sscanf.o)
                0x0000000000000075                sscanf.impl
 .fartext.f.autofloat_stdio.S.LIBGLOSS$
                0x000000000000007a        0x5 /usr/lib/x86_64-linux-gnu/gcc/ia16-elf/6.3.0/../../../../../ia16-elf/lib/medium/regparmcall/iscnf-fw.a(i-fscanf.o)
                0x000000000000007a                fscanf.impl
 .fartext.f.memcpy.S.NEWLIB$
                0x000000000000007f       0x17 /usr/lib/x86_64-linux-gnu/gcc/ia16-elf/6.3.0/../../../../../ia16-elf/lib/medium/regparmcall/libc.a(lib_a-memcpy.o)
                0x000000000000007f                memcpy
 .fartext.f.memmove.S.NEWLIB$
                0x0000000000000096       0x4d /usr/lib/x86_64-linux-gnu/gcc/ia16-elf/6.3.0/../../../../../ia16-elf/lib/medium/regparmcall/libc.a(lib_a-memmove.o)
                0x0000000000000096                memmove
 .fartext.f.memset.S.NEWLIB$
                0x00000000000000e3       0x1b /usr/lib/x86_64-linux-gnu/gcc/ia16-elf/6.3.0/../../../../../ia16-elf/lib/medium/regparmcall/libc.a(lib_a-memset.o)
                0x00000000000000e3                memset
 .fartext.f.strcmp.S.NEWLIB$
                0x00000000000000fe       0x1a /usr/lib/x86_64-linux-gnu/gcc/ia16-elf/6.3.0/../../../../../ia16-elf/lib/medium/regparmcall/libc.a(lib_a-strcmp.o)
                0x00000000000000fe                strcmp
 .fartext.f.strcpy.S.NEWLIB$
                0x0000000000000118       0x19 /usr/lib/x86_64-linux-gnu/gcc/ia16-elf/6.3.0/../../../../../ia16-elf/lib/medium/regparmcall/libc.a(lib_a-strcpy.o)
                0x0000000000000118                strcpy
 .fartext.f.strlen.S.NEWLIB$
                0x0000000000000131       0x19 /usr/lib/x86_64-linux-gnu/gcc/ia16-elf/6.3.0/../../../../../ia16-elf/lib/medium/regparmcall/libc.a(lib_a-strlen.o)
                0x0000000000000131                strlen
 .fartext.f.strncmp.S.NEWLIB$
                0x000000000000014a       0x20 /usr/lib/x86_64-linux-gnu/gcc/ia16-elf/6.3.0/../../../../../ia16-elf/lib/medium/regparmcall/libc.a(lib_a-strncmp.o)
                0x000000000000014a                strncmp
 .fartext.f.strncpy.S.NEWLIB$
                0x000000000000016a       0x25 /usr/lib/x86_64-linux-gnu/gcc/ia16-elf/6.3.0/../../../../../ia16-elf/lib/medium/regparmcall/libc.a(lib_a-strncpy.o)
                0x000000000000016a                strncpy
 .fartext.f.memchr.S.NEWLIB$
                0x000000000000018f       0x19 /usr/lib/x86_64-linux-gnu/gcc/ia16-elf/6.3.0/../../../../../ia16-elf/lib/medium/regparmcall/libc.a(lib_a-memchr.o)
                0x000000000000018f                memchr
 .fartext.f.strchr.S.NEWLIB$
                0x00000000000001a8       0x17 /usr/lib/x86_64-linux-gnu/gcc/ia16-elf/6.3.0/../../../../../ia16-elf/lib/medium/regparmcall/libc.a(lib_a-strchr.o)
                0x00000000000001a8                strchr
 .fartext.f.libgcc2.a.LIB2ADD$
                0x00000000000001bf       0x10 /usr/lib/x86_64-linux-gnu/gcc/ia16-elf/6.3.0/medium/regparmcall/libgcc.a(udivsi3.o)
                0x00000000000001bf                __udivsi3
 .fartext.f.libgcc2.a.LIB2ADD$
                0x00000000000001cf       0x14 /usr/lib/x86_64-linux-gnu/gcc/ia16-elf/6.3.0/medium/regparmcall/libgcc.a(umodsi3.o)
                0x00000000000001cf                __umodsi3
 .fartext.f.libgcc2.a.LIB2ADD$
                0x00000000000001e3       0x4f /usr/lib/x86_64-linux-gnu/gcc/ia16-elf/6.3.0/medium/regparmcall/libgcc.a(ia16-ldivmodu.o)
                0x00000000000001e3                __ia16_ldivmodu
 .fartext.f.libgcc2.a.LIB2ADD$
                0x0000000000000232       0x10 /usr/lib/x86_64-linux-gnu/gcc/ia16-elf/6.3.0/medium/regparmcall/libgcc.a(divsi3.o)
                0x0000000000000232                __divsi3
 .fartext.f.libgcc2.a.LIB2ADD$
                0x0000000000000242       0x36 /usr/lib/x86_64-linux-gnu/gcc/ia16-elf/6.3.0/medium/regparmcall/libgcc.a(ia16-ldivmods.o)
                0x0000000000000242                __ia16_ldivmods
 .fartext.f.libgcc2.a.LIB2ADD$
                0x0000000000000278        0xc /usr/lib/x86_64-linux-gnu/gcc/ia16-elf/6.3.0/medium/regparmcall/libgcc.a(ashlsi3.o)
                0x0000000000000278                __ashlsi3
 .fartext.f.libgcc2.a.LIB2ADD$
                0x0000000000000284        0xc /usr/lib/x86_64-linux-gnu/gcc/ia16-elf/6.3.0/medium/regparmcall/libgcc.a(lshrsi3.o)
                0x0000000000000284                __lshrsi3
 .fartext.f.dos_closer.S.LIBGLOSS$
                0x0000000000000290       0x13 /usr/lib/x86_64-linux-gnu/gcc/ia16-elf/6.3.0/../../../../../ia16-elf/lib/medium/regparmcall/libdos-m.a(dos-closer.o)
                0x0000000000000290                _close_r
 .fartext.f.dos_isattyr.S.LIBGLOSS$
                0x00000000000002a3       0x1c /usr/lib/x86_64-linux-gnu/gcc/ia16-elf/6.3.0/../../../../../ia16-elf/lib/medium/regparmcall/libdos-m.a(dos-isattyr.o)
                0x00000000000002a3                _isatty_r
 .fartext.f.dos_lseekr.S.LIBGLOSS$
                0x00000000000002bf       0x1d /usr/lib/x86_64-linux-gnu/gcc/ia16-elf/6.3.0/../../../../../ia16-elf/lib/medium/regparmcall/libdos-m.a(dos-lseekr.o)
                0x00000000000002bf                _lseek_r
 .fartext.f.dos_readr.S.LIBGLOSS$
                0x00000000000002dc       0x19 /usr/lib/x86_64-linux-gnu/gcc/ia16-elf/6.3.0/../../../../../ia16-elf/lib/medium/regparmcall/libdos-m.a(dos-readr.o)
                0x00000000000002dc                _read_r
 .fartext.f.dos_writer.S.LIBGLOSS$
                0x00000000000002f5       0x1f /usr/lib/x86_64-linux-gnu/gcc/ia16-elf/6.3.0/../../../../../ia16-elf/lib/medium/regparmcall/libdos-m.a(dos-writer.o)
                0x00000000000002f5                _write_r
 .fartext.f.dos_msmmabort.S.LIBGLOSS$
                0x0000000000000314       0x2f /usr/lib/x86_64-linux-gnu/gcc/ia16-elf/6.3.0/../../../../../ia16-elf/lib/medium/regparmcall/libdos-m.a(dos-msmmabort.o)
                0x0000000000000314                abort
                0x0000000000000350                . = ALIGN (0x10)
 *fill*         0x0000000000000343        0xd 

.farrodata.00$  0x0000000000000000        0x0 load address 0x0000000000028cb0
 *(.farrodata.*00 .farrodata.*00$)
                0x0000000000000000                . = ALIGN (0x10)

.farrodata.01$  0x0000000000000000        0x0 load address 0x0000000000028cb0
 *(.farrodata.*01 .farrodata.*01$)
                0x0000000000000000                . = ALIGN (0x10)

.farrodata.02$  0x0000000000000000        0x0 load address 0x0000000000028cb0
 *(.farrodata.*02 .farrodata.*02$)
                0x0000000000000000                . = ALIGN (0x10)

.farrodata.03$  0x0000000000000000        0x0 load address 0x0000000000028cb0
 *(.farrodata.*03 .farrodata.*03$)
                0x0000000000000000                . = ALIGN (0x10)

.farrodata.04$  0x0000000000000000        0x0 load address 0x0000000000028cb0
 *(.farrodata.*04 .farrodata.*04$)
                0x0000000000000000                . = ALIGN (0x10)

.farrodata.05$  0x0000000000000000        0x0 load address 0x0000000000028cb0
 *(.farrodata.*05 .farrodata.*05$)
                0x0000000000000000                . = ALIGN (0x10)

.farrodata.06$  0x0000000000000000        0x0 load address 0x0000000000028cb0
 *(.farrodata.*06 .farrodata.*06$)
                0x0000000000000000                . = ALIGN (0x10)

.farrodata.07$  0x0000000000000000        0x0 load address 0x0000000000028cb0
 *(.farrodata.*07 .farrodata.*07$)
                0x0000000000000000                . = ALIGN (0x10)

.farrodata.10$  0x0000000000000000        0x0 load address 0x0000000000028cb0
 *(.farrodata.*10 .farrodata.*10$)
                0x0000000000000000                . = ALIGN (0x10)

.farrodata.11$  0x0000000000000000        0x0 load address 0x0000000000028cb0
 *(.farrodata.*11 .farrodata.*11$)
                0x0000000000000000                . = ALIGN (0x10)

.farrodata.12$  0x0000000000000000        0x0 load address 0x0000000000028cb0
 *(.farrodata.*12 .farrodata.*12$)
                0x0000000000000000                . = ALIGN (0x10)

.farrodata.13$  0x0000000000000000        0x0 load address 0x0000000000028cb0
 *(.farrodata.*13 .farrodata.*13$)
                0x0000000000000000                . = ALIGN (0x10)

.farrodata.14$  0x0000000000000000        0x0 load address 0x0000000000028cb0
 *(.farrodata.*14 .farrodata.*14$)
                0x0000000000000000                . = ALIGN (0x10)

.farrodata.15$  0x0000000000000000        0x0 load address 0x0000000000028cb0
 *(.farrodata.*15 .farrodata.*15$)
                0x0000000000000000                . = ALIGN (0x10)

.farrodata.16$  0x0000000000000000        0x0 load address 0x0000000000028cb0
 *(.farrodata.*16 .farrodata.*16$)
                0x0000000000000000                . = ALIGN (0x10)

.farrodata.17$  0x0000000000000000        0x0 load address 0x0000000000028cb0
 *(.farrodata.*17 .farrodata.*17$)
                0x0000000000000000                . = ALIGN (0x10)

.farrodata.20$  0x0000000000000000        0x0 load address 0x0000000000028cb0
 *(.farrodata.*20 .farrodata.*20$)
                0x0000000000000000                . = ALIGN (0x10)

.farrodata.21$  0x0000000000000000        0x0 load address 0x0000000000028cb0
 *(.farrodata.*21 .farrodata.*21$)
                0x0000000000000000                . = ALIGN (0x10)

.farrodata.22$  0x0000000000000000        0x0 load address 0x0000000000028cb0
 *(.farrodata.*22 .farrodata.*22$)
                0x0000000000000000                . = ALIGN (0x10)

.farrodata.23$  0x0000000000000000        0x0 load address 0x0000000000028cb0
 *(.farrodata.*23 .farrodata.*23$)
                0x0000000000000000                . = ALIGN (0x10)

.farrodata.24$  0x0000000000000000        0x0 load address 0x0000000000028cb0
 *(.farrodata.*24 .farrodata.*24$)
                0x0000000000000000                . = ALIGN (0x10)

.farrodata.25$  0x0000000000000000        0x0 load address 0x0000000000028cb0
 *(.farrodata.*25 .farrodata.*25$)
                0x0000000000000000                . = ALIGN (0x10)

.farrodata.26$  0x0000000000000000        0x0 load address 0x0000000000028cb0
 *(.farrodata.*26 .farrodata.*26$)
                0x0000000000000000                . = ALIGN (0x10)

.farrodata.27$  0x0000000000000000        0x0 load address 0x0000000000028cb0
 *(.farrodata.*27 .farrodata.*27$)
                0x0000000000000000                . = ALIGN (0x10)

.farrodata.30$  0x0000000000000000        0x0 load address 0x0000000000028cb0
 *(.farrodata.*30 .farrodata.*30$)
                0x0000000000000000                . = ALIGN (0x10)

.farrodata.31$  0x0000000000000000        0x0 load address 0x0000000000028cb0
 *(.farrodata.*31 .farrodata.*31$)
                0x0000000000000000                . = ALIGN (0x10)

.farrodata.32$  0x0000000000000000        0x0 load address 0x0000000000028cb0
 *(.farrodata.*32 .farrodata.*32$)
                0x0000000000000000                . = ALIGN (0x10)

.farrodata.33$  0x0000000000000000        0x0 load address 0x0000000000028cb0
 *(.farrodata.*33 .farrodata.*33$)
                0x0000000000000000                . = ALIGN (0x10)

.farrodata.34$  0x0000000000000000        0x0 load address 0x0000000000028cb0
 *(.farrodata.*34 .farrodata.*34$)
                0x0000000000000000                . = ALIGN (0x10)

.farrodata.35$  0x0000000000000000        0x0 load address 0x0000000000028cb0
 *(.farrodata.*35 .farrodata.*35$)
                0x0000000000000000                . = ALIGN (0x10)

.farrodata.36$  0x0000000000000000        0x0 load address 0x0000000000028cb0
 *(.farrodata.*36 .farrodata.*36$)
                0x0000000000000000                . = ALIGN (0x10)

.farrodata.37$  0x0000000000000000        0x0 load address 0x0000000000028cb0
 *(.farrodata.*37 .farrodata.*37$)
                0x0000000000000000                . = ALIGN (0x10)

.farrodata.40$  0x0000000000000000        0x0 load address 0x0000000000028cb0
 *(.farrodata.*40 .farrodata.*40$)
                0x0000000000000000                . = ALIGN (0x10)

.farrodata.41$  0x0000000000000000        0x0 load address 0x0000000000028cb0
 *(.farrodata.*41 .farrodata.*41$)
                0x0000000000000000                . = ALIGN (0x10)

.farrodata.42$  0x0000000000000000        0x0 load address 0x0000000000028cb0
 *(.farrodata.*42 .farrodata.*42$)
                0x0000000000000000                . = ALIGN (0x10)

.farrodata.43$  0x0000000000000000        0x0 load address 0x0000000000028cb0
 *(.farrodata.*43 .farrodata.*43$)
                0x0000000000000000                . = ALIGN (0x10)

.farrodata.44$  0x0000000000000000        0x0 load address 0x0000000000028cb0
 *(.farrodata.*44 .farrodata.*44$)
                0x0000000000000000                . = ALIGN (0x10)

.farrodata.45$  0x0000000000000000        0x0 load address 0x0000000000028cb0
 *(.farrodata.*45 .farrodata.*45$)
                0x0000000000000000                . = ALIGN (0x10)

.farrodata.46$  0x0000000000000000        0x0 load address 0x0000000000028cb0
 *(.farrodata.*46 .farrodata.*46$)
                0x0000000000000000                . = ALIGN (0x10)

.farrodata.47$  0x0000000000000000        0x0 load address 0x0000000000028cb0
 *(.farrodata.*47 .farrodata.*47$)
                0x0000000000000000                . = ALIGN (0x10)

.farrodata.50$  0x0000000000000000        0x0 load address 0x0000000000028cb0
 *(.farrodata.*50 .farrodata.*50$)
                0x0000000000000000                . = ALIGN (0x10)

.farrodata.51$  0x0000000000000000        0x0 load address 0x0000000000028cb0
 *(.farrodata.*51 .farrodata.*51$)
                0x0000000000000000                . = ALIGN (0x10)

.farrodata.52$  0x0000000000000000        0x0 load address 0x0000000000028cb0
 *(.farrodata.*52 .farrodata.*52$)
                0x0000000000000000                . = ALIGN (0x10)

.farrodata.53$  0x0000000000000000        0x0 load address 0x0000000000028cb0
 *(.farrodata.*53 .farrodata.*53$)
                0x0000000000000000                . = ALIGN (0x10)

.farrodata.54$  0x0000000000000000        0x0 load address 0x0000000000028cb0
 *(.farrodata.*54 .farrodata.*54$)
                0x0000000000000000                . = ALIGN (0x10)

.farrodata.55$  0x0000000000000000        0x0 load address 0x0000000000028cb0
 *(.farrodata.*55 .farrodata.*55$)
                0x0000000000000000                . = ALIGN (0x10)

.farrodata.56$  0x0000000000000000        0x0 load address 0x0000000000028cb0
 *(.farrodata.*56 .farrodata.*56$)
                0x0000000000000000                . = ALIGN (0x10)

.farrodata.57$  0x0000000000000000        0x0 load address 0x0000000000028cb0
 *(.farrodata.*57 .farrodata.*57$)
                0x0000000000000000                . = ALIGN (0x10)

.farrodata.60$  0x0000000000000000        0x0 load address 0x0000000000028cb0
 *(.farrodata.*60 .farrodata.*60$)
                0x0000000000000000                . = ALIGN (0x10)

.farrodata.61$  0x0000000000000000        0x0 load address 0x0000000000028cb0
 *(.farrodata.*61 .farrodata.*61$)
                0x0000000000000000                . = ALIGN (0x10)

.farrodata.62$  0x0000000000000000        0x0 load address 0x0000000000028cb0
 *(.farrodata.*62 .farrodata.*62$)
                0x0000000000000000                . = ALIGN (0x10)

.farrodata.63$  0x0000000000000000        0x0 load address 0x0000000000028cb0
 *(.farrodata.*63 .farrodata.*63$)
                0x0000000000000000                . = ALIGN (0x10)

.farrodata.64$  0x0000000000000000        0x0 load address 0x0000000000028cb0
 *(.farrodata.*64 .farrodata.*64$)
                0x0000000000000000                . = ALIGN (0x10)

.farrodata.65$  0x0000000000000000        0x0 load address 0x0000000000028cb0
 *(.farrodata.*65 .farrodata.*65$)
                0x0000000000000000                . = ALIGN (0x10)

.farrodata.66$  0x0000000000000000        0x0 load address 0x0000000000028cb0
 *(.farrodata.*66 .farrodata.*66$)
                0x0000000000000000                . = ALIGN (0x10)

.farrodata.67$  0x0000000000000000        0x0 load address 0x0000000000028cb0
 *(.farrodata.*67 .farrodata.*67$)
                0x0000000000000000                . = ALIGN (0x10)

.farrodata.70$  0x0000000000000000        0x0 load address 0x0000000000028cb0
 *(.farrodata.*70 .farrodata.*70$)
                0x0000000000000000                . = ALIGN (0x10)

.farrodata.71$  0x0000000000000000        0x0 load address 0x0000000000028cb0
 *(.farrodata.*71 .farrodata.*71$)
                0x0000000000000000                . = ALIGN (0x10)

.farrodata.72$  0x0000000000000000        0x0 load address 0x0000000000028cb0
 *(.farrodata.*72 .farrodata.*72$)
                0x0000000000000000                . = ALIGN (0x10)

.farrodata.73$  0x0000000000000000        0x0 load address 0x0000000000028cb0
 *(.farrodata.*73 .farrodata.*73$)
                0x0000000000000000                . = ALIGN (0x10)

.farrodata.74$  0x0000000000000000        0x0 load address 0x0000000000028cb0
 *(.farrodata.*74 .farrodata.*74$)
                0x0000000000000000                . = ALIGN (0x10)

.farrodata.75$  0x0000000000000000        0x0 load address 0x0000000000028cb0
 *(.farrodata.*75 .farrodata.*75$)
                0x0000000000000000                . = ALIGN (0x10)

.farrodata.76$  0x0000000000000000        0x0 load address 0x0000000000028cb0
 *(.farrodata.*76 .farrodata.*76$)
                0x0000000000000000                . = ALIGN (0x10)

.farrodata.77$  0x0000000000000000        0x0 load address 0x0000000000028cb0
 *(.farrodata.*77 .farrodata.*77$)
                0x0000000000000000                . = ALIGN (0x10)

.farrodata.XX$  0x0000000000000000        0x0 load address 0x0000000000028cb0
 *(.farrodata .farrodata$ .farrodata.*)
                0x0000000000000000                . = ALIGN (0x10)

.fardata.00$    0x0000000000000000        0x0 load address 0x0000000000028cb0
 *(.fardata.*00 .fardata.*00$)
                0x0000000000000000                . = ALIGN (0x10)

.fardata.01$    0x0000000000000000        0x0 load address 0x0000000000028cb0
 *(.fardata.*01 .fardata.*01$)
                0x0000000000000000                . = ALIGN (0x10)

.fardata.02$    0x0000000000000000        0x0 load address 0x0000000000028cb0
 *(.fardata.*02 .fardata.*02$)
                0x0000000000000000                . = ALIGN (0x10)

.fardata.03$    0x0000000000000000        0x0 load address 0x0000000000028cb0
 *(.fardata.*03 .fardata.*03$)
                0x0000000000000000                . = ALIGN (0x10)

.fardata.04$    0x0000000000000000        0x0 load address 0x0000000000028cb0
 *(.fardata.*04 .fardata.*04$)
                0x0000000000000000                . = ALIGN (0x10)

.fardata.05$    0x0000000000000000        0x0 load address 0x0000000000028cb0
 *(.fardata.*05 .fardata.*05$)
                0x0000000000000000                . = ALIGN (0x10)

.fardata.06$    0x0000000000000000        0x0 load address 0x0000000000028cb0
 *(.fardata.*06 .fardata.*06$)
                0x0000000000000000                . = ALIGN (0x10)

.fardata.07$    0x0000000000000000        0x0 load address 0x0000000000028cb0
 *(.fardata.*07 .fardata.*07$)
                0x0000000000000000                . = ALIGN (0x10)

.fardata.10$    0x0000000000000000        0x0 load address 0x0000000000028cb0
 *(.fardata.*10 .fardata.*10$)
                0x0000000000000000                . = ALIGN (0x10)

.fardata.11$    0x0000000000000000        0x0 load address 0x0000000000028cb0
 *(.fardata.*11 .fardata.*11$)
                0x0000000000000000                . = ALIGN (0x10)

.fardata.12$    0x0000000000000000        0x0 load address 0x0000000000028cb0
 *(.fardata.*12 .fardata.*12$)
                0x0000000000000000                . = ALIGN (0x10)

.fardata.13$    0x0000000000000000        0x0 load address 0x0000000000028cb0
 *(.fardata.*13 .fardata.*13$)
                0x0000000000000000                . = ALIGN (0x10)

.fardata.14$    0x0000000000000000        0x0 load address 0x0000000000028cb0
 *(.fardata.*14 .fardata.*14$)
                0x0000000000000000                . = ALIGN (0x10)

.fardata.15$    0x0000000000000000        0x0 load address 0x0000000000028cb0
 *(.fardata.*15 .fardata.*15$)
                0x0000000000000000                . = ALIGN (0x10)

.fardata.16$    0x0000000000000000        0x0 load address 0x0000000000028cb0
 *(.fardata.*16 .fardata.*16$)
                0x0000000000000000                . = ALIGN (0x10)

.fardata.17$    0x0000000000000000        0x0 load address 0x0000000000028cb0
 *(.fardata.*17 .fardata.*17$)
                0x0000000000000000                . = ALIGN (0x10)

.fardata.20$    0x0000000000000000        0x0 load address 0x0000000000028cb0
 *(.fardata.*20 .fardata.*20$)
                0x0000000000000000                . = ALIGN (0x10)

.fardata.21$    0x0000000000000000        0x0 load address 0x0000000000028cb0
 *(.fardata.*21 .fardata.*21$)
                0x0000000000000000                . = ALIGN (0x10)

.fardata.22$    0x0000000000000000        0x0 load address 0x0000000000028cb0
 *(.fardata.*22 .fardata.*22$)
                0x0000000000000000                . = ALIGN (0x10)

.fardata.23$    0x0000000000000000        0x0 load address 0x0000000000028cb0
 *(.fardata.*23 .fardata.*23$)
                0x0000000000000000                . = ALIGN (0x10)

.fardata.24$    0x0000000000000000        0x0 load address 0x0000000000028cb0
 *(.fardata.*24 .fardata.*24$)
                0x0000000000000000                . = ALIGN (0x10)

.fardata.25$    0x0000000000000000        0x0 load address 0x0000000000028cb0
 *(.fardata.*25 .fardata.*25$)
                0x0000000000000000                . = ALIGN (0x10)

.fardata.26$    0x0000000000000000        0x0 load address 0x0000000000028cb0
 *(.fardata.*26 .fardata.*26$)
                0x0000000000000000                . = ALIGN (0x10)

.fardata.27$    0x0000000000000000        0x0 load address 0x0000000000028cb0
 *(.fardata.*27 .fardata.*27$)
                0x0000000000000000                . = ALIGN (0x10)

.fardata.30$    0x0000000000000000        0x0 load address 0x0000000000028cb0
 *(.fardata.*30 .fardata.*30$)
                0x0000000000000000                . = ALIGN (0x10)

.fardata.31$    0x0000000000000000        0x0 load address 0x0000000000028cb0
 *(.fardata.*31 .fardata.*31$)
                0x0000000000000000                . = ALIGN (0x10)

.fardata.32$    0x0000000000000000        0x0 load address 0x0000000000028cb0
 *(.fardata.*32 .fardata.*32$)
                0x0000000000000000                . = ALIGN (0x10)

.fardata.33$    0x0000000000000000        0x0 load address 0x0000000000028cb0
 *(.fardata.*33 .fardata.*33$)
                0x0000000000000000                . = ALIGN (0x10)

.fardata.34$    0x0000000000000000        0x0 load address 0x0000000000028cb0
 *(.fardata.*34 .fardata.*34$)
                0x0000000000000000                . = ALIGN (0x10)

.fardata.35$    0x0000000000000000        0x0 load address 0x0000000000028cb0
 *(.fardata.*35 .fardata.*35$)
                0x0000000000000000                . = ALIGN (0x10)

.fardata.36$    0x0000000000000000        0x0 load address 0x0000000000028cb0
 *(.fardata.*36 .fardata.*36$)
                0x0000000000000000                . = ALIGN (0x10)

.fardata.37$    0x0000000000000000        0x0 load address 0x0000000000028cb0
 *(.fardata.*37 .fardata.*37$)
                0x0000000000000000                . = ALIGN (0x10)

.fardata.40$    0x0000000000000000        0x0 load address 0x0000000000028cb0
 *(.fardata.*40 .fardata.*40$)
                0x0000000000000000                . = ALIGN (0x10)

.fardata.41$    0x0000000000000000        0x0 load address 0x0000000000028cb0
 *(.fardata.*41 .fardata.*41$)
                0x0000000000000000                . = ALIGN (0x10)

.fardata.42$    0x0000000000000000        0x0 load address 0x0000000000028cb0
 *(.fardata.*42 .fardata.*42$)
                0x0000000000000000                . = ALIGN (0x10)

.fardata.43$    0x0000000000000000        0x0 load address 0x0000000000028cb0
 *(.fardata.*43 .fardata.*43$)
                0x0000000000000000                . = ALIGN (0x10)

.fardata.44$    0x0000000000000000        0x0 load address 0x0000000000028cb0
 *(.fardata.*44 .fardata.*44$)
                0x0000000000000000                . = ALIGN (0x10)

.fardata.45$    0x0000000000000000        0x0 load address 0x0000000000028cb0
 *(.fardata.*45 .fardata.*45$)
                0x0000000000000000                . = ALIGN (0x10)

.fardata.46$    0x0000000000000000        0x0 load address 0x0000000000028cb0
 *(.fardata.*46 .fardata.*46$)
                0x0000000000000000                . = ALIGN (0x10)

.fardata.47$    0x0000000000000000        0x0 load address 0x0000000000028cb0
 *(.fardata.*47 .fardata.*47$)
                0x0000000000000000                . = ALIGN (0x10)

.fardata.50$    0x0000000000000000        0x0 load address 0x0000000000028cb0
 *(.fardata.*50 .fardata.*50$)
                0x0000000000000000                . = ALIGN (0x10)

.fardata.51$    0x0000000000000000        0x0 load address 0x0000000000028cb0
 *(.fardata.*51 .fardata.*51$)
                0x0000000000000000                . = ALIGN (0x10)

.fardata.52$    0x0000000000000000        0x0 load address 0x0000000000028cb0
 *(.fardata.*52 .fardata.*52$)
                0x0000000000000000                . = ALIGN (0x10)

.fardata.53$    0x0000000000000000        0x0 load address 0x0000000000028cb0
 *(.fardata.*53 .fardata.*53$)
                0x0000000000000000                . = ALIGN (0x10)

.fardata.54$    0x0000000000000000        0x0 load address 0x0000000000028cb0
 *(.fardata.*54 .fardata.*54$)
                0x0000000000000000                . = ALIGN (0x10)

.fardata.55$    0x0000000000000000        0x0 load address 0x0000000000028cb0
 *(.fardata.*55 .fardata.*55$)
                0x0000000000000000                . = ALIGN (0x10)

.fardata.56$    0x0000000000000000        0x0 load address 0x0000000000028cb0
 *(.fardata.*56 .fardata.*56$)
                0x0000000000000000                . = ALIGN (0x10)

.fardata.57$    0x0000000000000000        0x0 load address 0x0000000000028cb0
 *(.fardata.*57 .fardata.*57$)
                0x0000000000000000                . = ALIGN (0x10)

.fardata.60$    0x0000000000000000        0x0 load address 0x0000000000028cb0
 *(.fardata.*60 .fardata.*60$)
                0x0000000000000000                . = ALIGN (0x10)

.fardata.61$    0x0000000000000000        0x0 load address 0x0000000000028cb0
 *(.fardata.*61 .fardata.*61$)
                0x0000000000000000                . = ALIGN (0x10)

.fardata.62$    0x0000000000000000        0x0 load address 0x0000000000028cb0
 *(.fardata.*62 .fardata.*62$)
                0x0000000000000000                . = ALIGN (0x10)

.fardata.63$    0x0000000000000000        0x0 load address 0x0000000000028cb0
 *(.fardata.*63 .fardata.*63$)
                0x0000000000000000                . = ALIGN (0x10)

.fardata.64$    0x0000000000000000        0x0 load address 0x0000000000028cb0
 *(.fardata.*64 .fardata.*64$)
                0x0000000000000000                . = ALIGN (0x10)

.fardata.65$    0x0000000000000000        0x0 load address 0x0000000000028cb0
 *(.fardata.*65 .fardata.*65$)
                0x0000000000000000                . = ALIGN (0x10)

.fardata.66$    0x0000000000000000        0x0 load address 0x0000000000028cb0
 *(.fardata.*66 .fardata.*66$)
                0x0000000000000000                . = ALIGN (0x10)

.fardata.67$    0x0000000000000000        0x0 load address 0x0000000000028cb0
 *(.fardata.*67 .fardata.*67$)
                0x0000000000000000                . = ALIGN (0x10)

.fardata.70$    0x0000000000000000        0x0 load address 0x0000000000028cb0
 *(.fardata.*70 .fardata.*70$)
                0x0000000000000000                . = ALIGN (0x10)

.fardata.71$    0x0000000000000000        0x0 load address 0x0000000000028cb0
 *(.fardata.*71 .fardata.*71$)
                0x0000000000000000                . = ALIGN (0x10)

.fardata.72$    0x0000000000000000        0x0 load address 0x0000000000028cb0
 *(.fardata.*72 .fardata.*72$)
                0x0000000000000000                . = ALIGN (0x10)

.fardata.73$    0x0000000000000000        0x0 load address 0x0000000000028cb0
 *(.fardata.*73 .fardata.*73$)
                0x0000000000000000                . = ALIGN (0x10)

.fardata.74$    0x0000000000000000        0x0 load address 0x0000000000028cb0
 *(.fardata.*74 .fardata.*74$)
                0x0000000000000000                . = ALIGN (0x10)

.fardata.75$    0x0000000000000000        0x0 load address 0x0000000000028cb0
 *(.fardata.*75 .fardata.*75$)
                0x0000000000000000                . = ALIGN (0x10)

.fardata.76$    0x0000000000000000        0x0 load address 0x0000000000028cb0
 *(.fardata.*76 .fardata.*76$)
                0x0000000000000000                . = ALIGN (0x10)

.fardata.77$    0x0000000000000000        0x0 load address 0x0000000000028cb0
 *(.fardata.*77 .fardata.*77$)
                0x0000000000000000                . = ALIGN (0x10)

.fardata.XX$    0x0000000000000000        0x0 load address 0x0000000000028cb0
 *(.fardata .fardata$ .fardata.*)
                0x0000000000000000                . = ALIGN (0x10)

.data           0x0000000000000020     0x5e90 load address 0x0000000000028cb0
                0x0000000000000020                __sdata = .
 *crtbegin*.o(.ctors)
 .ctors         0x0000000000000020        0x4 /usr/lib/x86_64-linux-gnu/gcc/ia16-elf/6.3.0/medium/regparmcall/crtbegin.o
 *(EXCLUDE_FILE(*crtend*.o) .ctors)
 *(SORT_BY_NAME(.ctors.*))
 *(.ctors)
 .ctors         0x0000000000000024        0x4 /usr/lib/x86_64-linux-gnu/gcc/ia16-elf/6.3.0/medium/regparmcall/crtend.o
 *crtbegin*.o(.dtors)
 .dtors         0x0000000000000028        0x4 /usr/lib/x86_64-linux-gnu/gcc/ia16-elf/6.3.0/medium/regparmcall/crtbegin.o
 *(EXCLUDE_FILE(*crtend*.o) .dtors)
 *(SORT_BY_NAME(.dtors.*))
 *(.dtors)
 .dtors         0x000000000000002c        0x4 /usr/lib/x86_64-linux-gnu/gcc/ia16-elf/6.3.0/medium/regparmcall/crtend.o
                0x000000000000002c                __DTOR_END__
 *(.msdos_init_rodata)
 *(.msdos_init_rodata.*)
 *(.rodata)
 .rodata        0x0000000000000030        0xc /tmp/ccrVjDZV.o
                0x0000000000000030                snd_prefixen
 .rodata        0x000000000000003c        0xc /tmp/ccRKBTkr.o
 .rodata        0x0000000000000048        0xe /tmp/ccgwqY45.o
 *fill*         0x0000000000000056        0x2 
 .rodata        0x0000000000000058       0x18 /tmp/ccwNsiwv.o
 .rodata        0x0000000000000070       0x20 /tmp/cc0OYEm1.o
 .rodata        0x0000000000000090       0x1a /tmp/ccMbpb2d.o
 *fill*         0x00000000000000aa        0x2 
 .rodata        0x00000000000000ac       0x4e /tmp/cc2FB5MW.o
 *fill*         0x00000000000000fa        0x2 
 .rodata        0x00000000000000fc        0xa /tmp/ccHBg70s.o
 *fill*         0x0000000000000106        0x2 
 .rodata        0x0000000000000108       0x2c /tmp/ccebu4yL.o
 .rodata        0x0000000000000134      0x132 /tmp/ccHDlBrQ.o
 *fill*         0x0000000000000266        0x2 
 .rodata        0x0000000000000268      0x132 /tmp/ccfeytV8.o
 *fill*         0x000000000000039a        0x2 
 .rodata        0x000000000000039c      0x118 /tmp/ccloZeTM.o
 .rodata        0x00000000000004b4       0x66 /tmp/ccyV2yGn.o
 *fill*         0x000000000000051a        0x2 
 .rodata        0x000000000000051c       0x16 /tmp/ccmCZnzK.o
 *fill*         0x0000000000000532        0x2 
 .rodata        0x0000000000000534        0xa /tmp/ccxkHKx5.o
 *fill*         0x000000000000053e        0x2 
 .rodata        0x0000000000000540       0x24 /tmp/ccn81c78.o
 .rodata        0x0000000000000564      0x28c /tmp/ccedHFxF.o
 .rodata        0x00000000000007f0      0x281 /usr/lib/x86_64-linux-gnu/gcc/ia16-elf/6.3.0/../../../../../ia16-elf/lib/medium/regparmcall/libc.a(lib_a-ctype_.o)
                0x00000000000007f0                _ctype_
 *fill*         0x0000000000000a71        0x1 
 .rodata        0x0000000000000a72       0x36 /usr/lib/x86_64-linux-gnu/gcc/ia16-elf/6.3.0/../../../../../ia16-elf/lib/medium/regparmcall/libc.a(lib_a-findfp.o)
                0x0000000000000a72                __sf_fake_stderr
                0x0000000000000a84                __sf_fake_stdout
                0x0000000000000a96                __sf_fake_stdin
 .rodata        0x0000000000000aa8        0x2 /usr/lib/x86_64-linux-gnu/gcc/ia16-elf/6.3.0/../../../../../ia16-elf/lib/medium/regparmcall/libc.a(lib_a-impure.o)
                0x0000000000000aa8                _global_impure_ptr
 .rodata        0x0000000000000aaa       0x4f /usr/lib/x86_64-linux-gnu/gcc/ia16-elf/6.3.0/../../../../../ia16-elf/lib/medium/regparmcall/libc.a(lib_a-nano-freer.o)
 .rodata        0x0000000000000af9       0x2a /usr/lib/x86_64-linux-gnu/gcc/ia16-elf/6.3.0/../../../../../ia16-elf/lib/medium/regparmcall/libc.a(lib_a-nano-mallocr.o)
 *fill*         0x0000000000000b23        0x1 
 .rodata        0x0000000000000b24       0xd6 /usr/lib/x86_64-linux-gnu/gcc/ia16-elf/6.3.0/../../../../../ia16-elf/lib/medium/regparmcall/libc.a(lib_a-svfiprintf.o)
 .rodata        0x0000000000000bfa       0x22 /usr/lib/x86_64-linux-gnu/gcc/ia16-elf/6.3.0/../../../../../ia16-elf/lib/medium/regparmcall/libc.a(lib_a-svfiscanf.o)
 .rodata        0x0000000000000c1c       0xd6 /usr/lib/x86_64-linux-gnu/gcc/ia16-elf/6.3.0/../../../../../ia16-elf/lib/medium/regparmcall/libc.a(lib_a-vfiprintf.o)
 .rodata        0x0000000000000cf2       0x22 /usr/lib/x86_64-linux-gnu/gcc/ia16-elf/6.3.0/../../../../../ia16-elf/lib/medium/regparmcall/libc.a(lib_a-vfiscanf.o)
 .rodata        0x0000000000000d14     0x34dc /usr/lib/x86_64-linux-gnu/gcc/ia16-elf/6.3.0/../../../../../ia16-elf/lib/medium/regparmcall/libc.a(lib_a-jp2uc.o)
 .rodata        0x00000000000041f0       0x78 /usr/lib/x86_64-linux-gnu/gcc/ia16-elf/6.3.0/../../../../../ia16-elf/lib/medium/regparmcall/libc.a(lib_a-locale.o)
 .rodata        0x0000000000004268       0x9c /usr/lib/x86_64-linux-gnu/gcc/ia16-elf/6.3.0/../../../../../ia16-elf/lib/medium/regparmcall/libc.a(lib_a-mbtowc_r.o)
 .rodata        0x0000000000004304      0x100 /usr/lib/x86_64-linux-gnu/gcc/ia16-elf/6.3.0/medium/regparmcall/libgcc.a(_clz.o)
                0x0000000000004304                __clz_tab
 .rodata        0x0000000000004404       0x43 /usr/lib/x86_64-linux-gnu/gcc/ia16-elf/6.3.0/../../../../../ia16-elf/lib/medium/regparmcall/libc.a(lib_a-abort.o)
 *(.rodata.*)
 .rodata.str1.1
                0x0000000000004447       0x66 /tmp/ccx4UaLN.o
 .rodata.str1.1
                0x00000000000044ad       0x53 /tmp/ccxEML8E.o
 .rodata.str1.1
                0x0000000000004500       0x17 /tmp/ccrVjDZV.o
 .rodata.str1.1
                0x0000000000004517      0x391 /tmp/cczAorzb.o
 .rodata.str1.1
                0x00000000000048a8       0x28 /tmp/ccRKBTkr.o
 .rodata.str1.1
                0x00000000000048d0        0xf /tmp/ccd4J8em.o
 .rodata.str1.1
                0x00000000000048df       0x6a /tmp/ccgwqY45.o
 .rodata.str1.1
                0x0000000000004949       0x56 /tmp/ccdsAyBl.o
 .rodata.str1.1
                0x000000000000499f      0x153 /tmp/ccwCcec4.o
 .rodata.str1.1
                0x0000000000004af2       0x29 /tmp/ccSifH9N.o
 .rodata.str1.1
                0x0000000000004b1b       0x34 /tmp/ccHDlBrQ.o
 .rodata.str1.1
                0x0000000000004b4f       0x90 /tmp/ccZiZ62w.o
 .rodata.str1.1
                0x0000000000004bdf       0x4d /tmp/ccMfMEUa.o
 .rodata.str1.1
                0x0000000000004c2c        0x6 /tmp/ccbYhx0K.o
 .rodata.str1.1
                0x0000000000004c32       0x26 /tmp/ccSVQz97.o
 .rodata.str1.1
                0x0000000000004c58      0x2da /tmp/ccez6CM4.o
 .rodata.str1.1
                0x0000000000004f32      0x12f /tmp/ccsVuJZl.o
 .rodata.str1.1
                0x0000000000005061       0x43 /tmp/ccn81c78.o
 .rodata.str1.1
                0x00000000000050a4       0x93 /tmp/ccg57Tlx.o
 .rodata.str1.1
                0x0000000000005137       0x19 /tmp/ccxi7GyK.o
 .rodata.str1.1
                0x0000000000005150        0x2 /usr/lib/x86_64-linux-gnu/gcc/ia16-elf/6.3.0/../../../../../ia16-elf/lib/medium/regparmcall/libc.a(lib_a-impure.o)
 .rodata.str1.1
                0x0000000000005152        0x2 /usr/lib/x86_64-linux-gnu/gcc/ia16-elf/6.3.0/../../../../../ia16-elf/lib/medium/regparmcall/libc.a(lib_a-puts.o)
 .rodata.str1.1
                0x0000000000005154       0x22 /usr/lib/x86_64-linux-gnu/gcc/ia16-elf/6.3.0/../../../../../ia16-elf/lib/medium/regparmcall/libc.a(lib_a-svfiprintf.o)
 .rodata.str1.1
                0x0000000000005176       0x22 /usr/lib/x86_64-linux-gnu/gcc/ia16-elf/6.3.0/../../../../../ia16-elf/lib/medium/regparmcall/libc.a(lib_a-vfiprintf.o)
 .rodata.str1.1
                0x0000000000005198        0xf /usr/lib/x86_64-linux-gnu/gcc/ia16-elf/6.3.0/../../../../../ia16-elf/lib/medium/regparmcall/libc.a(lib_a-jp2uc.o)
 .rodata.str1.1
                0x00000000000051a7       0xf4 /usr/lib/x86_64-linux-gnu/gcc/ia16-elf/6.3.0/../../../../../ia16-elf/lib/medium/regparmcall/libc.a(lib_a-locale.o)
 .rodata.str1.1
                0x000000000000529b        0x1 /usr/lib/x86_64-linux-gnu/gcc/ia16-elf/6.3.0/../../../../../ia16-elf/lib/medium/regparmcall/libc.a(lib_a-mbrtowc.o)
 .rodata.str1.1
                0x000000000000529c       0x11 /usr/lib/x86_64-linux-gnu/gcc/ia16-elf/6.3.0/../../../../../ia16-elf/lib/medium/regparmcall/libc.a(lib_a-abort.o)
 *(.autofloat_stdio.__ia16_have_printf_float.dprintf.v2)
 *(.autofloat_stdio.__ia16_have_printf_float._dprintf_r.v2)
 *(.autofloat_stdio.__ia16_have_printf_float.vdprintf.v2)
 *(.autofloat_stdio.__ia16_have_printf_float._vdprintf_r.v2)
 *(.autofloat_stdio.__ia16_have_printf_float.sprintf.v2)
 *(.autofloat_stdio.__ia16_have_printf_float._sprintf_r.v2)
 *(.autofloat_stdio.__ia16_have_printf_float.fprintf.v2)
 *(.autofloat_stdio.__ia16_have_printf_float._fprintf_r.v2)
 *(.autofloat_stdio.__ia16_have_printf_float.printf.v2)
 *(.autofloat_stdio.__ia16_have_printf_float._printf_r.v2)
 *(.autofloat_stdio.__ia16_have_printf_float.snprintf.v2)
 *(.autofloat_stdio.__ia16_have_printf_float._snprintf_r.v2)
 *(.autofloat_stdio.__ia16_have_printf_float.asprintf.v2)
 *(.autofloat_stdio.__ia16_have_printf_float._asprintf_r.v2)
 *(.autofloat_stdio.__ia16_have_printf_float.asnprintf.v2)
 *(.autofloat_stdio.__ia16_have_printf_float._asnprintf_r.v2)
 *(.autofloat_stdio.__ia16_have_printf_float.vprintf.v2)
 *(.autofloat_stdio.__ia16_have_printf_float._vprintf_r.v2)
 *(.autofloat_stdio.__ia16_have_printf_float.vfprintf.v2)
 *(.autofloat_stdio.__ia16_have_printf_float._vfprintf_r.v2)
 *(.autofloat_stdio.__ia16_have_printf_float.vsprintf.v2)
 *(.autofloat_stdio.__ia16_have_printf_float._vsprintf_r.v2)
 *(.autofloat_stdio.__ia16_have_printf_float.vsnprintf.v2)
 *(.autofloat_stdio.__ia16_have_printf_float._vsnprintf_r.v2)
 *(.autofloat_stdio.__ia16_have_printf_float.vasprintf.v2)
 *(.autofloat_stdio.__ia16_have_printf_float._vasprintf_r.v2)
 *(.autofloat_stdio.__ia16_have_printf_float.vasnprintf.v2)
 *(.autofloat_stdio.__ia16_have_printf_float._vasnprintf_r.v2)
 *(.autofloat_stdio.__ia16_have_scanf_float.sscanf.v2)
 *(.autofloat_stdio.__ia16_have_scanf_float._sscanf_r.v2)
 *(.autofloat_stdio.__ia16_have_scanf_float.fscanf.v2)
 *(.autofloat_stdio.__ia16_have_scanf_float._fscanf_r.v2)
 *(.autofloat_stdio.__ia16_have_scanf_float.scanf.v2)
 *(.autofloat_stdio.__ia16_have_scanf_float._scanf_r.v2)
 *(.autofloat_stdio.__ia16_have_scanf_float.vscanf.v2)
 *(.autofloat_stdio.__ia16_have_scanf_float._vscanf_r.v2)
 *(.autofloat_stdio.__ia16_have_scanf_float.vfscanf.v2)
 *(.autofloat_stdio.__ia16_have_scanf_float._vfscanf_r.v2)
 *(.autofloat_stdio.__ia16_have_scanf_float.vsscanf.v2)
 *(.autofloat_stdio.__ia16_have_scanf_float._vsscanf_r.v2)
                0x00000000000052ad                . = .
 *(.data)
 .data          0x00000000000052ad        0x0 /tmp/ccx4UaLN.o
 .data          0x00000000000052ad       0x18 /tmp/ccxEML8E.o
                0x00000000000052ad                ems_backfill_page_order
 .data          0x00000000000052c5        0x0 /tmp/ccdWvIGc.o
 .data          0x00000000000052c5       0x80 /tmp/ccr8wAuP.o
                0x00000000000052c5                scantokey
 .data          0x0000000000005345        0x0 /tmp/ccrVjDZV.o
 .data          0x0000000000005345        0x0 /tmp/ccmI9gWq.o
 .data          0x0000000000005345        0x0 /tmp/ccWnJyBJ.o
 .data          0x0000000000005345        0x0 /tmp/cczAorzb.o
 .data          0x0000000000005345        0x2 /tmp/ccRKBTkr.o
                0x0000000000005346                wipegamestate
 .data          0x0000000000005347        0x0 /tmp/ccO3qzw4.o
 .data          0x0000000000005347        0x0 /tmp/ccd4J8em.o
 *fill*         0x0000000000005347        0x1 
 .data          0x0000000000005348       0x55 /tmp/ccgwqY45.o
                0x0000000000005348                cpars
                0x0000000000005368                pars
                0x0000000000005390                mousebuttons
                0x0000000000005392                angleturn
                0x0000000000005398                sidemove
                0x000000000000539a                forwardmove
                0x000000000000539c                precache
 *fill*         0x000000000000539d        0x1 
 .data          0x000000000000539e      0x1d3 /tmp/ccdsAyBl.o
                0x000000000000539e                quitsounds2
                0x00000000000053a6                quitsounds
                0x00000000000053ae                msgNames
                0x00000000000053b0                detailNames
                0x00000000000053b2                SaveDef
                0x00000000000053c0                SaveMenu
                0x00000000000053ea                LoadDef
                0x00000000000053f8                LoadMenu
                0x0000000000005422                SoundDef
                0x0000000000005430                SoundMenu
                0x000000000000544c                ReadDef2
                0x000000000000545a                ReadMenu2
                0x0000000000005461                ReadDef1
                0x000000000000546f                ReadMenu1
                0x0000000000005476                OptionsDef
                0x0000000000005484                OptionsMenu
                0x00000000000054bc                NewDef
                0x00000000000054ca                NewGameMenu
                0x00000000000054ed                EpiDef
                0x00000000000054fb                EpisodeMenu
                0x0000000000005510                MainDef
                0x000000000000551e                MainMenu
                0x0000000000005548                skullName
                0x000000000000554c                endmsg2
                0x000000000000555c                endmsg
                0x000000000000556c                gammamsg
 .data          0x0000000000005571      0x1c4 /tmp/ccwCcec4.o
                0x0000000000005571                defaults
                0x0000000000005635                rndtable
 .data          0x0000000000005735        0x0 /tmp/ccRwwzkV.o
 .data          0x0000000000005735        0x0 /tmp/ccSifH9N.o
 .data          0x0000000000005735        0x0 /tmp/ccwNsiwv.o
 .data          0x0000000000005735        0x0 /tmp/cc0OYEm1.o
 *fill*         0x0000000000005735        0x1 
 .data          0x0000000000005736       0x5d /tmp/ccBS9DOf.o
                0x0000000000005736                movedirangles
                0x0000000000005746                yspeed
                0x0000000000005766                xspeed
                0x0000000000005786                diags
                0x000000000000578a                opposite
 .data          0x0000000000005793        0x0 /tmp/ccMbpb2d.o
 *fill*         0x0000000000005793        0x1 
 .data          0x0000000000005794        0xc /tmp/cc2FB5MW.o
                0x0000000000005794                clipammo
                0x0000000000005798                maxammo
 .data          0x00000000000057a0        0x0 /tmp/cczHazkj.o
 .data          0x00000000000057a0        0x0 /tmp/cc0JoFl7.o
 .data          0x00000000000057a0        0x0 /tmp/ccUdflWr.o
 .data          0x00000000000057a0        0x0 /tmp/ccHBg70s.o
 .data          0x00000000000057a0       0x63 /tmp/ccebu4yL.o
                0x00000000000057a0                weaponinfo
 *fill*         0x0000000000005803        0x1 
 .data          0x0000000000005804        0x2 /tmp/ccHDlBrQ.o
                0x0000000000005804                leveldataoffset_rend
 .data          0x0000000000005806        0x0 /tmp/cckU1VC7.o
 .data          0x0000000000005806        0x0 /tmp/ccfeytV8.o
 .data          0x0000000000005806        0x0 /tmp/ccloZeTM.o
 .data          0x0000000000005806        0x0 /tmp/ccyV2yGn.o
 .data          0x0000000000005806        0x0 /tmp/ccEwe8Ga.o
 .data          0x0000000000005806        0x0 /tmp/ccuOrYlb.o
 .data          0x0000000000005806        0x0 /tmp/ccN6UUr8.o
 .data          0x0000000000005806        0x0 /tmp/ccrPLpfy.o
 .data          0x0000000000005806        0x0 /tmp/ccZiZ62w.o
 .data          0x0000000000005806        0x0 /tmp/ccjLIErg.o
 .data          0x0000000000005806        0x0 /tmp/ccmCZnzK.o
 .data          0x0000000000005806        0x0 /tmp/cctz3Ysd.o
 .data          0x0000000000005806       0x32 /tmp/ccMfMEUa.o
                0x0000000000005806                fuzzoffset
 .data          0x0000000000005838        0x2 /tmp/ccU4AkX7.o
                0x0000000000005838                validcount
 .data          0x000000000000583a        0x0 /tmp/ccbYhx0K.o
 .data          0x000000000000583a        0x0 /tmp/ccnVnEoI.o
 .data          0x000000000000583a        0x0 /tmp/ccuVxVXF.o
 .data          0x000000000000583a        0x0 /tmp/ccSVQz97.o
 .data          0x000000000000583a        0x0 /tmp/ccAji60c.o
 .data          0x000000000000583a        0x0 /tmp/cc6ZXgwY.o
 .data          0x000000000000583a        0x0 /tmp/ccxkHKx5.o
 .data          0x000000000000583a        0x0 /tmp/ccez6CM4.o
 .data          0x000000000000583a        0x0 /tmp/ccsVuJZl.o
 .data          0x000000000000583a      0x212 /tmp/ccn81c78.o
                0x000000000000583a                oldtask
                0x000000000000583c                currenttask
                0x000000000000583e                last5000State
                0x000000000000583f                current5000State
                0x0000000000005840                last4000State
                0x0000000000005841                current4000State
                0x0000000000005842                current5000flatpage
                0x0000000000005844                pageswapargs
 .data          0x0000000000005a4c        0x0 /tmp/ccg57Tlx.o
 .data          0x0000000000005a4c        0x3 /tmp/ccmrsGy9.o
                0x0000000000005a4c                armsbgarray
                0x0000000000005a4e                st_stopped
 *fill*         0x0000000000005a4f        0x1 
 .data          0x0000000000005a50      0x176 /tmp/ccxi7GyK.o
                0x0000000000005a54                cheat_mypos
                0x0000000000005a58                cheat_clev
                0x0000000000005a5c                cheat_choppers
                0x0000000000005a60                cheat_powerup
                0x0000000000005a7c                cheat_commercial_noclip
                0x0000000000005a80                cheat_noclip
                0x0000000000005a84                cheat_ammonokey
                0x0000000000005a88                cheat_ammo
                0x0000000000005a8c                cheat_god
                0x0000000000005a90                cheat_mus
                0x0000000000005a94                cheat_mypos_seq
                0x0000000000005a9c                cheat_clev_seq
                0x0000000000005aa6                cheat_powerup_seq
                0x0000000000005aec                cheat_commercial_noclip_seq
                0x0000000000005af3                cheat_noclip_seq
                0x0000000000005afe                cheat_ammonokey_seq
                0x0000000000005b03                cheat_ammo_seq
                0x0000000000005b09                cheat_god_seq
                0x0000000000005b0f                cheat_choppers_seq
                0x0000000000005b1a                cheat_mus_seq
                0x0000000000005b24                st_oldhealth
                0x0000000000005b26                arms
                0x0000000000005b3e                faces
                0x0000000000005b92                keys
                0x0000000000005b9e                shortnum
                0x0000000000005bb2                tallnum
 .data          0x0000000000005bc6        0x0 /tmp/ccFadrpy.o
 .data          0x0000000000005bc6       0xec /tmp/ccChX4pF.o
                0x0000000000005bc6                mapnames2
                0x0000000000005c06                mapnames
                0x0000000000005c34                hu_font
 .data          0x0000000000005cb2        0x0 /tmp/cc1o6kRN.o
 .data          0x0000000000005cb2        0x0 /tmp/ccKXMMCH.o
 .data          0x0000000000005cb2        0x0 /tmp/ccooxdNr.o
 .data          0x0000000000005cb2        0x0 /tmp/cc5KyAj2.o
 .data          0x0000000000005cb2        0x0 /tmp/ccVoZS4i.o
 .data          0x0000000000005cb2        0x0 /tmp/ccQEdboh.o
 .data          0x0000000000005cb2        0x0 /tmp/ccqxWioq.o
 .data          0x0000000000005cb2        0x0 /tmp/ccedHFxF.o
 .data          0x0000000000005cb2       0x50 /tmp/ccCXOkep.o
                0x0000000000005cb2                MULT_4096
                0x0000000000005cba                pageoffsets
                0x0000000000005cc2                lightshift7lookup
                0x0000000000005ce2                lightmult48lookup
 .data          0x0000000000005d02        0x4 /tmp/cc1jrtzy.o
                0x0000000000005d02                TaskServiceRate
 .data          0x0000000000005d06        0x0 /usr/lib/x86_64-linux-gnu/gcc/ia16-elf/6.3.0/../../../../../ia16-elf/lib/medium/regparmcall/libi86.a(libi86-int86-do.o)
 .data          0x0000000000005d06        0x0 /usr/lib/x86_64-linux-gnu/gcc/ia16-elf/6.3.0/../../../../../ia16-elf/lib/medium/regparmcall/libi86.a(libi86-int86x-do.o)
 .data          0x0000000000005d06        0x0 /usr/lib/x86_64-linux-gnu/gcc/ia16-elf/6.3.0/../../../../../ia16-elf/lib/medium/regparmcall/libi86.a(libi86-intr-call-0020.o)
 .data          0x0000000000005d06        0x0 /usr/lib/x86_64-linux-gnu/gcc/ia16-elf/6.3.0/../../../../../ia16-elf/lib/medium/regparmcall/libi86.a(libi86-intr-call-0041.o)
 .data          0x0000000000005d06        0x0 /usr/lib/x86_64-linux-gnu/gcc/ia16-elf/6.3.0/../../../../../ia16-elf/lib/medium/regparmcall/libi86.a(libi86-intr-call-0063.o)
 .data          0x0000000000005d06        0x0 /usr/lib/x86_64-linux-gnu/gcc/ia16-elf/6.3.0/../../../../../ia16-elf/lib/medium/regparmcall/libi86.a(libi86-intr-call-0147.o)
 .data          0x0000000000005d06        0x0 /usr/lib/x86_64-linux-gnu/gcc/ia16-elf/6.3.0/../../../../../ia16-elf/lib/medium/regparmcall/libi86.a(fmemcpy.o)
 .data          0x0000000000005d06        0x0 /usr/lib/x86_64-linux-gnu/gcc/ia16-elf/6.3.0/../../../../../ia16-elf/lib/medium/regparmcall/libi86.a(fmemset.o)
 .data          0x0000000000005d06        0x0 /usr/lib/x86_64-linux-gnu/gcc/ia16-elf/6.3.0/../../../../../ia16-elf/lib/medium/regparmcall/libi86.a(dos-getvect.o)
 .data          0x0000000000005d06        0x0 /usr/lib/x86_64-linux-gnu/gcc/ia16-elf/6.3.0/../../../../../ia16-elf/lib/medium/regparmcall/libi86.a(dos-setvect.o)
 .data          0x0000000000005d06        0x0 /usr/lib/x86_64-linux-gnu/gcc/ia16-elf/6.3.0/../../../../../ia16-elf/lib/medium/regparmcall/libi86.a(ffree.o)
 .data          0x0000000000005d06        0x0 /usr/lib/x86_64-linux-gnu/gcc/ia16-elf/6.3.0/../../../../../ia16-elf/lib/medium/regparmcall/libi86.a(fmalloc.o)
 .data          0x0000000000005d06        0x0 /usr/lib/x86_64-linux-gnu/gcc/ia16-elf/6.3.0/../../../../../ia16-elf/lib/medium/regparmcall/libi86.a(dos-allocmem.o)
 .data          0x0000000000005d06        0x0 /usr/lib/x86_64-linux-gnu/gcc/ia16-elf/6.3.0/../../../../../ia16-elf/lib/medium/regparmcall/libi86.a(dos-freemem.o)
 .data          0x0000000000005d06        0x0 /usr/lib/x86_64-linux-gnu/gcc/ia16-elf/6.3.0/../../../../../ia16-elf/lib/medium/regparmcall/libi86.a(libi86-ret-really-set-errno.o)
 .data          0x0000000000005d06        0x0 /usr/lib/x86_64-linux-gnu/gcc/ia16-elf/6.3.0/../../../../../ia16-elf/lib/medium/regparmcall/tprtf-fw.a(t-sprintf.o)
 .data          0x0000000000005d06        0x0 /usr/lib/x86_64-linux-gnu/gcc/ia16-elf/6.3.0/../../../../../ia16-elf/lib/medium/regparmcall/tprtf-fw.a(t-fprintf.o)
 .data          0x0000000000005d06        0x0 /usr/lib/x86_64-linux-gnu/gcc/ia16-elf/6.3.0/../../../../../ia16-elf/lib/medium/regparmcall/tprtf-fw.a(t-printf.o)
 .data          0x0000000000005d06        0x0 /usr/lib/x86_64-linux-gnu/gcc/ia16-elf/6.3.0/../../../../../ia16-elf/lib/medium/regparmcall/tprtf-fw.a(t-vprintf.o)
 .data          0x0000000000005d06        0x0 /usr/lib/x86_64-linux-gnu/gcc/ia16-elf/6.3.0/../../../../../ia16-elf/lib/medium/regparmcall/tscnf-fw.a(t-sscanf.o)
 .data          0x0000000000005d06        0x0 /usr/lib/x86_64-linux-gnu/gcc/ia16-elf/6.3.0/../../../../../ia16-elf/lib/medium/regparmcall/tscnf-fw.a(t-fscanf.o)
 .data          0x0000000000005d06        0x0 /usr/lib/x86_64-linux-gnu/gcc/ia16-elf/6.3.0/../../../../../ia16-elf/lib/medium/regparmcall/iprtf-fw.a(i-sprintf.o)
 .data          0x0000000000005d06        0x0 /usr/lib/x86_64-linux-gnu/gcc/ia16-elf/6.3.0/../../../../../ia16-elf/lib/medium/regparmcall/iprtf-fw.a(i-fprintf.o)
 .data          0x0000000000005d06        0x0 /usr/lib/x86_64-linux-gnu/gcc/ia16-elf/6.3.0/../../../../../ia16-elf/lib/medium/regparmcall/iprtf-fw.a(i-printf.o)
 .data          0x0000000000005d06        0x0 /usr/lib/x86_64-linux-gnu/gcc/ia16-elf/6.3.0/../../../../../ia16-elf/lib/medium/regparmcall/iprtf-fw.a(i-vprintf.o)
 .data          0x0000000000005d06        0x0 /usr/lib/x86_64-linux-gnu/gcc/ia16-elf/6.3.0/../../../../../ia16-elf/lib/medium/regparmcall/iscnf-fw.a(i-sscanf.o)
 .data          0x0000000000005d06        0x0 /usr/lib/x86_64-linux-gnu/gcc/ia16-elf/6.3.0/../../../../../ia16-elf/lib/medium/regparmcall/iscnf-fw.a(i-fscanf.o)
 .data          0x0000000000005d06        0x2 /usr/lib/x86_64-linux-gnu/gcc/ia16-elf/6.3.0/medium/regparmcall/crtbegin.o
                0x0000000000005d06                __dso_handle
 .data          0x0000000000005d08        0x0 /usr/lib/x86_64-linux-gnu/gcc/ia16-elf/6.3.0/medium/regparmcall/crtend.o
 .data          0x0000000000005d08        0x0 /usr/lib/x86_64-linux-gnu/gcc/ia16-elf/6.3.0/../../../../../ia16-elf/lib/medium/regparmcall/dos-m-c0.o
 .data          0x0000000000005d08        0x0 /usr/lib/x86_64-linux-gnu/gcc/ia16-elf/6.3.0/../../../../../ia16-elf/lib/medium/regparmcall/libc.a(lib_a-atoi.o)
 .data          0x0000000000005d08        0x2 /usr/lib/x86_64-linux-gnu/gcc/ia16-elf/6.3.0/../../../../../ia16-elf/lib/medium/regparmcall/libc.a(lib_a-ctype_.o)
                0x0000000000005d08                __ctype_ptr__
 .data          0x0000000000005d0a        0x0 /usr/lib/x86_64-linux-gnu/gcc/ia16-elf/6.3.0/../../../../../ia16-elf/lib/medium/regparmcall/libc.a(lib_a-errno.o)
 .data          0x0000000000005d0a        0x0 /usr/lib/x86_64-linux-gnu/gcc/ia16-elf/6.3.0/../../../../../ia16-elf/lib/medium/regparmcall/libc.a(lib_a-exit.o)
 .data          0x0000000000005d0a        0x0 /usr/lib/x86_64-linux-gnu/gcc/ia16-elf/6.3.0/../../../../../ia16-elf/lib/medium/regparmcall/libc.a(lib_a-fclose.o)
 .data          0x0000000000005d0a        0x0 /usr/lib/x86_64-linux-gnu/gcc/ia16-elf/6.3.0/../../../../../ia16-elf/lib/medium/regparmcall/libc.a(lib_a-feof.o)
 .data          0x0000000000005d0a        0x0 /usr/lib/x86_64-linux-gnu/gcc/ia16-elf/6.3.0/../../../../../ia16-elf/lib/medium/regparmcall/libc.a(lib_a-fflush.o)
 .data          0x0000000000005d0a        0x0 /usr/lib/x86_64-linux-gnu/gcc/ia16-elf/6.3.0/../../../../../ia16-elf/lib/medium/regparmcall/libc.a(lib_a-fgetc.o)
 .data          0x0000000000005d0a        0x0 /usr/lib/x86_64-linux-gnu/gcc/ia16-elf/6.3.0/../../../../../ia16-elf/lib/medium/regparmcall/libc.a(lib_a-findfp.o)
 .data          0x0000000000005d0a        0x0 /usr/lib/x86_64-linux-gnu/gcc/ia16-elf/6.3.0/../../../../../ia16-elf/lib/medium/regparmcall/libc.a(lib_a-fiprintf.o)
 .data          0x0000000000005d0a        0x0 /usr/lib/x86_64-linux-gnu/gcc/ia16-elf/6.3.0/../../../../../ia16-elf/lib/medium/regparmcall/libc.a(lib_a-fiscanf.o)
 .data          0x0000000000005d0a        0x0 /usr/lib/x86_64-linux-gnu/gcc/ia16-elf/6.3.0/../../../../../ia16-elf/lib/medium/regparmcall/libc.a(lib_a-fopen.o)
 .data          0x0000000000005d0a        0x0 /usr/lib/x86_64-linux-gnu/gcc/ia16-elf/6.3.0/../../../../../ia16-elf/lib/medium/regparmcall/libc.a(lib_a-fread.o)
 .data          0x0000000000005d0a        0x0 /usr/lib/x86_64-linux-gnu/gcc/ia16-elf/6.3.0/../../../../../ia16-elf/lib/medium/regparmcall/libc.a(lib_a-fseek.o)
 .data          0x0000000000005d0a        0x0 /usr/lib/x86_64-linux-gnu/gcc/ia16-elf/6.3.0/../../../../../ia16-elf/lib/medium/regparmcall/libc.a(lib_a-fseeko.o)
 .data          0x0000000000005d0a        0x0 /usr/lib/x86_64-linux-gnu/gcc/ia16-elf/6.3.0/../../../../../ia16-elf/lib/medium/regparmcall/libc.a(lib_a-fwalk.o)
 .data          0x0000000000005d0a        0x0 /usr/lib/x86_64-linux-gnu/gcc/ia16-elf/6.3.0/../../../../../ia16-elf/lib/medium/regparmcall/libc.a(lib_a-fwrite.o)
 .data          0x0000000000005d0a        0x0 /usr/lib/x86_64-linux-gnu/gcc/ia16-elf/6.3.0/../../../../../ia16-elf/lib/medium/regparmcall/libc.a(lib_a-getc.o)
 .data          0x0000000000005d0a       0x34 /usr/lib/x86_64-linux-gnu/gcc/ia16-elf/6.3.0/../../../../../ia16-elf/lib/medium/regparmcall/libc.a(lib_a-impure.o)
                0x0000000000005d0a                _impure_ptr
 .data          0x0000000000005d3e        0x0 /usr/lib/x86_64-linux-gnu/gcc/ia16-elf/6.3.0/../../../../../ia16-elf/lib/medium/regparmcall/libc.a(lib_a-iprintf.o)
 .data          0x0000000000005d3e        0x0 /usr/lib/x86_64-linux-gnu/gcc/ia16-elf/6.3.0/../../../../../ia16-elf/lib/medium/regparmcall/libc.a(lib_a-makebuf.o)
 .data          0x0000000000005d3e        0x0 /usr/lib/x86_64-linux-gnu/gcc/ia16-elf/6.3.0/../../../../../ia16-elf/lib/medium/regparmcall/libc.a(lib_a-malloc.o)
 .data          0x0000000000005d3e        0x0 /usr/lib/x86_64-linux-gnu/gcc/ia16-elf/6.3.0/../../../../../ia16-elf/lib/medium/regparmcall/libc.a(lib_a-memcpy.o)
 .data          0x0000000000005d3e        0x0 /usr/lib/x86_64-linux-gnu/gcc/ia16-elf/6.3.0/../../../../../ia16-elf/lib/medium/regparmcall/libc.a(lib_a-memmove.o)
 .data          0x0000000000005d3e        0x0 /usr/lib/x86_64-linux-gnu/gcc/ia16-elf/6.3.0/../../../../../ia16-elf/lib/medium/regparmcall/libc.a(lib_a-memset.o)
 .data          0x0000000000005d3e        0x0 /usr/lib/x86_64-linux-gnu/gcc/ia16-elf/6.3.0/../../../../../ia16-elf/lib/medium/regparmcall/libc.a(lib_a-nano-freer.o)
 .data          0x0000000000005d3e        0x0 /usr/lib/x86_64-linux-gnu/gcc/ia16-elf/6.3.0/../../../../../ia16-elf/lib/medium/regparmcall/libc.a(lib_a-nano-mallocr.o)
 .data          0x0000000000005d3e        0x0 /usr/lib/x86_64-linux-gnu/gcc/ia16-elf/6.3.0/../../../../../ia16-elf/lib/medium/regparmcall/libc.a(lib_a-putchar.o)
 .data          0x0000000000005d3e        0x0 /usr/lib/x86_64-linux-gnu/gcc/ia16-elf/6.3.0/../../../../../ia16-elf/lib/medium/regparmcall/libc.a(lib_a-puts.o)
 .data          0x0000000000005d3e        0x0 /usr/lib/x86_64-linux-gnu/gcc/ia16-elf/6.3.0/../../../../../ia16-elf/lib/medium/regparmcall/libc.a(lib_a-refill.o)
 .data          0x0000000000005d3e        0x0 /usr/lib/x86_64-linux-gnu/gcc/ia16-elf/6.3.0/../../../../../ia16-elf/lib/medium/regparmcall/libc.a(lib_a-rget.o)
 .data          0x0000000000005d3e        0x0 /usr/lib/x86_64-linux-gnu/gcc/ia16-elf/6.3.0/../../../../../ia16-elf/lib/medium/regparmcall/libc.a(lib_a-setbuf.o)
 .data          0x0000000000005d3e        0x0 /usr/lib/x86_64-linux-gnu/gcc/ia16-elf/6.3.0/../../../../../ia16-elf/lib/medium/regparmcall/libc.a(lib_a-setvbuf.o)
 .data          0x0000000000005d3e        0x0 /usr/lib/x86_64-linux-gnu/gcc/ia16-elf/6.3.0/../../../../../ia16-elf/lib/medium/regparmcall/libc.a(lib_a-siprintf.o)
 .data          0x0000000000005d3e        0x0 /usr/lib/x86_64-linux-gnu/gcc/ia16-elf/6.3.0/../../../../../ia16-elf/lib/medium/regparmcall/libc.a(lib_a-siscanf.o)
 .data          0x0000000000005d3e        0x0 /usr/lib/x86_64-linux-gnu/gcc/ia16-elf/6.3.0/../../../../../ia16-elf/lib/medium/regparmcall/libc.a(lib_a-stdio.o)
 .data          0x0000000000005d3e        0x0 /usr/lib/x86_64-linux-gnu/gcc/ia16-elf/6.3.0/../../../../../ia16-elf/lib/medium/regparmcall/libc.a(lib_a-strcasecmp.o)
 .data          0x0000000000005d3e        0x0 /usr/lib/x86_64-linux-gnu/gcc/ia16-elf/6.3.0/../../../../../ia16-elf/lib/medium/regparmcall/libc.a(lib_a-strcat.o)
 .data          0x0000000000005d3e        0x0 /usr/lib/x86_64-linux-gnu/gcc/ia16-elf/6.3.0/../../../../../ia16-elf/lib/medium/regparmcall/libc.a(lib_a-strcmp.o)
 .data          0x0000000000005d3e        0x0 /usr/lib/x86_64-linux-gnu/gcc/ia16-elf/6.3.0/../../../../../ia16-elf/lib/medium/regparmcall/libc.a(lib_a-strcpy.o)
 .data          0x0000000000005d3e        0x0 /usr/lib/x86_64-linux-gnu/gcc/ia16-elf/6.3.0/../../../../../ia16-elf/lib/medium/regparmcall/libc.a(lib_a-strlen.o)
 .data          0x0000000000005d3e        0x0 /usr/lib/x86_64-linux-gnu/gcc/ia16-elf/6.3.0/../../../../../ia16-elf/lib/medium/regparmcall/libc.a(lib_a-strncasecmp.o)
 .data          0x0000000000005d3e        0x0 /usr/lib/x86_64-linux-gnu/gcc/ia16-elf/6.3.0/../../../../../ia16-elf/lib/medium/regparmcall/libc.a(lib_a-strncmp.o)
 .data          0x0000000000005d3e        0x0 /usr/lib/x86_64-linux-gnu/gcc/ia16-elf/6.3.0/../../../../../ia16-elf/lib/medium/regparmcall/libc.a(lib_a-strncpy.o)
 .data          0x0000000000005d3e        0x0 /usr/lib/x86_64-linux-gnu/gcc/ia16-elf/6.3.0/../../../../../ia16-elf/lib/medium/regparmcall/libc.a(lib_a-strtol.o)
 .data          0x0000000000005d3e        0x0 /usr/lib/x86_64-linux-gnu/gcc/ia16-elf/6.3.0/../../../../../ia16-elf/lib/medium/regparmcall/libc.a(lib_a-strupr.o)
 .data          0x0000000000005d3e        0x0 /usr/lib/x86_64-linux-gnu/gcc/ia16-elf/6.3.0/../../../../../ia16-elf/lib/medium/regparmcall/libc.a(lib_a-svfiprintf.o)
 .data          0x0000000000005d3e        0x0 /usr/lib/x86_64-linux-gnu/gcc/ia16-elf/6.3.0/../../../../../ia16-elf/lib/medium/regparmcall/libc.a(lib_a-svfiscanf.o)
 .data          0x0000000000005d3e        0x0 /usr/lib/x86_64-linux-gnu/gcc/ia16-elf/6.3.0/../../../../../ia16-elf/lib/medium/regparmcall/libc.a(lib_a-sysclose.o)
 .data          0x0000000000005d3e        0x0 /usr/lib/x86_64-linux-gnu/gcc/ia16-elf/6.3.0/../../../../../ia16-elf/lib/medium/regparmcall/libc.a(lib_a-sysisatty.o)
 .data          0x0000000000005d3e        0x0 /usr/lib/x86_64-linux-gnu/gcc/ia16-elf/6.3.0/../../../../../ia16-elf/lib/medium/regparmcall/libc.a(lib_a-syslseek.o)
 .data          0x0000000000005d3e        0x0 /usr/lib/x86_64-linux-gnu/gcc/ia16-elf/6.3.0/../../../../../ia16-elf/lib/medium/regparmcall/libc.a(lib_a-sysopen.o)
 .data          0x0000000000005d3e        0x0 /usr/lib/x86_64-linux-gnu/gcc/ia16-elf/6.3.0/../../../../../ia16-elf/lib/medium/regparmcall/libc.a(lib_a-sysread.o)
 .data          0x0000000000005d3e        0x0 /usr/lib/x86_64-linux-gnu/gcc/ia16-elf/6.3.0/../../../../../ia16-elf/lib/medium/regparmcall/libc.a(lib_a-syswrite.o)
 .data          0x0000000000005d3e        0x0 /usr/lib/x86_64-linux-gnu/gcc/ia16-elf/6.3.0/../../../../../ia16-elf/lib/medium/regparmcall/libc.a(lib_a-ungetc.o)
 .data          0x0000000000005d3e        0x0 /usr/lib/x86_64-linux-gnu/gcc/ia16-elf/6.3.0/../../../../../ia16-elf/lib/medium/regparmcall/libc.a(lib_a-vfiprintf.o)
 .data          0x0000000000005d3e        0x0 /usr/lib/x86_64-linux-gnu/gcc/ia16-elf/6.3.0/../../../../../ia16-elf/lib/medium/regparmcall/libc.a(lib_a-vfiscanf.o)
 .data          0x0000000000005d3e        0x0 /usr/lib/x86_64-linux-gnu/gcc/ia16-elf/6.3.0/../../../../../ia16-elf/lib/medium/regparmcall/libc.a(lib_a-viprintf.o)
 .data          0x0000000000005d3e        0x0 /usr/lib/x86_64-linux-gnu/gcc/ia16-elf/6.3.0/../../../../../ia16-elf/lib/medium/regparmcall/libc.a(lib_a-wcrtomb.o)
 .data          0x0000000000005d3e        0x0 /usr/lib/x86_64-linux-gnu/gcc/ia16-elf/6.3.0/../../../../../ia16-elf/lib/medium/regparmcall/libc.a(lib_a-wcsrtombs.o)
 .data          0x0000000000005d3e        0x4 /usr/lib/x86_64-linux-gnu/gcc/ia16-elf/6.3.0/../../../../../ia16-elf/lib/medium/regparmcall/libc.a(lib_a-wctomb_r.o)
                0x0000000000005d3e                __wctomb
 .data          0x0000000000005d42        0x0 /usr/lib/x86_64-linux-gnu/gcc/ia16-elf/6.3.0/../../../../../ia16-elf/lib/medium/regparmcall/libc.a(lib_a-wsetup.o)
 .data          0x0000000000005d42        0x0 /usr/lib/x86_64-linux-gnu/gcc/ia16-elf/6.3.0/../../../../../ia16-elf/lib/medium/regparmcall/libc.a(lib_a-__call_atexit.o)
 .data          0x0000000000005d42        0x0 /usr/lib/x86_64-linux-gnu/gcc/ia16-elf/6.3.0/../../../../../ia16-elf/lib/medium/regparmcall/libc.a(lib_a-flags.o)
 .data          0x0000000000005d42        0x0 /usr/lib/x86_64-linux-gnu/gcc/ia16-elf/6.3.0/../../../../../ia16-elf/lib/medium/regparmcall/libc.a(lib_a-fvwrite.o)
 .data          0x0000000000005d42        0x0 /usr/lib/x86_64-linux-gnu/gcc/ia16-elf/6.3.0/../../../../../ia16-elf/lib/medium/regparmcall/libc.a(lib_a-iswspace.o)
 .data          0x0000000000005d42        0x0 /usr/lib/x86_64-linux-gnu/gcc/ia16-elf/6.3.0/../../../../../ia16-elf/lib/medium/regparmcall/libc.a(lib_a-jp2uc.o)
 .data          0x0000000000005d42      0x164 /usr/lib/x86_64-linux-gnu/gcc/ia16-elf/6.3.0/../../../../../ia16-elf/lib/medium/regparmcall/libc.a(lib_a-locale.o)
                0x0000000000005e62                __default_locale
                0x0000000000005ea4                __mb_cur_max
 .data          0x0000000000005ea6        0x0 /usr/lib/x86_64-linux-gnu/gcc/ia16-elf/6.3.0/../../../../../ia16-elf/lib/medium/regparmcall/libc.a(lib_a-mbrtowc.o)
 .data          0x0000000000005ea6        0x4 /usr/lib/x86_64-linux-gnu/gcc/ia16-elf/6.3.0/../../../../../ia16-elf/lib/medium/regparmcall/libc.a(lib_a-mbtowc_r.o)
                0x0000000000005ea6                __mbtowc
 .data          0x0000000000005eaa        0x0 /usr/lib/x86_64-linux-gnu/gcc/ia16-elf/6.3.0/../../../../../ia16-elf/lib/medium/regparmcall/libc.a(lib_a-memchr.o)
 .data          0x0000000000005eaa        0x0 /usr/lib/x86_64-linux-gnu/gcc/ia16-elf/6.3.0/../../../../../ia16-elf/lib/medium/regparmcall/libc.a(lib_a-nano-reallocr.o)
 .data          0x0000000000005eaa        0x0 /usr/lib/x86_64-linux-gnu/gcc/ia16-elf/6.3.0/../../../../../ia16-elf/lib/medium/regparmcall/libc.a(lib_a-putc.o)
 .data          0x0000000000005eaa        0x0 /usr/lib/x86_64-linux-gnu/gcc/ia16-elf/6.3.0/../../../../../ia16-elf/lib/medium/regparmcall/libc.a(lib_a-sccl.o)
 .data          0x0000000000005eaa        0x0 /usr/lib/x86_64-linux-gnu/gcc/ia16-elf/6.3.0/../../../../../ia16-elf/lib/medium/regparmcall/libc.a(lib_a-sprintr.o)
 .data          0x0000000000005eaa        0x0 /usr/lib/x86_64-linux-gnu/gcc/ia16-elf/6.3.0/../../../../../ia16-elf/lib/medium/regparmcall/libc.a(lib_a-ssprintr.o)
 .data          0x0000000000005eaa        0x0 /usr/lib/x86_64-linux-gnu/gcc/ia16-elf/6.3.0/../../../../../ia16-elf/lib/medium/regparmcall/libc.a(lib_a-strchr.o)
 .data          0x0000000000005eaa        0x0 /usr/lib/x86_64-linux-gnu/gcc/ia16-elf/6.3.0/../../../../../ia16-elf/lib/medium/regparmcall/libc.a(lib_a-strlcpy.o)
 .data          0x0000000000005eaa        0x0 /usr/lib/x86_64-linux-gnu/gcc/ia16-elf/6.3.0/../../../../../ia16-elf/lib/medium/regparmcall/libc.a(lib_a-strtoll_r.o)
 .data          0x0000000000005eaa        0x0 /usr/lib/x86_64-linux-gnu/gcc/ia16-elf/6.3.0/../../../../../ia16-elf/lib/medium/regparmcall/libc.a(lib_a-strtoul.o)
 .data          0x0000000000005eaa        0x0 /usr/lib/x86_64-linux-gnu/gcc/ia16-elf/6.3.0/../../../../../ia16-elf/lib/medium/regparmcall/libc.a(lib_a-strtoull_r.o)
 .data          0x0000000000005eaa        0x0 /usr/lib/x86_64-linux-gnu/gcc/ia16-elf/6.3.0/../../../../../ia16-elf/lib/medium/regparmcall/libc.a(lib_a-wbuf.o)
 .data          0x0000000000005eaa        0x0 /usr/lib/x86_64-linux-gnu/gcc/ia16-elf/6.3.0/../../../../../ia16-elf/lib/medium/regparmcall/libc.a(lib_a-wcsnrtombs.o)
 .data          0x0000000000005eaa        0x0 /usr/lib/x86_64-linux-gnu/gcc/ia16-elf/6.3.0/../../../../../ia16-elf/lib/medium/regparmcall/libc.a(lib_a-getenv_r.o)
 .data          0x0000000000005eaa        0x0 /usr/lib/x86_64-linux-gnu/gcc/ia16-elf/6.3.0/../../../../../ia16-elf/lib/medium/regparmcall/libc.a(lib_a-nano-msizer.o)
 .data          0x0000000000005eaa        0x0 /usr/lib/x86_64-linux-gnu/gcc/ia16-elf/6.3.0/../../../../../ia16-elf/lib/medium/regparmcall/libc.a(lib_a-envlock.o)
 .data          0x0000000000005eaa        0x0 /usr/lib/x86_64-linux-gnu/gcc/ia16-elf/6.3.0/medium/regparmcall/libgcc.a(_ashrsi3.o)
 .data          0x0000000000005eaa        0x0 /usr/lib/x86_64-linux-gnu/gcc/ia16-elf/6.3.0/medium/regparmcall/libgcc.a(_cmpsi2.o)
 .data          0x0000000000005eaa        0x0 /usr/lib/x86_64-linux-gnu/gcc/ia16-elf/6.3.0/medium/regparmcall/libgcc.a(_ucmpsi2.o)
 .data          0x0000000000005eaa        0x0 /usr/lib/x86_64-linux-gnu/gcc/ia16-elf/6.3.0/medium/regparmcall/libgcc.a(_muldi3.o)
 .data          0x0000000000005eaa        0x0 /usr/lib/x86_64-linux-gnu/gcc/ia16-elf/6.3.0/medium/regparmcall/libgcc.a(_lshrdi3.o)
 .data          0x0000000000005eaa        0x0 /usr/lib/x86_64-linux-gnu/gcc/ia16-elf/6.3.0/medium/regparmcall/libgcc.a(_ashldi3.o)
 .data          0x0000000000005eaa        0x0 /usr/lib/x86_64-linux-gnu/gcc/ia16-elf/6.3.0/medium/regparmcall/libgcc.a(_divdi3.o)
 .data          0x0000000000005eaa        0x0 /usr/lib/x86_64-linux-gnu/gcc/ia16-elf/6.3.0/medium/regparmcall/libgcc.a(_udivdi3.o)
 .data          0x0000000000005eaa        0x0 /usr/lib/x86_64-linux-gnu/gcc/ia16-elf/6.3.0/medium/regparmcall/libgcc.a(_umoddi3.o)
 .data          0x0000000000005eaa        0x0 /usr/lib/x86_64-linux-gnu/gcc/ia16-elf/6.3.0/medium/regparmcall/libgcc.a(udivsi3.o)
 .data          0x0000000000005eaa        0x0 /usr/lib/x86_64-linux-gnu/gcc/ia16-elf/6.3.0/medium/regparmcall/libgcc.a(umodsi3.o)
 .data          0x0000000000005eaa        0x0 /usr/lib/x86_64-linux-gnu/gcc/ia16-elf/6.3.0/medium/regparmcall/libgcc.a(ia16-ldivmodu.o)
 .data          0x0000000000005eaa        0x0 /usr/lib/x86_64-linux-gnu/gcc/ia16-elf/6.3.0/medium/regparmcall/libgcc.a(divsi3.o)
 .data          0x0000000000005eaa        0x0 /usr/lib/x86_64-linux-gnu/gcc/ia16-elf/6.3.0/medium/regparmcall/libgcc.a(ia16-ldivmods.o)
 .data          0x0000000000005eaa        0x0 /usr/lib/x86_64-linux-gnu/gcc/ia16-elf/6.3.0/medium/regparmcall/libgcc.a(ashlsi3.o)
 .data          0x0000000000005eaa        0x0 /usr/lib/x86_64-linux-gnu/gcc/ia16-elf/6.3.0/medium/regparmcall/libgcc.a(lshrsi3.o)
 .data          0x0000000000005eaa        0x0 /usr/lib/x86_64-linux-gnu/gcc/ia16-elf/6.3.0/medium/regparmcall/libgcc.a(_clz.o)
 .data          0x0000000000005eaa        0x0 /usr/lib/x86_64-linux-gnu/gcc/ia16-elf/6.3.0/../../../../../ia16-elf/lib/medium/regparmcall/libdos-m.a(dos-access.o)
 .data          0x0000000000005eaa        0x0 /usr/lib/x86_64-linux-gnu/gcc/ia16-elf/6.3.0/../../../../../ia16-elf/lib/medium/regparmcall/libdos-m.a(dos-closer.o)
 .data          0x0000000000005eaa        0x0 /usr/lib/x86_64-linux-gnu/gcc/ia16-elf/6.3.0/../../../../../ia16-elf/lib/medium/regparmcall/libdos-m.a(dos-environ.o)
 .data          0x0000000000005eaa        0x0 /usr/lib/x86_64-linux-gnu/gcc/ia16-elf/6.3.0/../../../../../ia16-elf/lib/medium/regparmcall/libdos-m.a(dos-isattyr.o)
 .data          0x0000000000005eaa        0x0 /usr/lib/x86_64-linux-gnu/gcc/ia16-elf/6.3.0/../../../../../ia16-elf/lib/medium/regparmcall/libdos-m.a(dos-lseekr.o)
 .data          0x0000000000005eaa        0x0 /usr/lib/x86_64-linux-gnu/gcc/ia16-elf/6.3.0/../../../../../ia16-elf/lib/medium/regparmcall/libdos-m.a(dos-openr.o)
 .data          0x0000000000005eaa        0x0 /usr/lib/x86_64-linux-gnu/gcc/ia16-elf/6.3.0/../../../../../ia16-elf/lib/medium/regparmcall/libdos-m.a(dos-readr.o)
 .data          0x0000000000005eaa        0x2 /usr/lib/x86_64-linux-gnu/gcc/ia16-elf/6.3.0/../../../../../ia16-elf/lib/medium/regparmcall/libdos-m.a(dos-sbrkr.o)
 .data          0x0000000000005eac        0x0 /usr/lib/x86_64-linux-gnu/gcc/ia16-elf/6.3.0/../../../../../ia16-elf/lib/medium/regparmcall/libdos-m.a(dos-writer.o)
 .data          0x0000000000005eac        0x0 /usr/lib/x86_64-linux-gnu/gcc/ia16-elf/6.3.0/../../../../../ia16-elf/lib/medium/regparmcall/libdos-m.a(dos-msmmabort.o)
 .data          0x0000000000005eac        0x2 /usr/lib/x86_64-linux-gnu/gcc/ia16-elf/6.3.0/../../../../../ia16-elf/lib/medium/regparmcall/libdos-m.a(dos-heaplen.o)
                0x0000000000005eac                _heaplen
 .data          0x0000000000005eae        0x0 /usr/lib/x86_64-linux-gnu/gcc/ia16-elf/6.3.0/../../../../../ia16-elf/lib/medium/regparmcall/libdos-m.a(dos-near-data-segment.o)
 .data          0x0000000000005eae        0x0 /usr/lib/x86_64-linux-gnu/gcc/ia16-elf/6.3.0/../../../../../ia16-elf/lib/medium/regparmcall/libc.a(lib_a-abort.o)
 *(.data.*)
 *(.gcc_except_table)
                0x0000000000005eae                __edata = .
                0x0000000000005eae                . = (. == __sdata)?(. + 0x1):.
                0x0000000000005eb0                . = ALIGN (0x10)
 *fill*         0x0000000000005eae        0x2 
                0x0000000000005eb0                __edata_padded = .

.bss            0x0000000000005eb0     0x1b58 load address 0x000000000002eb40
                0x0000000000005eb0                __sbss = .
 *(.bss)
 .bss           0x0000000000005eb0        0x0 /tmp/ccx4UaLN.o
 .bss           0x0000000000005eb0        0x0 /tmp/ccxEML8E.o
 .bss           0x0000000000005eb0        0x0 /tmp/ccdWvIGc.o
 .bss           0x0000000000005eb0        0x4 /tmp/ccr8wAuP.o
                0x0000000000005eb0                oldkeyboardisr
 .bss           0x0000000000005eb4        0x0 /tmp/ccrVjDZV.o
 .bss           0x0000000000005eb4        0x0 /tmp/ccmI9gWq.o
 .bss           0x0000000000005eb4        0x0 /tmp/ccWnJyBJ.o
 .bss           0x0000000000005eb4        0x0 /tmp/cczAorzb.o
 .bss           0x0000000000005eb4        0x8 /tmp/ccRKBTkr.o
                0x0000000000005eb4                wipeduration
                0x0000000000005eb6                singletics
 .bss           0x0000000000005ebc        0x4 /tmp/ccO3qzw4.o
 .bss           0x0000000000005ec0        0x0 /tmp/ccd4J8em.o
 .bss           0x0000000000005ec0        0x0 /tmp/ccgwqY45.o
 .bss           0x0000000000005ec0        0xe /tmp/ccdsAyBl.o
 .bss           0x0000000000005ece        0x4 /tmp/ccwCcec4.o
                0x0000000000005ece                prndindex
                0x0000000000005ed0                rndindex
 .bss           0x0000000000005ed2        0x1 /tmp/ccRwwzkV.o
                0x0000000000005ed2                automapactive
 .bss           0x0000000000005ed3        0x0 /tmp/ccSifH9N.o
 .bss           0x0000000000005ed3        0x0 /tmp/ccwNsiwv.o
 .bss           0x0000000000005ed3        0x0 /tmp/cc0OYEm1.o
 *fill*         0x0000000000005ed3        0x1 
 .bss           0x0000000000005ed4        0x2 /tmp/ccBS9DOf.o
 .bss           0x0000000000005ed6        0x0 /tmp/ccMbpb2d.o
 .bss           0x0000000000005ed6        0x0 /tmp/cc2FB5MW.o
 .bss           0x0000000000005ed6        0x0 /tmp/cczHazkj.o
 .bss           0x0000000000005ed6        0x0 /tmp/cc0JoFl7.o
 .bss           0x0000000000005ed6        0x0 /tmp/ccUdflWr.o
 .bss           0x0000000000005ed6        0x0 /tmp/ccHBg70s.o
 .bss           0x0000000000005ed6        0x0 /tmp/ccebu4yL.o
 .bss           0x0000000000005ed6        0x4 /tmp/ccHDlBrQ.o
                0x0000000000005ed6                leveldataoffset_6000_phys
                0x0000000000005ed8                leveldataoffset_phys
 .bss           0x0000000000005eda        0x0 /tmp/cckU1VC7.o
 .bss           0x0000000000005eda        0x0 /tmp/ccfeytV8.o
 .bss           0x0000000000005eda        0x0 /tmp/ccloZeTM.o
 .bss           0x0000000000005eda        0x0 /tmp/ccyV2yGn.o
 .bss           0x0000000000005eda        0x0 /tmp/ccEwe8Ga.o
 .bss           0x0000000000005eda        0x0 /tmp/ccuOrYlb.o
 .bss           0x0000000000005eda        0x4 /tmp/ccN6UUr8.o
                0x0000000000005eda                setval
                0x0000000000005edc                addCount
 .bss           0x0000000000005ede        0x0 /tmp/ccrPLpfy.o
 .bss           0x0000000000005ede        0x0 /tmp/ccZiZ62w.o
 .bss           0x0000000000005ede        0x0 /tmp/ccjLIErg.o
 .bss           0x0000000000005ede        0x0 /tmp/ccmCZnzK.o
 .bss           0x0000000000005ede        0x5 /tmp/cctz3Ysd.o
                0x0000000000005ede                totalpatchsize
                0x0000000000005ee2                firstunusedflat
 *fill*         0x0000000000005ee3        0x1 
 .bss           0x0000000000005ee4        0x2 /tmp/ccMfMEUa.o
                0x0000000000005ee4                fuzzpos
 .bss           0x0000000000005ee6        0x8 /tmp/ccU4AkX7.o
                0x0000000000005ee6                fieldofview
                0x0000000000005eea                clipangle
 .bss           0x0000000000005eee        0x2 /tmp/ccbYhx0K.o
                0x0000000000005eee                tempcounter
 .bss           0x0000000000005ef0        0x0 /tmp/ccnVnEoI.o
 .bss           0x0000000000005ef0        0x0 /tmp/ccuVxVXF.o
 .bss           0x0000000000005ef0        0x0 /tmp/ccSVQz97.o
 .bss           0x0000000000005ef0        0x0 /tmp/ccAji60c.o
 .bss           0x0000000000005ef0        0x0 /tmp/cc6ZXgwY.o
 .bss           0x0000000000005ef0        0x0 /tmp/ccxkHKx5.o
 .bss           0x0000000000005ef0        0x0 /tmp/ccez6CM4.o
 .bss           0x0000000000005ef0        0x8 /tmp/ccsVuJZl.o
                0x0000000000005ef0                conventional_far_bytes
                0x0000000000005ef4                UMBsize
                0x0000000000005ef6                UMBbase
 .bss           0x0000000000005ef8        0x8 /tmp/ccn81c78.o
                0x0000000000005ef8                scratchstacklevel
                0x0000000000005ef9                current5000RemappedScratchPage
                0x0000000000005efa                conventional1head
                0x0000000000005efc                remainingconventional
                0x0000000000005efe                STATIC_CONVENTIONAL_BLOCK_SIZE
 .bss           0x0000000000005f00        0x0 /tmp/ccg57Tlx.o
 .bss           0x0000000000005f00        0x0 /tmp/ccmrsGy9.o
 .bss           0x0000000000005f00       0x3e /tmp/ccxi7GyK.o
                0x0000000000005f00                st_palette
                0x0000000000005f02                st_faceindex
                0x0000000000005f04                st_facecount
 .bss           0x0000000000005f3e        0x0 /tmp/ccFadrpy.o
 .bss           0x0000000000005f3e        0x0 /tmp/ccChX4pF.o
 .bss           0x0000000000005f3e        0x0 /tmp/cc1o6kRN.o
 .bss           0x0000000000005f3e        0x0 /tmp/ccKXMMCH.o
 .bss           0x0000000000005f3e        0x0 /tmp/ccooxdNr.o
 .bss           0x0000000000005f3e        0x0 /tmp/cc5KyAj2.o
 .bss           0x0000000000005f3e        0x0 /tmp/ccVoZS4i.o
 .bss           0x0000000000005f3e        0x0 /tmp/ccQEdboh.o
 .bss           0x0000000000005f3e        0x0 /tmp/ccqxWioq.o
 .bss           0x0000000000005f3e        0x0 /tmp/ccedHFxF.o
 .bss           0x0000000000005f3e        0x0 /tmp/ccCXOkep.o
 .bss           0x0000000000005f3e        0xa /tmp/cc1jrtzy.o
                0x0000000000005f3e                TS_InInterrupt
                0x0000000000005f42                TS_Installed
                0x0000000000005f44                TaskServiceCount
 .bss           0x0000000000005f48        0x0 /usr/lib/x86_64-linux-gnu/gcc/ia16-elf/6.3.0/../../../../../ia16-elf/lib/medium/regparmcall/libi86.a(libi86-int86-do.o)
 .bss           0x0000000000005f48        0x0 /usr/lib/x86_64-linux-gnu/gcc/ia16-elf/6.3.0/../../../../../ia16-elf/lib/medium/regparmcall/libi86.a(libi86-int86x-do.o)
 .bss           0x0000000000005f48        0x0 /usr/lib/x86_64-linux-gnu/gcc/ia16-elf/6.3.0/../../../../../ia16-elf/lib/medium/regparmcall/libi86.a(libi86-intr-call-0020.o)
 .bss           0x0000000000005f48        0x0 /usr/lib/x86_64-linux-gnu/gcc/ia16-elf/6.3.0/../../../../../ia16-elf/lib/medium/regparmcall/libi86.a(libi86-intr-call-0041.o)
 .bss           0x0000000000005f48        0x0 /usr/lib/x86_64-linux-gnu/gcc/ia16-elf/6.3.0/../../../../../ia16-elf/lib/medium/regparmcall/libi86.a(libi86-intr-call-0063.o)
 .bss           0x0000000000005f48        0x0 /usr/lib/x86_64-linux-gnu/gcc/ia16-elf/6.3.0/../../../../../ia16-elf/lib/medium/regparmcall/libi86.a(libi86-intr-call-0147.o)
 .bss           0x0000000000005f48        0x0 /usr/lib/x86_64-linux-gnu/gcc/ia16-elf/6.3.0/../../../../../ia16-elf/lib/medium/regparmcall/libi86.a(fmemcpy.o)
 .bss           0x0000000000005f48        0x0 /usr/lib/x86_64-linux-gnu/gcc/ia16-elf/6.3.0/../../../../../ia16-elf/lib/medium/regparmcall/libi86.a(fmemset.o)
 .bss           0x0000000000005f48        0x0 /usr/lib/x86_64-linux-gnu/gcc/ia16-elf/6.3.0/../../../../../ia16-elf/lib/medium/regparmcall/libi86.a(dos-getvect.o)
 .bss           0x0000000000005f48        0x0 /usr/lib/x86_64-linux-gnu/gcc/ia16-elf/6.3.0/../../../../../ia16-elf/lib/medium/regparmcall/libi86.a(dos-setvect.o)
 .bss           0x0000000000005f48        0x0 /usr/lib/x86_64-linux-gnu/gcc/ia16-elf/6.3.0/../../../../../ia16-elf/lib/medium/regparmcall/libi86.a(ffree.o)
 .bss           0x0000000000005f48        0x0 /usr/lib/x86_64-linux-gnu/gcc/ia16-elf/6.3.0/../../../../../ia16-elf/lib/medium/regparmcall/libi86.a(fmalloc.o)
 .bss           0x0000000000005f48        0x0 /usr/lib/x86_64-linux-gnu/gcc/ia16-elf/6.3.0/../../../../../ia16-elf/lib/medium/regparmcall/libi86.a(dos-allocmem.o)
 .bss           0x0000000000005f48        0x0 /usr/lib/x86_64-linux-gnu/gcc/ia16-elf/6.3.0/../../../../../ia16-elf/lib/medium/regparmcall/libi86.a(dos-freemem.o)
 .bss           0x0000000000005f48        0x0 /usr/lib/x86_64-linux-gnu/gcc/ia16-elf/6.3.0/../../../../../ia16-elf/lib/medium/regparmcall/libi86.a(libi86-ret-really-set-errno.o)
 .bss           0x0000000000005f48        0x0 /usr/lib/x86_64-linux-gnu/gcc/ia16-elf/6.3.0/../../../../../ia16-elf/lib/medium/regparmcall/tprtf-fw.a(t-sprintf.o)
 .bss           0x0000000000005f48        0x0 /usr/lib/x86_64-linux-gnu/gcc/ia16-elf/6.3.0/../../../../../ia16-elf/lib/medium/regparmcall/tprtf-fw.a(t-fprintf.o)
 .bss           0x0000000000005f48        0x0 /usr/lib/x86_64-linux-gnu/gcc/ia16-elf/6.3.0/../../../../../ia16-elf/lib/medium/regparmcall/tprtf-fw.a(t-printf.o)
 .bss           0x0000000000005f48        0x0 /usr/lib/x86_64-linux-gnu/gcc/ia16-elf/6.3.0/../../../../../ia16-elf/lib/medium/regparmcall/tprtf-fw.a(t-vprintf.o)
 .bss           0x0000000000005f48        0x0 /usr/lib/x86_64-linux-gnu/gcc/ia16-elf/6.3.0/../../../../../ia16-elf/lib/medium/regparmcall/tscnf-fw.a(t-sscanf.o)
 .bss           0x0000000000005f48        0x0 /usr/lib/x86_64-linux-gnu/gcc/ia16-elf/6.3.0/../../../../../ia16-elf/lib/medium/regparmcall/tscnf-fw.a(t-fscanf.o)
 .bss           0x0000000000005f48        0x0 /usr/lib/x86_64-linux-gnu/gcc/ia16-elf/6.3.0/../../../../../ia16-elf/lib/medium/regparmcall/iprtf-fw.a(i-sprintf.o)
 .bss           0x0000000000005f48        0x0 /usr/lib/x86_64-linux-gnu/gcc/ia16-elf/6.3.0/../../../../../ia16-elf/lib/medium/regparmcall/iprtf-fw.a(i-fprintf.o)
 .bss           0x0000000000005f48        0x0 /usr/lib/x86_64-linux-gnu/gcc/ia16-elf/6.3.0/../../../../../ia16-elf/lib/medium/regparmcall/iprtf-fw.a(i-printf.o)
 .bss           0x0000000000005f48        0x0 /usr/lib/x86_64-linux-gnu/gcc/ia16-elf/6.3.0/../../../../../ia16-elf/lib/medium/regparmcall/iprtf-fw.a(i-vprintf.o)
 .bss           0x0000000000005f48        0x0 /usr/lib/x86_64-linux-gnu/gcc/ia16-elf/6.3.0/../../../../../ia16-elf/lib/medium/regparmcall/iscnf-fw.a(i-sscanf.o)
 .bss           0x0000000000005f48        0x0 /usr/lib/x86_64-linux-gnu/gcc/ia16-elf/6.3.0/../../../../../ia16-elf/lib/medium/regparmcall/iscnf-fw.a(i-fscanf.o)
 .bss           0x0000000000005f48        0x4 /usr/lib/x86_64-linux-gnu/gcc/ia16-elf/6.3.0/medium/regparmcall/crtbegin.o
 .bss           0x0000000000005f4c        0x0 /usr/lib/x86_64-linux-gnu/gcc/ia16-elf/6.3.0/medium/regparmcall/crtend.o
 *fill*         0x0000000000005f4c        0x4 
 .bss           0x0000000000005f50       0x80 /usr/lib/x86_64-linux-gnu/gcc/ia16-elf/6.3.0/../../../../../ia16-elf/lib/medium/regparmcall/dos-m-c0.o
 .bss           0x0000000000005fd0        0x0 /usr/lib/x86_64-linux-gnu/gcc/ia16-elf/6.3.0/../../../../../ia16-elf/lib/medium/regparmcall/libc.a(lib_a-atoi.o)
 .bss           0x0000000000005fd0        0x0 /usr/lib/x86_64-linux-gnu/gcc/ia16-elf/6.3.0/../../../../../ia16-elf/lib/medium/regparmcall/libc.a(lib_a-ctype_.o)
 .bss           0x0000000000005fd0        0x0 /usr/lib/x86_64-linux-gnu/gcc/ia16-elf/6.3.0/../../../../../ia16-elf/lib/medium/regparmcall/libc.a(lib_a-errno.o)
 .bss           0x0000000000005fd0        0x0 /usr/lib/x86_64-linux-gnu/gcc/ia16-elf/6.3.0/../../../../../ia16-elf/lib/medium/regparmcall/libc.a(lib_a-exit.o)
 .bss           0x0000000000005fd0        0x0 /usr/lib/x86_64-linux-gnu/gcc/ia16-elf/6.3.0/../../../../../ia16-elf/lib/medium/regparmcall/libc.a(lib_a-fclose.o)
 .bss           0x0000000000005fd0        0x0 /usr/lib/x86_64-linux-gnu/gcc/ia16-elf/6.3.0/../../../../../ia16-elf/lib/medium/regparmcall/libc.a(lib_a-feof.o)
 .bss           0x0000000000005fd0        0x0 /usr/lib/x86_64-linux-gnu/gcc/ia16-elf/6.3.0/../../../../../ia16-elf/lib/medium/regparmcall/libc.a(lib_a-fflush.o)
 .bss           0x0000000000005fd0        0x0 /usr/lib/x86_64-linux-gnu/gcc/ia16-elf/6.3.0/../../../../../ia16-elf/lib/medium/regparmcall/libc.a(lib_a-fgetc.o)
 .bss           0x0000000000005fd0        0x0 /usr/lib/x86_64-linux-gnu/gcc/ia16-elf/6.3.0/../../../../../ia16-elf/lib/medium/regparmcall/libc.a(lib_a-findfp.o)
 .bss           0x0000000000005fd0        0x0 /usr/lib/x86_64-linux-gnu/gcc/ia16-elf/6.3.0/../../../../../ia16-elf/lib/medium/regparmcall/libc.a(lib_a-fiprintf.o)
 .bss           0x0000000000005fd0        0x0 /usr/lib/x86_64-linux-gnu/gcc/ia16-elf/6.3.0/../../../../../ia16-elf/lib/medium/regparmcall/libc.a(lib_a-fiscanf.o)
 .bss           0x0000000000005fd0        0x0 /usr/lib/x86_64-linux-gnu/gcc/ia16-elf/6.3.0/../../../../../ia16-elf/lib/medium/regparmcall/libc.a(lib_a-fopen.o)
 .bss           0x0000000000005fd0        0x0 /usr/lib/x86_64-linux-gnu/gcc/ia16-elf/6.3.0/../../../../../ia16-elf/lib/medium/regparmcall/libc.a(lib_a-fread.o)
 .bss           0x0000000000005fd0        0x0 /usr/lib/x86_64-linux-gnu/gcc/ia16-elf/6.3.0/../../../../../ia16-elf/lib/medium/regparmcall/libc.a(lib_a-fseek.o)
 .bss           0x0000000000005fd0        0x0 /usr/lib/x86_64-linux-gnu/gcc/ia16-elf/6.3.0/../../../../../ia16-elf/lib/medium/regparmcall/libc.a(lib_a-fseeko.o)
 .bss           0x0000000000005fd0        0x0 /usr/lib/x86_64-linux-gnu/gcc/ia16-elf/6.3.0/../../../../../ia16-elf/lib/medium/regparmcall/libc.a(lib_a-fwalk.o)
 .bss           0x0000000000005fd0        0x0 /usr/lib/x86_64-linux-gnu/gcc/ia16-elf/6.3.0/../../../../../ia16-elf/lib/medium/regparmcall/libc.a(lib_a-fwrite.o)
 .bss           0x0000000000005fd0        0x0 /usr/lib/x86_64-linux-gnu/gcc/ia16-elf/6.3.0/../../../../../ia16-elf/lib/medium/regparmcall/libc.a(lib_a-getc.o)
 .bss           0x0000000000005fd0        0x0 /usr/lib/x86_64-linux-gnu/gcc/ia16-elf/6.3.0/../../../../../ia16-elf/lib/medium/regparmcall/libc.a(lib_a-impure.o)
 .bss           0x0000000000005fd0        0x0 /usr/lib/x86_64-linux-gnu/gcc/ia16-elf/6.3.0/../../../../../ia16-elf/lib/medium/regparmcall/libc.a(lib_a-iprintf.o)
 .bss           0x0000000000005fd0        0x0 /usr/lib/x86_64-linux-gnu/gcc/ia16-elf/6.3.0/../../../../../ia16-elf/lib/medium/regparmcall/libc.a(lib_a-makebuf.o)
 .bss           0x0000000000005fd0        0x0 /usr/lib/x86_64-linux-gnu/gcc/ia16-elf/6.3.0/../../../../../ia16-elf/lib/medium/regparmcall/libc.a(lib_a-malloc.o)
 .bss           0x0000000000005fd0        0x0 /usr/lib/x86_64-linux-gnu/gcc/ia16-elf/6.3.0/../../../../../ia16-elf/lib/medium/regparmcall/libc.a(lib_a-memcpy.o)
 .bss           0x0000000000005fd0        0x0 /usr/lib/x86_64-linux-gnu/gcc/ia16-elf/6.3.0/../../../../../ia16-elf/lib/medium/regparmcall/libc.a(lib_a-memmove.o)
 .bss           0x0000000000005fd0        0x0 /usr/lib/x86_64-linux-gnu/gcc/ia16-elf/6.3.0/../../../../../ia16-elf/lib/medium/regparmcall/libc.a(lib_a-memset.o)
 .bss           0x0000000000005fd0        0x0 /usr/lib/x86_64-linux-gnu/gcc/ia16-elf/6.3.0/../../../../../ia16-elf/lib/medium/regparmcall/libc.a(lib_a-nano-freer.o)
 .bss           0x0000000000005fd0        0x4 /usr/lib/x86_64-linux-gnu/gcc/ia16-elf/6.3.0/../../../../../ia16-elf/lib/medium/regparmcall/libc.a(lib_a-nano-mallocr.o)
                0x0000000000005fd0                __malloc_sbrk_start
                0x0000000000005fd2                __malloc_free_list
 .bss           0x0000000000005fd4        0x0 /usr/lib/x86_64-linux-gnu/gcc/ia16-elf/6.3.0/../../../../../ia16-elf/lib/medium/regparmcall/libc.a(lib_a-putchar.o)
 .bss           0x0000000000005fd4        0x0 /usr/lib/x86_64-linux-gnu/gcc/ia16-elf/6.3.0/../../../../../ia16-elf/lib/medium/regparmcall/libc.a(lib_a-puts.o)
 .bss           0x0000000000005fd4        0x0 /usr/lib/x86_64-linux-gnu/gcc/ia16-elf/6.3.0/../../../../../ia16-elf/lib/medium/regparmcall/libc.a(lib_a-refill.o)
 .bss           0x0000000000005fd4        0x0 /usr/lib/x86_64-linux-gnu/gcc/ia16-elf/6.3.0/../../../../../ia16-elf/lib/medium/regparmcall/libc.a(lib_a-rget.o)
 .bss           0x0000000000005fd4        0x0 /usr/lib/x86_64-linux-gnu/gcc/ia16-elf/6.3.0/../../../../../ia16-elf/lib/medium/regparmcall/libc.a(lib_a-setbuf.o)
 .bss           0x0000000000005fd4        0x0 /usr/lib/x86_64-linux-gnu/gcc/ia16-elf/6.3.0/../../../../../ia16-elf/lib/medium/regparmcall/libc.a(lib_a-setvbuf.o)
 .bss           0x0000000000005fd4        0x0 /usr/lib/x86_64-linux-gnu/gcc/ia16-elf/6.3.0/../../../../../ia16-elf/lib/medium/regparmcall/libc.a(lib_a-siprintf.o)
 .bss           0x0000000000005fd4        0x0 /usr/lib/x86_64-linux-gnu/gcc/ia16-elf/6.3.0/../../../../../ia16-elf/lib/medium/regparmcall/libc.a(lib_a-siscanf.o)
 .bss           0x0000000000005fd4        0x0 /usr/lib/x86_64-linux-gnu/gcc/ia16-elf/6.3.0/../../../../../ia16-elf/lib/medium/regparmcall/libc.a(lib_a-stdio.o)
 .bss           0x0000000000005fd4        0x0 /usr/lib/x86_64-linux-gnu/gcc/ia16-elf/6.3.0/../../../../../ia16-elf/lib/medium/regparmcall/libc.a(lib_a-strcasecmp.o)
 .bss           0x0000000000005fd4        0x0 /usr/lib/x86_64-linux-gnu/gcc/ia16-elf/6.3.0/../../../../../ia16-elf/lib/medium/regparmcall/libc.a(lib_a-strcat.o)
 .bss           0x0000000000005fd4        0x0 /usr/lib/x86_64-linux-gnu/gcc/ia16-elf/6.3.0/../../../../../ia16-elf/lib/medium/regparmcall/libc.a(lib_a-strcmp.o)
 .bss           0x0000000000005fd4        0x0 /usr/lib/x86_64-linux-gnu/gcc/ia16-elf/6.3.0/../../../../../ia16-elf/lib/medium/regparmcall/libc.a(lib_a-strcpy.o)
 .bss           0x0000000000005fd4        0x0 /usr/lib/x86_64-linux-gnu/gcc/ia16-elf/6.3.0/../../../../../ia16-elf/lib/medium/regparmcall/libc.a(lib_a-strlen.o)
 .bss           0x0000000000005fd4        0x0 /usr/lib/x86_64-linux-gnu/gcc/ia16-elf/6.3.0/../../../../../ia16-elf/lib/medium/regparmcall/libc.a(lib_a-strncasecmp.o)
 .bss           0x0000000000005fd4        0x0 /usr/lib/x86_64-linux-gnu/gcc/ia16-elf/6.3.0/../../../../../ia16-elf/lib/medium/regparmcall/libc.a(lib_a-strncmp.o)
 .bss           0x0000000000005fd4        0x0 /usr/lib/x86_64-linux-gnu/gcc/ia16-elf/6.3.0/../../../../../ia16-elf/lib/medium/regparmcall/libc.a(lib_a-strncpy.o)
 .bss           0x0000000000005fd4        0x0 /usr/lib/x86_64-linux-gnu/gcc/ia16-elf/6.3.0/../../../../../ia16-elf/lib/medium/regparmcall/libc.a(lib_a-strtol.o)
 .bss           0x0000000000005fd4        0x0 /usr/lib/x86_64-linux-gnu/gcc/ia16-elf/6.3.0/../../../../../ia16-elf/lib/medium/regparmcall/libc.a(lib_a-strupr.o)
 .bss           0x0000000000005fd4        0x0 /usr/lib/x86_64-linux-gnu/gcc/ia16-elf/6.3.0/../../../../../ia16-elf/lib/medium/regparmcall/libc.a(lib_a-svfiprintf.o)
 .bss           0x0000000000005fd4        0x0 /usr/lib/x86_64-linux-gnu/gcc/ia16-elf/6.3.0/../../../../../ia16-elf/lib/medium/regparmcall/libc.a(lib_a-svfiscanf.o)
 .bss           0x0000000000005fd4        0x0 /usr/lib/x86_64-linux-gnu/gcc/ia16-elf/6.3.0/../../../../../ia16-elf/lib/medium/regparmcall/libc.a(lib_a-sysclose.o)
 .bss           0x0000000000005fd4        0x0 /usr/lib/x86_64-linux-gnu/gcc/ia16-elf/6.3.0/../../../../../ia16-elf/lib/medium/regparmcall/libc.a(lib_a-sysisatty.o)
 .bss           0x0000000000005fd4        0x0 /usr/lib/x86_64-linux-gnu/gcc/ia16-elf/6.3.0/../../../../../ia16-elf/lib/medium/regparmcall/libc.a(lib_a-syslseek.o)
 .bss           0x0000000000005fd4        0x0 /usr/lib/x86_64-linux-gnu/gcc/ia16-elf/6.3.0/../../../../../ia16-elf/lib/medium/regparmcall/libc.a(lib_a-sysopen.o)
 .bss           0x0000000000005fd4        0x0 /usr/lib/x86_64-linux-gnu/gcc/ia16-elf/6.3.0/../../../../../ia16-elf/lib/medium/regparmcall/libc.a(lib_a-sysread.o)
 .bss           0x0000000000005fd4        0x0 /usr/lib/x86_64-linux-gnu/gcc/ia16-elf/6.3.0/../../../../../ia16-elf/lib/medium/regparmcall/libc.a(lib_a-syswrite.o)
 .bss           0x0000000000005fd4        0x0 /usr/lib/x86_64-linux-gnu/gcc/ia16-elf/6.3.0/../../../../../ia16-elf/lib/medium/regparmcall/libc.a(lib_a-ungetc.o)
 .bss           0x0000000000005fd4        0x0 /usr/lib/x86_64-linux-gnu/gcc/ia16-elf/6.3.0/../../../../../ia16-elf/lib/medium/regparmcall/libc.a(lib_a-vfiprintf.o)
 .bss           0x0000000000005fd4        0x0 /usr/lib/x86_64-linux-gnu/gcc/ia16-elf/6.3.0/../../../../../ia16-elf/lib/medium/regparmcall/libc.a(lib_a-vfiscanf.o)
 .bss           0x0000000000005fd4        0x0 /usr/lib/x86_64-linux-gnu/gcc/ia16-elf/6.3.0/../../../../../ia16-elf/lib/medium/regparmcall/libc.a(lib_a-viprintf.o)
 .bss           0x0000000000005fd4        0x0 /usr/lib/x86_64-linux-gnu/gcc/ia16-elf/6.3.0/../../../../../ia16-elf/lib/medium/regparmcall/libc.a(lib_a-wcrtomb.o)
 .bss           0x0000000000005fd4        0x0 /usr/lib/x86_64-linux-gnu/gcc/ia16-elf/6.3.0/../../../../../ia16-elf/lib/medium/regparmcall/libc.a(lib_a-wcsrtombs.o)
 .bss           0x0000000000005fd4        0x0 /usr/lib/x86_64-linux-gnu/gcc/ia16-elf/6.3.0/../../../../../ia16-elf/lib/medium/regparmcall/libc.a(lib_a-wctomb_r.o)
 .bss           0x0000000000005fd4        0x0 /usr/lib/x86_64-linux-gnu/gcc/ia16-elf/6.3.0/../../../../../ia16-elf/lib/medium/regparmcall/libc.a(lib_a-wsetup.o)
 .bss           0x0000000000005fd4        0x2 /usr/lib/x86_64-linux-gnu/gcc/ia16-elf/6.3.0/../../../../../ia16-elf/lib/medium/regparmcall/libc.a(lib_a-__call_atexit.o)
                0x0000000000005fd4                _global_atexit
 .bss           0x0000000000005fd6        0x0 /usr/lib/x86_64-linux-gnu/gcc/ia16-elf/6.3.0/../../../../../ia16-elf/lib/medium/regparmcall/libc.a(lib_a-flags.o)
 .bss           0x0000000000005fd6        0x0 /usr/lib/x86_64-linux-gnu/gcc/ia16-elf/6.3.0/../../../../../ia16-elf/lib/medium/regparmcall/libc.a(lib_a-fvwrite.o)
 .bss           0x0000000000005fd6        0x0 /usr/lib/x86_64-linux-gnu/gcc/ia16-elf/6.3.0/../../../../../ia16-elf/lib/medium/regparmcall/libc.a(lib_a-iswspace.o)
 .bss           0x0000000000005fd6        0x0 /usr/lib/x86_64-linux-gnu/gcc/ia16-elf/6.3.0/../../../../../ia16-elf/lib/medium/regparmcall/libc.a(lib_a-jp2uc.o)
 .bss           0x0000000000005fd6      0x2af /usr/lib/x86_64-linux-gnu/gcc/ia16-elf/6.3.0/../../../../../ia16-elf/lib/medium/regparmcall/libc.a(lib_a-locale.o)
                0x0000000000005fd6                _PathLocale
                0x0000000000005fd8                __mlocale_changed
                0x0000000000005fda                __nlocale_changed
 .bss           0x0000000000006285        0x0 /usr/lib/x86_64-linux-gnu/gcc/ia16-elf/6.3.0/../../../../../ia16-elf/lib/medium/regparmcall/libc.a(lib_a-mbrtowc.o)
 .bss           0x0000000000006285        0x0 /usr/lib/x86_64-linux-gnu/gcc/ia16-elf/6.3.0/../../../../../ia16-elf/lib/medium/regparmcall/libc.a(lib_a-mbtowc_r.o)
 .bss           0x0000000000006285        0x0 /usr/lib/x86_64-linux-gnu/gcc/ia16-elf/6.3.0/../../../../../ia16-elf/lib/medium/regparmcall/libc.a(lib_a-memchr.o)
 .bss           0x0000000000006285        0x0 /usr/lib/x86_64-linux-gnu/gcc/ia16-elf/6.3.0/../../../../../ia16-elf/lib/medium/regparmcall/libc.a(lib_a-nano-reallocr.o)
 .bss           0x0000000000006285        0x0 /usr/lib/x86_64-linux-gnu/gcc/ia16-elf/6.3.0/../../../../../ia16-elf/lib/medium/regparmcall/libc.a(lib_a-putc.o)
 .bss           0x0000000000006285        0x0 /usr/lib/x86_64-linux-gnu/gcc/ia16-elf/6.3.0/../../../../../ia16-elf/lib/medium/regparmcall/libc.a(lib_a-sccl.o)
 .bss           0x0000000000006285        0x0 /usr/lib/x86_64-linux-gnu/gcc/ia16-elf/6.3.0/../../../../../ia16-elf/lib/medium/regparmcall/libc.a(lib_a-sprintr.o)
 .bss           0x0000000000006285        0x0 /usr/lib/x86_64-linux-gnu/gcc/ia16-elf/6.3.0/../../../../../ia16-elf/lib/medium/regparmcall/libc.a(lib_a-ssprintr.o)
 .bss           0x0000000000006285        0x0 /usr/lib/x86_64-linux-gnu/gcc/ia16-elf/6.3.0/../../../../../ia16-elf/lib/medium/regparmcall/libc.a(lib_a-strchr.o)
 .bss           0x0000000000006285        0x0 /usr/lib/x86_64-linux-gnu/gcc/ia16-elf/6.3.0/../../../../../ia16-elf/lib/medium/regparmcall/libc.a(lib_a-strlcpy.o)
 .bss           0x0000000000006285        0x0 /usr/lib/x86_64-linux-gnu/gcc/ia16-elf/6.3.0/../../../../../ia16-elf/lib/medium/regparmcall/libc.a(lib_a-strtoll_r.o)
 .bss           0x0000000000006285        0x0 /usr/lib/x86_64-linux-gnu/gcc/ia16-elf/6.3.0/../../../../../ia16-elf/lib/medium/regparmcall/libc.a(lib_a-strtoul.o)
 .bss           0x0000000000006285        0x0 /usr/lib/x86_64-linux-gnu/gcc/ia16-elf/6.3.0/../../../../../ia16-elf/lib/medium/regparmcall/libc.a(lib_a-strtoull_r.o)
 .bss           0x0000000000006285        0x0 /usr/lib/x86_64-linux-gnu/gcc/ia16-elf/6.3.0/../../../../../ia16-elf/lib/medium/regparmcall/libc.a(lib_a-wbuf.o)
 .bss           0x0000000000006285        0x0 /usr/lib/x86_64-linux-gnu/gcc/ia16-elf/6.3.0/../../../../../ia16-elf/lib/medium/regparmcall/libc.a(lib_a-wcsnrtombs.o)
 .bss           0x0000000000006285        0x0 /usr/lib/x86_64-linux-gnu/gcc/ia16-elf/6.3.0/../../../../../ia16-elf/lib/medium/regparmcall/libc.a(lib_a-getenv_r.o)
 .bss           0x0000000000006285        0x0 /usr/lib/x86_64-linux-gnu/gcc/ia16-elf/6.3.0/../../../../../ia16-elf/lib/medium/regparmcall/libc.a(lib_a-nano-msizer.o)
 .bss           0x0000000000006285        0x0 /usr/lib/x86_64-linux-gnu/gcc/ia16-elf/6.3.0/../../../../../ia16-elf/lib/medium/regparmcall/libc.a(lib_a-envlock.o)
 .bss           0x0000000000006285        0x0 /usr/lib/x86_64-linux-gnu/gcc/ia16-elf/6.3.0/medium/regparmcall/libgcc.a(_ashrsi3.o)
 .bss           0x0000000000006285        0x0 /usr/lib/x86_64-linux-gnu/gcc/ia16-elf/6.3.0/medium/regparmcall/libgcc.a(_cmpsi2.o)
 .bss           0x0000000000006285        0x0 /usr/lib/x86_64-linux-gnu/gcc/ia16-elf/6.3.0/medium/regparmcall/libgcc.a(_ucmpsi2.o)
 .bss           0x0000000000006285        0x0 /usr/lib/x86_64-linux-gnu/gcc/ia16-elf/6.3.0/medium/regparmcall/libgcc.a(_muldi3.o)
 .bss           0x0000000000006285        0x0 /usr/lib/x86_64-linux-gnu/gcc/ia16-elf/6.3.0/medium/regparmcall/libgcc.a(_lshrdi3.o)
 .bss           0x0000000000006285        0x0 /usr/lib/x86_64-linux-gnu/gcc/ia16-elf/6.3.0/medium/regparmcall/libgcc.a(_ashldi3.o)
 .bss           0x0000000000006285        0x0 /usr/lib/x86_64-linux-gnu/gcc/ia16-elf/6.3.0/medium/regparmcall/libgcc.a(_divdi3.o)
 .bss           0x0000000000006285        0x0 /usr/lib/x86_64-linux-gnu/gcc/ia16-elf/6.3.0/medium/regparmcall/libgcc.a(_udivdi3.o)
 .bss           0x0000000000006285        0x0 /usr/lib/x86_64-linux-gnu/gcc/ia16-elf/6.3.0/medium/regparmcall/libgcc.a(_umoddi3.o)
 .bss           0x0000000000006285        0x0 /usr/lib/x86_64-linux-gnu/gcc/ia16-elf/6.3.0/medium/regparmcall/libgcc.a(udivsi3.o)
 .bss           0x0000000000006285        0x0 /usr/lib/x86_64-linux-gnu/gcc/ia16-elf/6.3.0/medium/regparmcall/libgcc.a(umodsi3.o)
 .bss           0x0000000000006285        0x0 /usr/lib/x86_64-linux-gnu/gcc/ia16-elf/6.3.0/medium/regparmcall/libgcc.a(ia16-ldivmodu.o)
 .bss           0x0000000000006285        0x0 /usr/lib/x86_64-linux-gnu/gcc/ia16-elf/6.3.0/medium/regparmcall/libgcc.a(divsi3.o)
 .bss           0x0000000000006285        0x0 /usr/lib/x86_64-linux-gnu/gcc/ia16-elf/6.3.0/medium/regparmcall/libgcc.a(ia16-ldivmods.o)
 .bss           0x0000000000006285        0x0 /usr/lib/x86_64-linux-gnu/gcc/ia16-elf/6.3.0/medium/regparmcall/libgcc.a(ashlsi3.o)
 .bss           0x0000000000006285        0x0 /usr/lib/x86_64-linux-gnu/gcc/ia16-elf/6.3.0/medium/regparmcall/libgcc.a(lshrsi3.o)
 .bss           0x0000000000006285        0x0 /usr/lib/x86_64-linux-gnu/gcc/ia16-elf/6.3.0/medium/regparmcall/libgcc.a(_clz.o)
 .bss           0x0000000000006285        0x0 /usr/lib/x86_64-linux-gnu/gcc/ia16-elf/6.3.0/../../../../../ia16-elf/lib/medium/regparmcall/libdos-m.a(dos-access.o)
 .bss           0x0000000000006285        0x0 /usr/lib/x86_64-linux-gnu/gcc/ia16-elf/6.3.0/../../../../../ia16-elf/lib/medium/regparmcall/libdos-m.a(dos-closer.o)
 .bss           0x0000000000006285        0x0 /usr/lib/x86_64-linux-gnu/gcc/ia16-elf/6.3.0/../../../../../ia16-elf/lib/medium/regparmcall/libdos-m.a(dos-environ.o)
 .bss           0x0000000000006285        0x0 /usr/lib/x86_64-linux-gnu/gcc/ia16-elf/6.3.0/../../../../../ia16-elf/lib/medium/regparmcall/libdos-m.a(dos-isattyr.o)
 .bss           0x0000000000006285        0x0 /usr/lib/x86_64-linux-gnu/gcc/ia16-elf/6.3.0/../../../../../ia16-elf/lib/medium/regparmcall/libdos-m.a(dos-lseekr.o)
 .bss           0x0000000000006285        0x0 /usr/lib/x86_64-linux-gnu/gcc/ia16-elf/6.3.0/../../../../../ia16-elf/lib/medium/regparmcall/libdos-m.a(dos-openr.o)
 .bss           0x0000000000006285        0x0 /usr/lib/x86_64-linux-gnu/gcc/ia16-elf/6.3.0/../../../../../ia16-elf/lib/medium/regparmcall/libdos-m.a(dos-readr.o)
 .bss           0x0000000000006285        0x0 /usr/lib/x86_64-linux-gnu/gcc/ia16-elf/6.3.0/../../../../../ia16-elf/lib/medium/regparmcall/libdos-m.a(dos-sbrkr.o)
 .bss           0x0000000000006285        0x0 /usr/lib/x86_64-linux-gnu/gcc/ia16-elf/6.3.0/../../../../../ia16-elf/lib/medium/regparmcall/libdos-m.a(dos-writer.o)
 .bss           0x0000000000006285       0x80 /usr/lib/x86_64-linux-gnu/gcc/ia16-elf/6.3.0/../../../../../ia16-elf/lib/medium/regparmcall/libdos-m.a(dos-msmmabort.o)
 .bss           0x0000000000006305        0x0 /usr/lib/x86_64-linux-gnu/gcc/ia16-elf/6.3.0/../../../../../ia16-elf/lib/medium/regparmcall/libdos-m.a(dos-heaplen.o)
 .bss           0x0000000000006305        0x0 /usr/lib/x86_64-linux-gnu/gcc/ia16-elf/6.3.0/../../../../../ia16-elf/lib/medium/regparmcall/libdos-m.a(dos-near-data-segment.o)
 .bss           0x0000000000006305        0x0 /usr/lib/x86_64-linux-gnu/gcc/ia16-elf/6.3.0/../../../../../ia16-elf/lib/medium/regparmcall/libc.a(lib_a-abort.o)
 *(.bss.*)
 *(COMMON)
 *fill*         0x0000000000006305        0x1 
 COMMON         0x0000000000006306       0x84 /tmp/ccr8wAuP.o
                0x0000000000006306                grmode
                0x0000000000006307                segregs
                0x000000000000630f                in
                0x000000000000631f                novideo
                0x0000000000006320                kbdtail
                0x0000000000006321                out
                0x0000000000006332                pcscreen
                0x0000000000006336                keyboardque
                0x0000000000006356                mousepresent
                0x0000000000006358                destview
                0x000000000000635c                kbdhead
                0x000000000000635e                currentscreen
                0x0000000000006362                destscreen
                0x0000000000006366                regs
                0x0000000000006376                ticcount
                0x000000000000637a                olddb
 COMMON         0x000000000000638a        0xf /tmp/ccrVjDZV.o
                0x000000000000638a                snd_MusicVolume
                0x000000000000638b                snd_SfxDevice
                0x000000000000638c                snd_Mport
                0x000000000000638e                snd_Mport8bit
                0x000000000000638f                snd_SBirq
                0x0000000000006390                snd_DesiredSfxDevice
                0x0000000000006391                snd_SfxVolume
                0x0000000000006392                snd_MusicDevice
                0x0000000000006394                snd_SBport
                0x0000000000006396                snd_SBport8bit
                0x0000000000006397                snd_SBdma
                0x0000000000006398                snd_DesiredMusicDevice
 *fill*         0x0000000000006399        0x1 
 COMMON         0x000000000000639a       0x1e /tmp/ccRKBTkr.o
                0x000000000000639a                startmap
                0x000000000000639c                wadfiles
                0x00000000000063a2                shareware
                0x00000000000063a4                pagetic
                0x00000000000063a6                startskill
                0x00000000000063a7                respawnparm
                0x00000000000063a8                demosequence
                0x00000000000063a9                nomonsters
                0x00000000000063aa                modifiedgame
                0x00000000000063ab                fastparm
                0x00000000000063ac                eventtail
                0x00000000000063ad                drone
                0x00000000000063ae                registered
                0x00000000000063b0                pagename
                0x00000000000063b2                autostart
                0x00000000000063b3                advancedemo
                0x00000000000063b4                skipdirectdraws
                0x00000000000063b5                startepisode
                0x00000000000063b6                eventhead
                0x00000000000063b7                commercial
 COMMON         0x00000000000063b8        0xe /tmp/ccO3qzw4.o
                0x00000000000063b8                maketic
                0x00000000000063bc                nettics
                0x00000000000063c0                skiptics
                0x00000000000063c2                gametime
 COMMON         0x00000000000063c6      0x319 /tmp/ccgwqY45.o
                0x00000000000063c6                timingdemo
                0x00000000000063c7                paused
                0x00000000000063c8                totalitems
                0x00000000000063ca                starttime
                0x00000000000063ce                demoname
                0x00000000000063ee                dclicks2
                0x00000000000063f2                localcmds
                0x0000000000006492                bodyque
                0x00000000000064d2                player
                0x0000000000006553                mousebstrafe
                0x0000000000006554                netdemo
                0x0000000000006556                dclicktime2
                0x000000000000655a                d_skill
                0x000000000000655b                usergame
                0x000000000000655c                respawnmonsters
                0x000000000000655d                key_use
                0x000000000000655e                defdemoname
                0x0000000000006560                dclicktime
                0x0000000000006564                key_strafeleft
                0x0000000000006566                dclicks
                0x000000000000656a                turnheld
                0x000000000000656c                demo_p
                0x000000000000656e                gamekeydown
                0x000000000000666e                totalsecret
                0x0000000000006670                DEMO_SEGMENT
                0x0000000000006672                gamestate
                0x0000000000006674                mousey
                0x0000000000006676                key_straferight
                0x0000000000006677                singledemo
                0x0000000000006678                wminfo
                0x000000000000668f                noblit
                0x0000000000006690                mousebfire
                0x0000000000006691                demoplayback
                0x0000000000006692                totalkills
                0x0000000000006694                gameskill
                0x0000000000006695                savegameslot
                0x0000000000006696                gameepisode
                0x0000000000006697                key_fire
                0x0000000000006698                gametic
                0x000000000000669c                key_right
                0x000000000000669e                dclickstate
                0x00000000000066a2                d_map
                0x00000000000066a3                demorecording
                0x00000000000066a4                d_episode
                0x00000000000066a5                nodrawers
                0x00000000000066a6                key_left
                0x00000000000066a7                viewactive
                0x00000000000066a8                key_strafe
                0x00000000000066a9                key_down
                0x00000000000066aa                key_up
                0x00000000000066ab                sendsave
                0x00000000000066ac                mousebforward
                0x00000000000066ad                gamemap
                0x00000000000066ae                gameaction
                0x00000000000066b0                mousex
                0x00000000000066b2                sendpause
                0x00000000000066b3                mousearray
                0x00000000000066b8                dclickstate2
                0x00000000000066bc                secretexit
                0x00000000000066bd                savedescription
                0x00000000000066dd                key_speed
                0x00000000000066de                bodyqueslot
 *fill*         0x00000000000066df        0x1 
 COMMON         0x00000000000066e0      0x240 /tmp/ccdsAyBl.o
                0x00000000000066e0                whichSkull
                0x00000000000066e2                mouseSensitivity
                0x00000000000066e3                saveOldString
                0x00000000000066fb                sfxVolume
                0x00000000000066fc                skullAnimCounter
                0x00000000000066fe                menuoffsets
                0x0000000000006758                quickSaveSlot
                0x0000000000006759                screenblocks
                0x000000000000675a                read_e2
                0x000000000000675c                saveSlot
                0x000000000000675e                newgame_e
                0x000000000000675f                messageNeedsInput
                0x0000000000006760                detailLevel
                0x0000000000006761                musicVolume
                0x0000000000006762                episodes_e
                0x0000000000006764                messageRoutine
                0x0000000000006768                messageLastMenuActive
                0x000000000000676a                currentMenu
                0x000000000000676c                menuactive
                0x000000000000676d                read_e
                0x000000000000676e                sound_e
                0x000000000000676f                options_e
                0x0000000000006770                screenSize
                0x0000000000006772                saveStringEnter
                0x0000000000006774                itemOn
                0x0000000000006776                saveCharIndex
                0x0000000000006778                messageString
                0x00000000000067dc                epi
                0x00000000000067dd                tempstring
                0x000000000000682d                savegamestrings
                0x000000000000691d                inhelpscreens
                0x000000000000691e                showMessages
                0x000000000000691f                messageToPrint
 COMMON         0x0000000000006920        0x8 /tmp/ccwCcec4.o
                0x0000000000006920                myargv
                0x0000000000006922                usemouse
                0x0000000000006924                defaultfile
                0x0000000000006926                myargc
 COMMON         0x0000000000006928        0x6 /tmp/ccSifH9N.o
                0x0000000000006928                sprtemp
                0x000000000000692c                maxframe
 COMMON         0x000000000000692e       0x3c /tmp/ccwNsiwv.o
                0x000000000000692e                activeceilings
 COMMON         0x000000000000696a       0x52 /tmp/ccBS9DOf.o
                0x000000000000696a                numbraintargets
                0x000000000000696c                viletryx
                0x0000000000006970                viletryy
                0x0000000000006974                vileobj
                0x0000000000006978                braintargeton
                0x000000000000697a                corpsehitRef
                0x000000000000697c                braintargets
 COMMON         0x00000000000069bc       0x7c /tmp/cc0JoFl7.o
                0x00000000000069bc                shootthing
                0x00000000000069c0                tmflags
                0x00000000000069c4                tmceilingz
                0x00000000000069c6                bombdamage
                0x00000000000069c8                tmthing
                0x00000000000069cc                tmx
                0x00000000000069d0                nofit
                0x00000000000069d2                bombspot_pos
                0x00000000000069d6                bombspot
                0x00000000000069da                tmfloorz
                0x00000000000069dc                bombsource
                0x00000000000069e0                linetarget_pos
                0x00000000000069e4                attackrange
                0x00000000000069e8                shootz
                0x00000000000069ec                tmbbox
                0x00000000000069fc                tmy
                0x0000000000006a00                linetarget
                0x0000000000006a04                tmdropoffz
                0x0000000000006a06                ceilinglinenum
                0x0000000000006a08                numspechit
                0x0000000000006a0a                bestslidefrac
                0x0000000000006a0e                floatok
                0x0000000000006a10                aimslope
                0x0000000000006a14                tmxmove
                0x0000000000006a18                bestslidelinenum
                0x0000000000006a1a                la_damage
                0x0000000000006a1c                lastcalculatedsector
                0x0000000000006a1e                tmymove
                0x0000000000006a22                spechit
                0x0000000000006a32                crushchange
                0x0000000000006a34                tmthing_pos
 COMMON         0x0000000000006a38       0x31 /tmp/ccUdflWr.o
                0x0000000000006a38                trace
                0x0000000000006a48                earlyout
                0x0000000000006a4a                intercept_p
                0x0000000000006a4e                dl
                0x0000000000006a5e                ptflags
                0x0000000000006a62                lineopening
 *fill*         0x0000000000006a69        0x1 
 COMMON         0x0000000000006a6a       0x3c /tmp/ccHBg70s.o
                0x0000000000006a6a                activeplats
 COMMON         0x0000000000006aa6        0x4 /tmp/ccebu4yL.o
                0x0000000000006aa6                bulletslope
 COMMON         0x0000000000006aaa       0x54 /tmp/ccHDlBrQ.o
                0x0000000000006aaa                sectors
                0x0000000000006aae                bmapwidth
                0x0000000000006ab0                vertexes
                0x0000000000006ab4                bmaporgy
                0x0000000000006ab6                numsides
                0x0000000000006ab8                blockmaplump
                0x0000000000006abc                numvertexes
                0x0000000000006abe                numsectors
                0x0000000000006ac0                nodes_render
                0x0000000000006ac4                bmaporgx
                0x0000000000006ac6                linebuffer
                0x0000000000006aca                subsectors
                0x0000000000006ace                segs
                0x0000000000006ad2                numsegs
                0x0000000000006ad4                seenlines
                0x0000000000006ad8                bmapheight
                0x0000000000006ada                numlines
                0x0000000000006adc                nodes
                0x0000000000006ae0                lines_physics
                0x0000000000006ae4                numnodes
                0x0000000000006ae6                segs_render
                0x0000000000006aea                segs_physics
                0x0000000000006aee                sides
                0x0000000000006af2                blocklinks
                0x0000000000006af6                total
                0x0000000000006af8                numsubsectors
                0x0000000000006afa                lines
 COMMON         0x0000000000006afe       0x24 /tmp/cckU1VC7.o
                0x0000000000006afe                topslope
                0x0000000000006b02                cachedt2y
                0x0000000000006b06                cachedt2x
                0x0000000000006b0a                strace
                0x0000000000006b1a                bottomslope
                0x0000000000006b1e                sightzstart
 COMMON         0x0000000000006b22      0x10a /tmp/ccfeytV8.o
                0x0000000000006b22                numlinespecials
                0x0000000000006b24                linespeciallist
                0x0000000000006ba4                levelTimeCount
                0x0000000000006ba8                levelTimer
                0x0000000000006ba9                anims
                0x0000000000006c2a                lastanim
 COMMON         0x0000000000006c2c      0x106 /tmp/ccloZeTM.o
                0x0000000000006c2c                numswitches
                0x0000000000006c2e                switchlist
                0x0000000000006c92                buttonlist
 COMMON         0x0000000000006d32        0xc /tmp/ccyV2yGn.o
                0x0000000000006d32                setStateReturn
                0x0000000000006d36                SAVEDUNIT
                0x0000000000006d3a                setStateReturn_pos
 COMMON         0x0000000000006d3e        0x4 /tmp/ccuOrYlb.o
                0x0000000000006d3e                specials_e
                0x0000000000006d40                save_p
 COMMON         0x0000000000006d42        0xa /tmp/ccN6UUr8.o
                0x0000000000006d42                currentThinkerListHead
                0x0000000000006d44                mobjposlist
                0x0000000000006d48                leveltime
 COMMON         0x0000000000006d4c        0x1 /tmp/ccrPLpfy.o
                0x0000000000006d4c                onground
 *fill*         0x0000000000006d4d        0x1 
 COMMON         0x0000000000006d4e       0x96 /tmp/ccmCZnzK.o
                0x0000000000006d4e                frontsector
                0x0000000000006d52                ds_p
                0x0000000000006d56                backsector
                0x0000000000006d5a                newend
                0x0000000000006d5c                solidsegs
                0x0000000000006ddc                curseg_render
                0x0000000000006de0                curseg
 COMMON         0x0000000000006de4       0x5e /tmp/cctz3Ysd.o
                0x0000000000006de4                numflats
                0x0000000000006de6                compositetextureoffset
                0x0000000000006dea                numpatches
                0x0000000000006dec                compositetexturepage
                0x0000000000006df0                spriteoffsets
                0x0000000000006df4                firstflat
                0x0000000000006df6                patchpage
                0x0000000000006dfa                texturedefs_offset
                0x0000000000006dfc                flattranslation
                0x0000000000006dfe                spritedefs_bytes
                0x0000000000006e02                lastspritelump
                0x0000000000006e04                spritetopoffsets
                0x0000000000006e08                lastflat
                0x0000000000006e0a                texturecolumn_offset
                0x0000000000006e0c                texturetranslation
                0x0000000000006e0e                numtextures
                0x0000000000006e10                spriteoffset
                0x0000000000006e14                firstspritelump
                0x0000000000006e16                activetexturepages
                0x0000000000006e1e                textureLRU
                0x0000000000006e26                lastpatch
                0x0000000000006e28                patchoffset
                0x0000000000006e2c                texturecompositesizes
                0x0000000000006e2e                texturewidthmasks
                0x0000000000006e30                spritepage
                0x0000000000006e34                firstpatch
                0x0000000000006e36                textureheights
                0x0000000000006e38                flatindex
                0x0000000000006e3c                activenumpages
                0x0000000000006e40                numspritelumps
 COMMON         0x0000000000006e42      0x2c4 /tmp/ccMfMEUa.o
                0x0000000000006e42                dc_yl
                0x0000000000006e44                ds_source
                0x0000000000006e48                ds_x2
                0x0000000000006e4a                ds_xstep
                0x0000000000006e4e                ds_colormap
                0x0000000000006e52                viewwidth
                0x0000000000006e54                ds_ystep
                0x0000000000006e58                ds_yfrac
                0x0000000000006e5c                ds_xfrac
                0x0000000000006e60                dc_yh
                0x0000000000006e62                dc_x
                0x0000000000006e64                dc_source
                0x0000000000006e68                dc_iscale
                0x0000000000006e6c                viewimage
                0x0000000000006e70                viewwindowoffset
                0x0000000000006e72                viewheight
                0x0000000000006e74                dc_texturemid
                0x0000000000006e78                ds_x1
                0x0000000000006e7a                columnofs
                0x00000000000070fa                scaledviewwidth
                0x00000000000070fc                dc_colormap
                0x0000000000007100                viewwindowy
                0x0000000000007102                ds_y
                0x0000000000007104                viewwindowx
 COMMON         0x0000000000007106       0x5a /tmp/ccU4AkX7.o
                0x0000000000007106                detailshift
                0x0000000000007107                skytexture
                0x0000000000007108                centery
                0x000000000000710a                projection
                0x000000000000710e                viewcos
                0x0000000000007112                fixedcolormap
                0x0000000000007116                extralight
                0x0000000000007118                fuzzcolfunc
                0x000000000000711c                viewz_shortheight
                0x000000000000711e                viewy
                0x0000000000007122                setsizeneeded
                0x0000000000007123                setdetail
                0x0000000000007124                colfunc
                0x0000000000007128                viewangle_shiftright3
                0x000000000000712a                viewsin
                0x000000000000712e                centerx
                0x0000000000007130                spanfunc
                0x0000000000007134                r_cachedstatecopy
                0x0000000000007140                basecolfunc
                0x0000000000007144                viewz
                0x0000000000007148                skyflatnum
                0x0000000000007149                setblocks
                0x000000000000714a                r_cachedplayerMobjsecnum
                0x000000000000714c                centeryfrac
                0x0000000000007150                viewangle
                0x0000000000007154                viewx
                0x0000000000007158                centeryfrac_shiftright4
                0x000000000000715c                centerxfrac
 COMMON         0x0000000000007160       0x1a /tmp/ccbYhx0K.o
                0x0000000000007160                planezlight
                0x0000000000007164                lastopening
                0x0000000000007168                planeheight
                0x000000000000716c                floorplaneindex
                0x000000000000716e                lastvisplane
                0x0000000000007170                baseyscale
                0x0000000000007174                ceilingplaneindex
                0x0000000000007176                basexscale
 COMMON         0x000000000000717a       0x68 /tmp/ccnVnEoI.o
                0x000000000000717a                worldbottom
                0x000000000000717e                pixhighstep
                0x0000000000007182                rw_x
                0x0000000000007184                topfrac
                0x0000000000007188                rw_scale
                0x000000000000718c                worldtop
                0x0000000000007190                midtexture
                0x0000000000007191                rw_offset
                0x0000000000007196                pixlow
                0x000000000000719a                rw_bottomtexturemid
                0x000000000000719e                rw_stopx
                0x00000000000071a0                bottomtexture
                0x00000000000071a1                rw_toptexturemid
                0x00000000000071a5                markfloor
                0x00000000000071a6                walllights
                0x00000000000071aa                segtextured
                0x00000000000071ac                pixlowstep
                0x00000000000071b0                rw_normalangle
                0x00000000000071b2                worldlow
                0x00000000000071b6                bottomfrac
                0x00000000000071ba                rw_distance
                0x00000000000071be                rw_scalestep
                0x00000000000071c0                maskedtexture
                0x00000000000071c1                toptexture
                0x00000000000071c2                worldhigh
                0x00000000000071c6                bottomstep
                0x00000000000071ca                rw_angle1
                0x00000000000071ce                rw_midtexturemid
                0x00000000000071d2                maskedtexturecol
                0x00000000000071d6                markceiling
                0x00000000000071d8                topstep
                0x00000000000071dc                rw_centerangle
                0x00000000000071de                pixhigh
 COMMON         0x00000000000071e2       0x5a /tmp/ccuVxVXF.o
                0x00000000000071e2                pspritescale
                0x00000000000071e4                sprites
                0x00000000000071e8                vissprite_p
                0x00000000000071ec                spryscale
                0x00000000000071f0                vsprsortedhead
                0x0000000000007226                mceilingclip
                0x000000000000722a                numsprites
                0x000000000000722c                pspriteiscale
                0x0000000000007230                sprtopscreen
                0x0000000000007234                mfloorclip
                0x0000000000007238                spritelights
 COMMON         0x000000000000723c        0x8 /tmp/ccAji60c.o
                0x000000000000723c                numlumps
                0x000000000000723e                reloadname
                0x0000000000007240                reloadlump
                0x0000000000007242                wadfilehandle
 COMMON         0x0000000000007244        0x9 /tmp/ccxkHKx5.o
                0x0000000000007244                dirtybox
                0x000000000000724c                usegamma
 *fill*         0x000000000000724d        0x1 
 COMMON         0x000000000000724e      0x4e4 /tmp/ccez6CM4.o
                0x000000000000724e                conventionallowerblock
                0x0000000000007730                EMS_PAGE
 COMMON         0x0000000000007732        0x4 /tmp/ccsVuJZl.o
                0x0000000000007732                XMSaddr
 COMMON         0x0000000000007736       0x10 /tmp/ccn81c78.o
                0x0000000000007736                emshandle
                0x0000000000007738                pageswapargseg
                0x000000000000773a                pageswapargoff
                0x000000000000773c                conventionalmemoryblock
                0x0000000000007740                pagenum9000
                0x0000000000007742                pageFrameArea
 COMMON         0x0000000000007746       0xde /tmp/ccxi7GyK.o
                0x0000000000007746                w_health
                0x0000000000007752                w_arms
                0x0000000000007782                w_maxammo
                0x00000000000077aa                w_armsbg
                0x00000000000077b2                st_gamestate
                0x00000000000077b3                w_ready
                0x00000000000077bd                st_randomnumber
                0x00000000000077be                keyboxes
                0x00000000000077c4                updatedthisframe
                0x00000000000077c5                w_keyboxes
                0x00000000000077dd                w_armor
                0x00000000000077e9                oldweaponsowned
                0x00000000000077f2                w_ammo
                0x000000000000781a                w_faces
                0x0000000000007822                st_firsttime
                0x0000000000007823                st_statusbaron
 COMMON         0x0000000000007824      0x1c6 /tmp/cc1o6kRN.o
                0x0000000000007824                message_nottobefuckedwith
                0x0000000000007825                w_title
                0x000000000000787e                w_message
                0x00000000000079e7                message_counter
                0x00000000000079e8                message_on
                0x00000000000079e9                message_dontfuckwithme
 COMMON         0x00000000000079ea        0x1 /tmp/cc5KyAj2.o
                0x00000000000079ea                numChannels
 *fill*         0x00000000000079eb        0x1 
 COMMON         0x00000000000079ec       0x1a /tmp/cc1jrtzy.o
                0x00000000000079ec                TS_TimesInInterrupt
                0x00000000000079f0                OldInt8
                0x00000000000079f4                HeadTask
 COMMON         0x0000000000007a06        0x2 /usr/lib/x86_64-linux-gnu/gcc/ia16-elf/6.3.0/../../../../../ia16-elf/lib/medium/regparmcall/libdos-m.a(dos-environ.o)
                0x0000000000007a06                environ
                0x0000000000007a08                __ebss = .
                0x0000000000007a08                __heap_end_minimum = ALIGN (0x8)
                0x0000000000000001                ASSERT ((. <= 0xfd00), Error: too large for a small-model .exe file.)
                0x0000000000000001                ASSERT (((LOADADDR (.bss) + SIZEOF (.bss)) <= 0xa0000), Error: too large for a .exe file.)
                0x0000000000000001                ASSERT ((ABSOLUTE (DEFINED (main!)?main!:0x0) == 0x0), Error: using non-segelf ld script with segelf program.)
                0x0000000000000001                ASSERT ((ABSOLUTE (DEFINED (environ!)?environ!:0x0) == 0x0), Error: using non-segelf ld script with segelf library.)
                0x0000000000005e8e                __ldata = (__edata - __sdata)
                0x0000000000001b58                __lbss0 = (__ebss - __sbss)
                0x0000000000001b59                __lbss1 = (__lbss0 + 0x1)
                0x0000000000000dac                __lbss = (__lbss1 / 0x2)
                0x0000000000003688                __msdos_initial_alloc_paras = (((((LOADADDR (.data) / 0x10) - (LOADADDR (.text) / 0x10)) + 0x10) + 0x1000) - (ADDR (.data) / 0x10))

.tail
 *(.tail)
 *(SORT_BY_NAME(.tail.*))
 *(.zip)
 *(SORT_BY_NAME(.zip.*))
 *(.ov)
 *(SORT_BY_NAME(.ov.*))
 *(.ov0)
 *(SORT_BY_NAME(.ov0.*))
 *(.ov1)
 *(SORT_BY_NAME(.ov1.*))
 *(.ov2)
 *(SORT_BY_NAME(.ov2.*))
 *(.ov3)
 *(SORT_BY_NAME(.ov3.*))
 *(.ov4)
 *(SORT_BY_NAME(.ov4.*))
 *(.ov5)
 *(SORT_BY_NAME(.ov5.*))
 *(.ov6)
 *(SORT_BY_NAME(.ov6.*))
 *(.ov7)
 *(SORT_BY_NAME(.ov7.*))

/DISCARD/
 *(.*)
OUTPUT(GCCIA16/REALDOOM.EXE binary)
